ARM GAS  C:\Users\Jamie\AppData\Local\Temp\ccdQyQj8.s 			page 1


   1              		.syntax unified
   2              		.cpu cortex-m3
   3              		.fpu softvfp
   4              		.eabi_attribute 20, 1
   5              		.eabi_attribute 21, 1
   6              		.eabi_attribute 23, 3
   7              		.eabi_attribute 24, 1
   8              		.eabi_attribute 25, 1
   9              		.eabi_attribute 26, 1
  10              		.eabi_attribute 30, 6
  11              		.eabi_attribute 34, 1
  12              		.eabi_attribute 18, 4
  13              		.thumb
  14              		.file	"blocktim.c"
  15              		.text
  16              	.Ltext0:
  17              		.cfi_sections	.debug_frame
  18              		.bss
  19              		.align	2
  20              	xTestQueue:
  21 0000 00000000 		.space	4
  22              		.align	2
  23              	xSecondary:
  24 0004 00000000 		.space	4
  25              		.align	2
  26              	xPrimaryCycles:
  27 0008 00000000 		.space	4
  28              		.align	2
  29              	xSecondaryCycles:
  30 000c 00000000 		.space	4
  31              		.align	2
  32              	xErrorOccurred:
  33 0010 00000000 		.space	4
  34              		.align	2
  35              	xRunIndicator:
  36 0014 00000000 		.space	4
  37              		.section	.rodata
  38              		.align	2
  39              	.LC0:
  40 0000 426C6F63 		.ascii	"Block_Time_Queue\000"
  40      6B5F5469 
  40      6D655F51 
  40      75657565 
  40      00
  41 0011 000000   		.align	2
  42              	.LC1:
  43 0014 42546573 		.ascii	"BTest1\000"
  43      743100
  44 001b 00       		.align	2
  45              	.LC2:
  46 001c 42546573 		.ascii	"BTest2\000"
  46      743200
  47 0023 00       		.section	.text.vCreateBlockTimeTasks,"ax",%progbits
  48              		.align	2
  49              		.global	vCreateBlockTimeTasks
  50              		.thumb
  51              		.thumb_func
ARM GAS  C:\Users\Jamie\AppData\Local\Temp\ccdQyQj8.s 			page 2


  52              		.type	vCreateBlockTimeTasks, %function
  53              	vCreateBlockTimeTasks:
  54              	.LFB68:
  55              		.file 1 "..\\..\\Common\\Minimal\\blocktim.c"
   1:..\..\Common\Minimal/blocktim.c **** /*
   2:..\..\Common\Minimal/blocktim.c ****  * FreeRTOS Kernel V10.0.1
   3:..\..\Common\Minimal/blocktim.c ****  * Copyright (C) 2017 Amazon.com, Inc. or its affiliates.  All Rights Reserved.
   4:..\..\Common\Minimal/blocktim.c ****  *
   5:..\..\Common\Minimal/blocktim.c ****  * Permission is hereby granted, free of charge, to any person obtaining a copy of
   6:..\..\Common\Minimal/blocktim.c ****  * this software and associated documentation files (the "Software"), to deal in
   7:..\..\Common\Minimal/blocktim.c ****  * the Software without restriction, including without limitation the rights to
   8:..\..\Common\Minimal/blocktim.c ****  * use, copy, modify, merge, publish, distribute, sublicense, and/or sell copies of
   9:..\..\Common\Minimal/blocktim.c ****  * the Software, and to permit persons to whom the Software is furnished to do so,
  10:..\..\Common\Minimal/blocktim.c ****  * subject to the following conditions:
  11:..\..\Common\Minimal/blocktim.c ****  *
  12:..\..\Common\Minimal/blocktim.c ****  * The above copyright notice and this permission notice shall be included in all
  13:..\..\Common\Minimal/blocktim.c ****  * copies or substantial portions of the Software.
  14:..\..\Common\Minimal/blocktim.c ****  *
  15:..\..\Common\Minimal/blocktim.c ****  * THE SOFTWARE IS PROVIDED "AS IS", WITHOUT WARRANTY OF ANY KIND, EXPRESS OR
  16:..\..\Common\Minimal/blocktim.c ****  * IMPLIED, INCLUDING BUT NOT LIMITED TO THE WARRANTIES OF MERCHANTABILITY, FITNESS
  17:..\..\Common\Minimal/blocktim.c ****  * FOR A PARTICULAR PURPOSE AND NONINFRINGEMENT. IN NO EVENT SHALL THE AUTHORS OR
  18:..\..\Common\Minimal/blocktim.c ****  * COPYRIGHT HOLDERS BE LIABLE FOR ANY CLAIM, DAMAGES OR OTHER LIABILITY, WHETHER
  19:..\..\Common\Minimal/blocktim.c ****  * IN AN ACTION OF CONTRACT, TORT OR OTHERWISE, ARISING FROM, OUT OF OR IN
  20:..\..\Common\Minimal/blocktim.c ****  * CONNECTION WITH THE SOFTWARE OR THE USE OR OTHER DEALINGS IN THE SOFTWARE.
  21:..\..\Common\Minimal/blocktim.c ****  *
  22:..\..\Common\Minimal/blocktim.c ****  * http://www.FreeRTOS.org
  23:..\..\Common\Minimal/blocktim.c ****  * http://aws.amazon.com/freertos
  24:..\..\Common\Minimal/blocktim.c ****  *
  25:..\..\Common\Minimal/blocktim.c ****  * 1 tab == 4 spaces!
  26:..\..\Common\Minimal/blocktim.c ****  */
  27:..\..\Common\Minimal/blocktim.c **** 
  28:..\..\Common\Minimal/blocktim.c **** /*
  29:..\..\Common\Minimal/blocktim.c ****  * This file contains some test scenarios that ensure tasks do not exit queue
  30:..\..\Common\Minimal/blocktim.c ****  * send or receive functions prematurely.  A description of the tests is
  31:..\..\Common\Minimal/blocktim.c ****  * included within the code.
  32:..\..\Common\Minimal/blocktim.c ****  */
  33:..\..\Common\Minimal/blocktim.c **** 
  34:..\..\Common\Minimal/blocktim.c **** /* Kernel includes. */
  35:..\..\Common\Minimal/blocktim.c **** #include "FreeRTOS.h"
  36:..\..\Common\Minimal/blocktim.c **** #include "task.h"
  37:..\..\Common\Minimal/blocktim.c **** #include "queue.h"
  38:..\..\Common\Minimal/blocktim.c **** 
  39:..\..\Common\Minimal/blocktim.c **** /* Demo includes. */
  40:..\..\Common\Minimal/blocktim.c **** #include "blocktim.h"
  41:..\..\Common\Minimal/blocktim.c **** 
  42:..\..\Common\Minimal/blocktim.c **** /* Task priorities.  Allow these to be overridden. */
  43:..\..\Common\Minimal/blocktim.c **** #ifndef bktPRIMARY_PRIORITY
  44:..\..\Common\Minimal/blocktim.c **** 	#define bktPRIMARY_PRIORITY		( configMAX_PRIORITIES - 3 )
  45:..\..\Common\Minimal/blocktim.c **** #endif
  46:..\..\Common\Minimal/blocktim.c **** 
  47:..\..\Common\Minimal/blocktim.c **** #ifndef bktSECONDARY_PRIORITY
  48:..\..\Common\Minimal/blocktim.c **** 	#define bktSECONDARY_PRIORITY	( configMAX_PRIORITIES - 4 )
  49:..\..\Common\Minimal/blocktim.c **** #endif
  50:..\..\Common\Minimal/blocktim.c **** 
  51:..\..\Common\Minimal/blocktim.c **** /* Task behaviour. */
  52:..\..\Common\Minimal/blocktim.c **** #define bktQUEUE_LENGTH				( 5 )
  53:..\..\Common\Minimal/blocktim.c **** #define bktSHORT_WAIT				pdMS_TO_TICKS( ( TickType_t ) 20 )
ARM GAS  C:\Users\Jamie\AppData\Local\Temp\ccdQyQj8.s 			page 3


  54:..\..\Common\Minimal/blocktim.c **** #define bktPRIMARY_BLOCK_TIME		( 10 )
  55:..\..\Common\Minimal/blocktim.c **** #define bktALLOWABLE_MARGIN			( 15 )
  56:..\..\Common\Minimal/blocktim.c **** #define bktTIME_TO_BLOCK			( 175 )
  57:..\..\Common\Minimal/blocktim.c **** #define bktDONT_BLOCK				( ( TickType_t ) 0 )
  58:..\..\Common\Minimal/blocktim.c **** #define bktRUN_INDICATOR			( ( UBaseType_t ) 0x55 )
  59:..\..\Common\Minimal/blocktim.c **** 
  60:..\..\Common\Minimal/blocktim.c **** /* In case the demo does not have software timers enabled, as this file uses
  61:..\..\Common\Minimal/blocktim.c **** the configTIMER_TASK_PRIORITY setting. */
  62:..\..\Common\Minimal/blocktim.c **** #ifndef configTIMER_TASK_PRIORITY
  63:..\..\Common\Minimal/blocktim.c **** 	#define configTIMER_TASK_PRIORITY ( configMAX_PRIORITIES - 1 )
  64:..\..\Common\Minimal/blocktim.c **** #endif
  65:..\..\Common\Minimal/blocktim.c **** 
  66:..\..\Common\Minimal/blocktim.c **** /*-----------------------------------------------------------*/
  67:..\..\Common\Minimal/blocktim.c **** 
  68:..\..\Common\Minimal/blocktim.c **** /*
  69:..\..\Common\Minimal/blocktim.c ****  * The two test tasks.  Their behaviour is commented within the functions.
  70:..\..\Common\Minimal/blocktim.c ****  */
  71:..\..\Common\Minimal/blocktim.c **** static void vPrimaryBlockTimeTestTask( void *pvParameters );
  72:..\..\Common\Minimal/blocktim.c **** static void vSecondaryBlockTimeTestTask( void *pvParameters );
  73:..\..\Common\Minimal/blocktim.c **** 
  74:..\..\Common\Minimal/blocktim.c **** /*
  75:..\..\Common\Minimal/blocktim.c ****  * Very basic tests to verify the block times are as expected.
  76:..\..\Common\Minimal/blocktim.c ****  */
  77:..\..\Common\Minimal/blocktim.c **** static void prvBasicDelayTests( void );
  78:..\..\Common\Minimal/blocktim.c **** 
  79:..\..\Common\Minimal/blocktim.c **** /*-----------------------------------------------------------*/
  80:..\..\Common\Minimal/blocktim.c **** 
  81:..\..\Common\Minimal/blocktim.c **** /* The queue on which the tasks block. */
  82:..\..\Common\Minimal/blocktim.c **** static QueueHandle_t xTestQueue;
  83:..\..\Common\Minimal/blocktim.c **** 
  84:..\..\Common\Minimal/blocktim.c **** /* Handle to the secondary task is required by the primary task for calls
  85:..\..\Common\Minimal/blocktim.c **** to vTaskSuspend/Resume(). */
  86:..\..\Common\Minimal/blocktim.c **** static TaskHandle_t xSecondary;
  87:..\..\Common\Minimal/blocktim.c **** 
  88:..\..\Common\Minimal/blocktim.c **** /* Used to ensure that tasks are still executing without error. */
  89:..\..\Common\Minimal/blocktim.c **** static volatile BaseType_t xPrimaryCycles = 0, xSecondaryCycles = 0;
  90:..\..\Common\Minimal/blocktim.c **** static volatile BaseType_t xErrorOccurred = pdFALSE;
  91:..\..\Common\Minimal/blocktim.c **** 
  92:..\..\Common\Minimal/blocktim.c **** /* Provides a simple mechanism for the primary task to know when the
  93:..\..\Common\Minimal/blocktim.c **** secondary task has executed. */
  94:..\..\Common\Minimal/blocktim.c **** static volatile UBaseType_t xRunIndicator;
  95:..\..\Common\Minimal/blocktim.c **** 
  96:..\..\Common\Minimal/blocktim.c **** /*-----------------------------------------------------------*/
  97:..\..\Common\Minimal/blocktim.c **** 
  98:..\..\Common\Minimal/blocktim.c **** void vCreateBlockTimeTasks( void )
  99:..\..\Common\Minimal/blocktim.c **** {
  56              		.loc 1 99 0
  57              		.cfi_startproc
  58              		@ args = 0, pretend = 0, frame = 0
  59              		@ frame_needed = 1, uses_anonymous_args = 0
  60 0000 80B5     		push	{r7, lr}
  61              		.cfi_def_cfa_offset 8
  62              		.cfi_offset 7, -8
  63              		.cfi_offset 14, -4
  64 0002 82B0     		sub	sp, sp, #8
  65              		.cfi_def_cfa_offset 16
  66 0004 02AF     		add	r7, sp, #8
ARM GAS  C:\Users\Jamie\AppData\Local\Temp\ccdQyQj8.s 			page 4


  67              		.cfi_def_cfa 7, 8
 100:..\..\Common\Minimal/blocktim.c **** 	/* Create the queue on which the two tasks block. */
 101:..\..\Common\Minimal/blocktim.c **** 	xTestQueue = xQueueCreate( bktQUEUE_LENGTH, sizeof( BaseType_t ) );
  68              		.loc 1 101 0
  69 0006 0520     		movs	r0, #5
  70 0008 0421     		movs	r1, #4
  71 000a 0022     		movs	r2, #0
  72 000c FFF7FEFF 		bl	xQueueGenericCreate
  73 0010 0246     		mov	r2, r0
  74 0012 114B     		ldr	r3, .L3
  75 0014 1A60     		str	r2, [r3]
 102:..\..\Common\Minimal/blocktim.c **** 
 103:..\..\Common\Minimal/blocktim.c **** 	if( xTestQueue != NULL )
  76              		.loc 1 103 0
  77 0016 104B     		ldr	r3, .L3
  78 0018 1B68     		ldr	r3, [r3]
  79 001a 002B     		cmp	r3, #0
  80 001c 19D0     		beq	.L1
 104:..\..\Common\Minimal/blocktim.c **** 	{
 105:..\..\Common\Minimal/blocktim.c **** 		/* vQueueAddToRegistry() adds the queue to the queue registry, if one
 106:..\..\Common\Minimal/blocktim.c **** 		is in use.  The queue registry is provided as a means for kernel aware
 107:..\..\Common\Minimal/blocktim.c **** 		debuggers to locate queues and has no purpose if a kernel aware
 108:..\..\Common\Minimal/blocktim.c **** 		debugger is not being used.  The call to vQueueAddToRegistry() will be
 109:..\..\Common\Minimal/blocktim.c **** 		removed by the pre-processor if configQUEUE_REGISTRY_SIZE is not
 110:..\..\Common\Minimal/blocktim.c **** 		defined or is defined to be less than 1. */
 111:..\..\Common\Minimal/blocktim.c **** 		vQueueAddToRegistry( xTestQueue, "Block_Time_Queue" );
  81              		.loc 1 111 0
  82 001e 0E4B     		ldr	r3, .L3
  83 0020 1B68     		ldr	r3, [r3]
  84 0022 1846     		mov	r0, r3
  85 0024 0D49     		ldr	r1, .L3+4
  86 0026 FFF7FEFF 		bl	vQueueAddToRegistry
 112:..\..\Common\Minimal/blocktim.c **** 
 113:..\..\Common\Minimal/blocktim.c **** 		/* Create the two test tasks. */
 114:..\..\Common\Minimal/blocktim.c **** 		xTaskCreate( vPrimaryBlockTimeTestTask, "BTest1", configMINIMAL_STACK_SIZE, NULL, bktPRIMARY_PRIO
  87              		.loc 1 114 0
  88 002a 0223     		movs	r3, #2
  89 002c 0093     		str	r3, [sp]
  90 002e 0023     		movs	r3, #0
  91 0030 0193     		str	r3, [sp, #4]
  92 0032 0B48     		ldr	r0, .L3+8
  93 0034 0B49     		ldr	r1, .L3+12
  94 0036 6422     		movs	r2, #100
  95 0038 0023     		movs	r3, #0
  96 003a FFF7FEFF 		bl	xTaskCreate
 115:..\..\Common\Minimal/blocktim.c **** 		xTaskCreate( vSecondaryBlockTimeTestTask, "BTest2", configMINIMAL_STACK_SIZE, NULL, bktSECONDARY_
  97              		.loc 1 115 0
  98 003e 0123     		movs	r3, #1
  99 0040 0093     		str	r3, [sp]
 100 0042 094B     		ldr	r3, .L3+16
 101 0044 0193     		str	r3, [sp, #4]
 102 0046 0948     		ldr	r0, .L3+20
 103 0048 0949     		ldr	r1, .L3+24
 104 004a 6422     		movs	r2, #100
 105 004c 0023     		movs	r3, #0
 106 004e FFF7FEFF 		bl	xTaskCreate
 107              	.L1:
ARM GAS  C:\Users\Jamie\AppData\Local\Temp\ccdQyQj8.s 			page 5


 116:..\..\Common\Minimal/blocktim.c **** 	}
 117:..\..\Common\Minimal/blocktim.c **** }
 108              		.loc 1 117 0
 109 0052 BD46     		mov	sp, r7
 110              		.cfi_def_cfa_register 13
 111              		@ sp needed
 112 0054 80BD     		pop	{r7, pc}
 113              	.L4:
 114 0056 00BF     		.align	2
 115              	.L3:
 116 0058 00000000 		.word	xTestQueue
 117 005c 00000000 		.word	.LC0
 118 0060 00000000 		.word	vPrimaryBlockTimeTestTask
 119 0064 14000000 		.word	.LC1
 120 0068 04000000 		.word	xSecondary
 121 006c 00000000 		.word	vSecondaryBlockTimeTestTask
 122 0070 1C000000 		.word	.LC2
 123              		.cfi_endproc
 124              	.LFE68:
 125              		.size	vCreateBlockTimeTasks, .-vCreateBlockTimeTasks
 126              		.section	.text.vPrimaryBlockTimeTestTask,"ax",%progbits
 127              		.align	2
 128              		.thumb
 129              		.thumb_func
 130              		.type	vPrimaryBlockTimeTestTask, %function
 131              	vPrimaryBlockTimeTestTask:
 132              	.LFB69:
 118:..\..\Common\Minimal/blocktim.c **** /*-----------------------------------------------------------*/
 119:..\..\Common\Minimal/blocktim.c **** 
 120:..\..\Common\Minimal/blocktim.c **** static void vPrimaryBlockTimeTestTask( void *pvParameters )
 121:..\..\Common\Minimal/blocktim.c **** {
 133              		.loc 1 121 0
 134              		.cfi_startproc
 135              		@ args = 0, pretend = 0, frame = 32
 136              		@ frame_needed = 1, uses_anonymous_args = 0
 137 0000 80B5     		push	{r7, lr}
 138              		.cfi_def_cfa_offset 8
 139              		.cfi_offset 7, -8
 140              		.cfi_offset 14, -4
 141 0002 88B0     		sub	sp, sp, #32
 142              		.cfi_def_cfa_offset 40
 143 0004 00AF     		add	r7, sp, #0
 144              		.cfi_def_cfa_register 7
 145 0006 7860     		str	r0, [r7, #4]
 146              	.L42:
 122:..\..\Common\Minimal/blocktim.c **** BaseType_t xItem, xData;
 123:..\..\Common\Minimal/blocktim.c **** TickType_t xTimeWhenBlocking;
 124:..\..\Common\Minimal/blocktim.c **** TickType_t xTimeToBlock, xBlockedTime;
 125:..\..\Common\Minimal/blocktim.c **** 
 126:..\..\Common\Minimal/blocktim.c **** 	( void ) pvParameters;
 127:..\..\Common\Minimal/blocktim.c **** 
 128:..\..\Common\Minimal/blocktim.c **** 	for( ;; )
 129:..\..\Common\Minimal/blocktim.c **** 	{
 130:..\..\Common\Minimal/blocktim.c **** 		/*********************************************************************
 131:..\..\Common\Minimal/blocktim.c **** 		Test 0
 132:..\..\Common\Minimal/blocktim.c **** 
 133:..\..\Common\Minimal/blocktim.c **** 		Basic vTaskDelay() and vTaskDelayUntil() tests. */
ARM GAS  C:\Users\Jamie\AppData\Local\Temp\ccdQyQj8.s 			page 6


 134:..\..\Common\Minimal/blocktim.c **** 		prvBasicDelayTests();
 147              		.loc 1 134 0
 148 0008 FFF7FEFF 		bl	prvBasicDelayTests
 135:..\..\Common\Minimal/blocktim.c **** 
 136:..\..\Common\Minimal/blocktim.c **** 
 137:..\..\Common\Minimal/blocktim.c **** 		/*********************************************************************
 138:..\..\Common\Minimal/blocktim.c **** 		Test 1
 139:..\..\Common\Minimal/blocktim.c **** 
 140:..\..\Common\Minimal/blocktim.c **** 		Simple block time wakeup test on queue receives. */
 141:..\..\Common\Minimal/blocktim.c **** 		for( xItem = 0; xItem < bktQUEUE_LENGTH; xItem++ )
 149              		.loc 1 141 0
 150 000c 0023     		movs	r3, #0
 151 000e 3B61     		str	r3, [r7, #16]
 152 0010 2FE0     		b	.L6
 153              	.L10:
 142:..\..\Common\Minimal/blocktim.c **** 		{
 143:..\..\Common\Minimal/blocktim.c **** 			/* The queue is empty. Attempt to read from the queue using a block
 144:..\..\Common\Minimal/blocktim.c **** 			time.  When we wake, ensure the delta in time is as expected. */
 145:..\..\Common\Minimal/blocktim.c **** 			xTimeToBlock = ( TickType_t ) ( bktPRIMARY_BLOCK_TIME << xItem );
 154              		.loc 1 145 0
 155 0012 3B69     		ldr	r3, [r7, #16]
 156 0014 0A22     		movs	r2, #10
 157 0016 02FA03F3 		lsl	r3, r2, r3
 158 001a FB61     		str	r3, [r7, #28]
 146:..\..\Common\Minimal/blocktim.c **** 
 147:..\..\Common\Minimal/blocktim.c **** 			xTimeWhenBlocking = xTaskGetTickCount();
 159              		.loc 1 147 0
 160 001c FFF7FEFF 		bl	xTaskGetTickCount
 161 0020 B861     		str	r0, [r7, #24]
 148:..\..\Common\Minimal/blocktim.c **** 
 149:..\..\Common\Minimal/blocktim.c **** 			/* We should unblock after xTimeToBlock having not received
 150:..\..\Common\Minimal/blocktim.c **** 			anything on the queue. */
 151:..\..\Common\Minimal/blocktim.c **** 			if( xQueueReceive( xTestQueue, &xData, xTimeToBlock ) != errQUEUE_EMPTY )
 162              		.loc 1 151 0
 163 0022 A74B     		ldr	r3, .L43
 164 0024 1A68     		ldr	r2, [r3]
 165 0026 07F10C03 		add	r3, r7, #12
 166 002a 1046     		mov	r0, r2
 167 002c 1946     		mov	r1, r3
 168 002e FA69     		ldr	r2, [r7, #28]
 169 0030 FFF7FEFF 		bl	xQueueReceive
 170 0034 0346     		mov	r3, r0
 171 0036 002B     		cmp	r3, #0
 172 0038 02D0     		beq	.L7
 152:..\..\Common\Minimal/blocktim.c **** 			{
 153:..\..\Common\Minimal/blocktim.c **** 				xErrorOccurred = pdTRUE;
 173              		.loc 1 153 0
 174 003a A24B     		ldr	r3, .L43+4
 175 003c 0122     		movs	r2, #1
 176 003e 1A60     		str	r2, [r3]
 177              	.L7:
 154:..\..\Common\Minimal/blocktim.c **** 			}
 155:..\..\Common\Minimal/blocktim.c **** 
 156:..\..\Common\Minimal/blocktim.c **** 			/* How long were we blocked for? */
 157:..\..\Common\Minimal/blocktim.c **** 			xBlockedTime = xTaskGetTickCount() - xTimeWhenBlocking;
 178              		.loc 1 157 0
 179 0040 FFF7FEFF 		bl	xTaskGetTickCount
ARM GAS  C:\Users\Jamie\AppData\Local\Temp\ccdQyQj8.s 			page 7


 180 0044 0246     		mov	r2, r0
 181 0046 BB69     		ldr	r3, [r7, #24]
 182 0048 D31A     		subs	r3, r2, r3
 183 004a 7B61     		str	r3, [r7, #20]
 158:..\..\Common\Minimal/blocktim.c **** 
 159:..\..\Common\Minimal/blocktim.c **** 			if( xBlockedTime < xTimeToBlock )
 184              		.loc 1 159 0
 185 004c 7A69     		ldr	r2, [r7, #20]
 186 004e FB69     		ldr	r3, [r7, #28]
 187 0050 9A42     		cmp	r2, r3
 188 0052 02D2     		bcs	.L8
 160:..\..\Common\Minimal/blocktim.c **** 			{
 161:..\..\Common\Minimal/blocktim.c **** 				/* Should not have blocked for less than we requested. */
 162:..\..\Common\Minimal/blocktim.c **** 				xErrorOccurred = pdTRUE;
 189              		.loc 1 162 0
 190 0054 9B4B     		ldr	r3, .L43+4
 191 0056 0122     		movs	r2, #1
 192 0058 1A60     		str	r2, [r3]
 193              	.L8:
 163:..\..\Common\Minimal/blocktim.c **** 			}
 164:..\..\Common\Minimal/blocktim.c **** 
 165:..\..\Common\Minimal/blocktim.c **** 			if( xBlockedTime > ( xTimeToBlock + bktALLOWABLE_MARGIN ) )
 194              		.loc 1 165 0
 195 005a FB69     		ldr	r3, [r7, #28]
 196 005c 03F10F02 		add	r2, r3, #15
 197 0060 7B69     		ldr	r3, [r7, #20]
 198 0062 9A42     		cmp	r2, r3
 199 0064 02D2     		bcs	.L9
 166:..\..\Common\Minimal/blocktim.c **** 			{
 167:..\..\Common\Minimal/blocktim.c **** 				/* Should not have blocked for longer than we requested,
 168:..\..\Common\Minimal/blocktim.c **** 				although we would not necessarily run as soon as we were
 169:..\..\Common\Minimal/blocktim.c **** 				unblocked so a margin is allowed. */
 170:..\..\Common\Minimal/blocktim.c **** 				xErrorOccurred = pdTRUE;
 200              		.loc 1 170 0
 201 0066 974B     		ldr	r3, .L43+4
 202 0068 0122     		movs	r2, #1
 203 006a 1A60     		str	r2, [r3]
 204              	.L9:
 141:..\..\Common\Minimal/blocktim.c **** 		{
 205              		.loc 1 141 0 discriminator 2
 206 006c 3B69     		ldr	r3, [r7, #16]
 207 006e 0133     		adds	r3, r3, #1
 208 0070 3B61     		str	r3, [r7, #16]
 209              	.L6:
 141:..\..\Common\Minimal/blocktim.c **** 		{
 210              		.loc 1 141 0 is_stmt 0 discriminator 1
 211 0072 3B69     		ldr	r3, [r7, #16]
 212 0074 042B     		cmp	r3, #4
 213 0076 CCDD     		ble	.L10
 171:..\..\Common\Minimal/blocktim.c **** 			}
 172:..\..\Common\Minimal/blocktim.c **** 		}
 173:..\..\Common\Minimal/blocktim.c **** 
 174:..\..\Common\Minimal/blocktim.c **** 		/*********************************************************************
 175:..\..\Common\Minimal/blocktim.c **** 		Test 2
 176:..\..\Common\Minimal/blocktim.c **** 
 177:..\..\Common\Minimal/blocktim.c **** 		Simple block time wakeup test on queue sends.
 178:..\..\Common\Minimal/blocktim.c **** 
ARM GAS  C:\Users\Jamie\AppData\Local\Temp\ccdQyQj8.s 			page 8


 179:..\..\Common\Minimal/blocktim.c **** 		First fill the queue.  It should be empty so all sends should pass. */
 180:..\..\Common\Minimal/blocktim.c **** 		for( xItem = 0; xItem < bktQUEUE_LENGTH; xItem++ )
 214              		.loc 1 180 0 is_stmt 1
 215 0078 0023     		movs	r3, #0
 216 007a 3B61     		str	r3, [r7, #16]
 217 007c 12E0     		b	.L11
 218              	.L13:
 181:..\..\Common\Minimal/blocktim.c **** 		{
 182:..\..\Common\Minimal/blocktim.c **** 			if( xQueueSend( xTestQueue, &xItem, bktDONT_BLOCK ) != pdPASS )
 219              		.loc 1 182 0
 220 007e 904B     		ldr	r3, .L43
 221 0080 1A68     		ldr	r2, [r3]
 222 0082 07F11003 		add	r3, r7, #16
 223 0086 1046     		mov	r0, r2
 224 0088 1946     		mov	r1, r3
 225 008a 0022     		movs	r2, #0
 226 008c 0023     		movs	r3, #0
 227 008e FFF7FEFF 		bl	xQueueGenericSend
 228 0092 0346     		mov	r3, r0
 229 0094 012B     		cmp	r3, #1
 230 0096 02D0     		beq	.L12
 183:..\..\Common\Minimal/blocktim.c **** 			{
 184:..\..\Common\Minimal/blocktim.c **** 				xErrorOccurred = pdTRUE;
 231              		.loc 1 184 0
 232 0098 8A4B     		ldr	r3, .L43+4
 233 009a 0122     		movs	r2, #1
 234 009c 1A60     		str	r2, [r3]
 235              	.L12:
 180:..\..\Common\Minimal/blocktim.c **** 		{
 236              		.loc 1 180 0 discriminator 2
 237 009e 3B69     		ldr	r3, [r7, #16]
 238 00a0 0133     		adds	r3, r3, #1
 239 00a2 3B61     		str	r3, [r7, #16]
 240              	.L11:
 180:..\..\Common\Minimal/blocktim.c **** 		{
 241              		.loc 1 180 0 is_stmt 0 discriminator 1
 242 00a4 3B69     		ldr	r3, [r7, #16]
 243 00a6 042B     		cmp	r3, #4
 244 00a8 E9DD     		ble	.L13
 185:..\..\Common\Minimal/blocktim.c **** 			}
 186:..\..\Common\Minimal/blocktim.c **** 
 187:..\..\Common\Minimal/blocktim.c **** 			#if configUSE_PREEMPTION == 0
 188:..\..\Common\Minimal/blocktim.c **** 				taskYIELD();
 189:..\..\Common\Minimal/blocktim.c **** 			#endif
 190:..\..\Common\Minimal/blocktim.c **** 		}
 191:..\..\Common\Minimal/blocktim.c **** 
 192:..\..\Common\Minimal/blocktim.c **** 		for( xItem = 0; xItem < bktQUEUE_LENGTH; xItem++ )
 245              		.loc 1 192 0 is_stmt 1
 246 00aa 0023     		movs	r3, #0
 247 00ac 3B61     		str	r3, [r7, #16]
 248 00ae 30E0     		b	.L14
 249              	.L18:
 193:..\..\Common\Minimal/blocktim.c **** 		{
 194:..\..\Common\Minimal/blocktim.c **** 			/* The queue is full. Attempt to write to the queue using a block
 195:..\..\Common\Minimal/blocktim.c **** 			time.  When we wake, ensure the delta in time is as expected. */
 196:..\..\Common\Minimal/blocktim.c **** 			xTimeToBlock = ( TickType_t ) ( bktPRIMARY_BLOCK_TIME << xItem );
 250              		.loc 1 196 0
ARM GAS  C:\Users\Jamie\AppData\Local\Temp\ccdQyQj8.s 			page 9


 251 00b0 3B69     		ldr	r3, [r7, #16]
 252 00b2 0A22     		movs	r2, #10
 253 00b4 02FA03F3 		lsl	r3, r2, r3
 254 00b8 FB61     		str	r3, [r7, #28]
 197:..\..\Common\Minimal/blocktim.c **** 
 198:..\..\Common\Minimal/blocktim.c **** 			xTimeWhenBlocking = xTaskGetTickCount();
 255              		.loc 1 198 0
 256 00ba FFF7FEFF 		bl	xTaskGetTickCount
 257 00be B861     		str	r0, [r7, #24]
 199:..\..\Common\Minimal/blocktim.c **** 
 200:..\..\Common\Minimal/blocktim.c **** 			/* We should unblock after xTimeToBlock having not received
 201:..\..\Common\Minimal/blocktim.c **** 			anything on the queue. */
 202:..\..\Common\Minimal/blocktim.c **** 			if( xQueueSend( xTestQueue, &xItem, xTimeToBlock ) != errQUEUE_FULL )
 258              		.loc 1 202 0
 259 00c0 7F4B     		ldr	r3, .L43
 260 00c2 1A68     		ldr	r2, [r3]
 261 00c4 07F11003 		add	r3, r7, #16
 262 00c8 1046     		mov	r0, r2
 263 00ca 1946     		mov	r1, r3
 264 00cc FA69     		ldr	r2, [r7, #28]
 265 00ce 0023     		movs	r3, #0
 266 00d0 FFF7FEFF 		bl	xQueueGenericSend
 267 00d4 0346     		mov	r3, r0
 268 00d6 002B     		cmp	r3, #0
 269 00d8 02D0     		beq	.L15
 203:..\..\Common\Minimal/blocktim.c **** 			{
 204:..\..\Common\Minimal/blocktim.c **** 				xErrorOccurred = pdTRUE;
 270              		.loc 1 204 0
 271 00da 7A4B     		ldr	r3, .L43+4
 272 00dc 0122     		movs	r2, #1
 273 00de 1A60     		str	r2, [r3]
 274              	.L15:
 205:..\..\Common\Minimal/blocktim.c **** 			}
 206:..\..\Common\Minimal/blocktim.c **** 
 207:..\..\Common\Minimal/blocktim.c **** 			/* How long were we blocked for? */
 208:..\..\Common\Minimal/blocktim.c **** 			xBlockedTime = xTaskGetTickCount() - xTimeWhenBlocking;
 275              		.loc 1 208 0
 276 00e0 FFF7FEFF 		bl	xTaskGetTickCount
 277 00e4 0246     		mov	r2, r0
 278 00e6 BB69     		ldr	r3, [r7, #24]
 279 00e8 D31A     		subs	r3, r2, r3
 280 00ea 7B61     		str	r3, [r7, #20]
 209:..\..\Common\Minimal/blocktim.c **** 
 210:..\..\Common\Minimal/blocktim.c **** 			if( xBlockedTime < xTimeToBlock )
 281              		.loc 1 210 0
 282 00ec 7A69     		ldr	r2, [r7, #20]
 283 00ee FB69     		ldr	r3, [r7, #28]
 284 00f0 9A42     		cmp	r2, r3
 285 00f2 02D2     		bcs	.L16
 211:..\..\Common\Minimal/blocktim.c **** 			{
 212:..\..\Common\Minimal/blocktim.c **** 				/* Should not have blocked for less than we requested. */
 213:..\..\Common\Minimal/blocktim.c **** 				xErrorOccurred = pdTRUE;
 286              		.loc 1 213 0
 287 00f4 734B     		ldr	r3, .L43+4
 288 00f6 0122     		movs	r2, #1
 289 00f8 1A60     		str	r2, [r3]
 290              	.L16:
ARM GAS  C:\Users\Jamie\AppData\Local\Temp\ccdQyQj8.s 			page 10


 214:..\..\Common\Minimal/blocktim.c **** 			}
 215:..\..\Common\Minimal/blocktim.c **** 
 216:..\..\Common\Minimal/blocktim.c **** 			if( xBlockedTime > ( xTimeToBlock + bktALLOWABLE_MARGIN ) )
 291              		.loc 1 216 0
 292 00fa FB69     		ldr	r3, [r7, #28]
 293 00fc 03F10F02 		add	r2, r3, #15
 294 0100 7B69     		ldr	r3, [r7, #20]
 295 0102 9A42     		cmp	r2, r3
 296 0104 02D2     		bcs	.L17
 217:..\..\Common\Minimal/blocktim.c **** 			{
 218:..\..\Common\Minimal/blocktim.c **** 				/* Should not have blocked for longer than we requested,
 219:..\..\Common\Minimal/blocktim.c **** 				although we would not necessarily run as soon as we were
 220:..\..\Common\Minimal/blocktim.c **** 				unblocked so a margin is allowed. */
 221:..\..\Common\Minimal/blocktim.c **** 				xErrorOccurred = pdTRUE;
 297              		.loc 1 221 0
 298 0106 6F4B     		ldr	r3, .L43+4
 299 0108 0122     		movs	r2, #1
 300 010a 1A60     		str	r2, [r3]
 301              	.L17:
 192:..\..\Common\Minimal/blocktim.c **** 		{
 302              		.loc 1 192 0 discriminator 2
 303 010c 3B69     		ldr	r3, [r7, #16]
 304 010e 0133     		adds	r3, r3, #1
 305 0110 3B61     		str	r3, [r7, #16]
 306              	.L14:
 192:..\..\Common\Minimal/blocktim.c **** 		{
 307              		.loc 1 192 0 is_stmt 0 discriminator 1
 308 0112 3B69     		ldr	r3, [r7, #16]
 309 0114 042B     		cmp	r3, #4
 310 0116 CBDD     		ble	.L18
 222:..\..\Common\Minimal/blocktim.c **** 			}
 223:..\..\Common\Minimal/blocktim.c **** 		}
 224:..\..\Common\Minimal/blocktim.c **** 
 225:..\..\Common\Minimal/blocktim.c **** 		/*********************************************************************
 226:..\..\Common\Minimal/blocktim.c **** 		Test 3
 227:..\..\Common\Minimal/blocktim.c **** 
 228:..\..\Common\Minimal/blocktim.c **** 		Wake the other task, it will block attempting to post to the queue.
 229:..\..\Common\Minimal/blocktim.c **** 		When we read from the queue the other task will wake, but before it
 230:..\..\Common\Minimal/blocktim.c **** 		can run we will post to the queue again.  When the other task runs it
 231:..\..\Common\Minimal/blocktim.c **** 		will find the queue still full, even though it was woken.  It should
 232:..\..\Common\Minimal/blocktim.c **** 		recognise that its block time has not expired and return to block for
 233:..\..\Common\Minimal/blocktim.c **** 		the remains of its block time.
 234:..\..\Common\Minimal/blocktim.c **** 
 235:..\..\Common\Minimal/blocktim.c **** 		Wake the other task so it blocks attempting to post to the already
 236:..\..\Common\Minimal/blocktim.c **** 		full queue. */
 237:..\..\Common\Minimal/blocktim.c **** 		xRunIndicator = 0;
 311              		.loc 1 237 0 is_stmt 1
 312 0118 6B4B     		ldr	r3, .L43+8
 313 011a 0022     		movs	r2, #0
 314 011c 1A60     		str	r2, [r3]
 238:..\..\Common\Minimal/blocktim.c **** 		vTaskResume( xSecondary );
 315              		.loc 1 238 0
 316 011e 6B4B     		ldr	r3, .L43+12
 317 0120 1B68     		ldr	r3, [r3]
 318 0122 1846     		mov	r0, r3
 319 0124 FFF7FEFF 		bl	vTaskResume
 239:..\..\Common\Minimal/blocktim.c **** 
ARM GAS  C:\Users\Jamie\AppData\Local\Temp\ccdQyQj8.s 			page 11


 240:..\..\Common\Minimal/blocktim.c **** 		/* We need to wait a little to ensure the other task executes. */
 241:..\..\Common\Minimal/blocktim.c **** 		while( xRunIndicator != bktRUN_INDICATOR )
 320              		.loc 1 241 0
 321 0128 02E0     		b	.L19
 322              	.L20:
 242:..\..\Common\Minimal/blocktim.c **** 		{
 243:..\..\Common\Minimal/blocktim.c **** 			/* The other task has not yet executed. */
 244:..\..\Common\Minimal/blocktim.c **** 			vTaskDelay( bktSHORT_WAIT );
 323              		.loc 1 244 0
 324 012a 1420     		movs	r0, #20
 325 012c FFF7FEFF 		bl	vTaskDelay
 326              	.L19:
 241:..\..\Common\Minimal/blocktim.c **** 		{
 327              		.loc 1 241 0
 328 0130 654B     		ldr	r3, .L43+8
 329 0132 1B68     		ldr	r3, [r3]
 330 0134 552B     		cmp	r3, #85
 331 0136 F8D1     		bne	.L20
 245:..\..\Common\Minimal/blocktim.c **** 		}
 246:..\..\Common\Minimal/blocktim.c **** 		/* Make sure the other task is blocked on the queue. */
 247:..\..\Common\Minimal/blocktim.c **** 		vTaskDelay( bktSHORT_WAIT );
 332              		.loc 1 247 0
 333 0138 1420     		movs	r0, #20
 334 013a FFF7FEFF 		bl	vTaskDelay
 248:..\..\Common\Minimal/blocktim.c **** 		xRunIndicator = 0;
 335              		.loc 1 248 0
 336 013e 624B     		ldr	r3, .L43+8
 337 0140 0022     		movs	r2, #0
 338 0142 1A60     		str	r2, [r3]
 249:..\..\Common\Minimal/blocktim.c **** 
 250:..\..\Common\Minimal/blocktim.c **** 		for( xItem = 0; xItem < bktQUEUE_LENGTH; xItem++ )
 339              		.loc 1 250 0
 340 0144 0023     		movs	r3, #0
 341 0146 3B61     		str	r3, [r7, #16]
 342 0148 3BE0     		b	.L21
 343              	.L26:
 251:..\..\Common\Minimal/blocktim.c **** 		{
 252:..\..\Common\Minimal/blocktim.c **** 			/* Now when we make space on the queue the other task should wake
 253:..\..\Common\Minimal/blocktim.c **** 			but not execute as this task has higher priority. */
 254:..\..\Common\Minimal/blocktim.c **** 			if( xQueueReceive( xTestQueue, &xData, bktDONT_BLOCK ) != pdPASS )
 344              		.loc 1 254 0
 345 014a 5D4B     		ldr	r3, .L43
 346 014c 1A68     		ldr	r2, [r3]
 347 014e 07F10C03 		add	r3, r7, #12
 348 0152 1046     		mov	r0, r2
 349 0154 1946     		mov	r1, r3
 350 0156 0022     		movs	r2, #0
 351 0158 FFF7FEFF 		bl	xQueueReceive
 352 015c 0346     		mov	r3, r0
 353 015e 012B     		cmp	r3, #1
 354 0160 02D0     		beq	.L22
 255:..\..\Common\Minimal/blocktim.c **** 			{
 256:..\..\Common\Minimal/blocktim.c **** 				xErrorOccurred = pdTRUE;
 355              		.loc 1 256 0
 356 0162 584B     		ldr	r3, .L43+4
 357 0164 0122     		movs	r2, #1
 358 0166 1A60     		str	r2, [r3]
ARM GAS  C:\Users\Jamie\AppData\Local\Temp\ccdQyQj8.s 			page 12


 359              	.L22:
 257:..\..\Common\Minimal/blocktim.c **** 			}
 258:..\..\Common\Minimal/blocktim.c **** 
 259:..\..\Common\Minimal/blocktim.c **** 			/* Now fill the queue again before the other task gets a chance to
 260:..\..\Common\Minimal/blocktim.c **** 			execute.  If the other task had executed we would find the queue
 261:..\..\Common\Minimal/blocktim.c **** 			full ourselves, and the other task have set xRunIndicator. */
 262:..\..\Common\Minimal/blocktim.c **** 			if( xQueueSend( xTestQueue, &xItem, bktDONT_BLOCK ) != pdPASS )
 360              		.loc 1 262 0
 361 0168 554B     		ldr	r3, .L43
 362 016a 1A68     		ldr	r2, [r3]
 363 016c 07F11003 		add	r3, r7, #16
 364 0170 1046     		mov	r0, r2
 365 0172 1946     		mov	r1, r3
 366 0174 0022     		movs	r2, #0
 367 0176 0023     		movs	r3, #0
 368 0178 FFF7FEFF 		bl	xQueueGenericSend
 369 017c 0346     		mov	r3, r0
 370 017e 012B     		cmp	r3, #1
 371 0180 02D0     		beq	.L23
 263:..\..\Common\Minimal/blocktim.c **** 			{
 264:..\..\Common\Minimal/blocktim.c **** 				xErrorOccurred = pdTRUE;
 372              		.loc 1 264 0
 373 0182 504B     		ldr	r3, .L43+4
 374 0184 0122     		movs	r2, #1
 375 0186 1A60     		str	r2, [r3]
 376              	.L23:
 265:..\..\Common\Minimal/blocktim.c **** 			}
 266:..\..\Common\Minimal/blocktim.c **** 
 267:..\..\Common\Minimal/blocktim.c **** 			if( xRunIndicator == bktRUN_INDICATOR )
 377              		.loc 1 267 0
 378 0188 4F4B     		ldr	r3, .L43+8
 379 018a 1B68     		ldr	r3, [r3]
 380 018c 552B     		cmp	r3, #85
 381 018e 02D1     		bne	.L24
 268:..\..\Common\Minimal/blocktim.c **** 			{
 269:..\..\Common\Minimal/blocktim.c **** 				/* The other task should not have executed. */
 270:..\..\Common\Minimal/blocktim.c **** 				xErrorOccurred = pdTRUE;
 382              		.loc 1 270 0
 383 0190 4C4B     		ldr	r3, .L43+4
 384 0192 0122     		movs	r2, #1
 385 0194 1A60     		str	r2, [r3]
 386              	.L24:
 271:..\..\Common\Minimal/blocktim.c **** 			}
 272:..\..\Common\Minimal/blocktim.c **** 
 273:..\..\Common\Minimal/blocktim.c **** 			/* Raise the priority of the other task so it executes and blocks
 274:..\..\Common\Minimal/blocktim.c **** 			on the queue again. */
 275:..\..\Common\Minimal/blocktim.c **** 			vTaskPrioritySet( xSecondary, bktPRIMARY_PRIORITY + 2 );
 387              		.loc 1 275 0
 388 0196 4D4B     		ldr	r3, .L43+12
 389 0198 1B68     		ldr	r3, [r3]
 390 019a 1846     		mov	r0, r3
 391 019c 0421     		movs	r1, #4
 392 019e FFF7FEFF 		bl	vTaskPrioritySet
 276:..\..\Common\Minimal/blocktim.c **** 
 277:..\..\Common\Minimal/blocktim.c **** 			/* The other task should now have re-blocked without exiting the
 278:..\..\Common\Minimal/blocktim.c **** 			queue function. */
 279:..\..\Common\Minimal/blocktim.c **** 			if( xRunIndicator == bktRUN_INDICATOR )
ARM GAS  C:\Users\Jamie\AppData\Local\Temp\ccdQyQj8.s 			page 13


 393              		.loc 1 279 0
 394 01a2 494B     		ldr	r3, .L43+8
 395 01a4 1B68     		ldr	r3, [r3]
 396 01a6 552B     		cmp	r3, #85
 397 01a8 02D1     		bne	.L25
 280:..\..\Common\Minimal/blocktim.c **** 			{
 281:..\..\Common\Minimal/blocktim.c **** 				/* The other task should not have executed outside of the
 282:..\..\Common\Minimal/blocktim.c **** 				queue function. */
 283:..\..\Common\Minimal/blocktim.c **** 				xErrorOccurred = pdTRUE;
 398              		.loc 1 283 0
 399 01aa 464B     		ldr	r3, .L43+4
 400 01ac 0122     		movs	r2, #1
 401 01ae 1A60     		str	r2, [r3]
 402              	.L25:
 284:..\..\Common\Minimal/blocktim.c **** 			}
 285:..\..\Common\Minimal/blocktim.c **** 
 286:..\..\Common\Minimal/blocktim.c **** 			/* Set the priority back down. */
 287:..\..\Common\Minimal/blocktim.c **** 			vTaskPrioritySet( xSecondary, bktSECONDARY_PRIORITY );
 403              		.loc 1 287 0 discriminator 2
 404 01b0 464B     		ldr	r3, .L43+12
 405 01b2 1B68     		ldr	r3, [r3]
 406 01b4 1846     		mov	r0, r3
 407 01b6 0121     		movs	r1, #1
 408 01b8 FFF7FEFF 		bl	vTaskPrioritySet
 250:..\..\Common\Minimal/blocktim.c **** 		{
 409              		.loc 1 250 0 discriminator 2
 410 01bc 3B69     		ldr	r3, [r7, #16]
 411 01be 0133     		adds	r3, r3, #1
 412 01c0 3B61     		str	r3, [r7, #16]
 413              	.L21:
 250:..\..\Common\Minimal/blocktim.c **** 		{
 414              		.loc 1 250 0 is_stmt 0 discriminator 1
 415 01c2 3B69     		ldr	r3, [r7, #16]
 416 01c4 042B     		cmp	r3, #4
 417 01c6 C0DD     		ble	.L26
 288:..\..\Common\Minimal/blocktim.c **** 		}
 289:..\..\Common\Minimal/blocktim.c **** 
 290:..\..\Common\Minimal/blocktim.c **** 		/* Let the other task timeout.  When it unblockes it will check that it
 291:..\..\Common\Minimal/blocktim.c **** 		unblocked at the correct time, then suspend itself. */
 292:..\..\Common\Minimal/blocktim.c **** 		while( xRunIndicator != bktRUN_INDICATOR )
 418              		.loc 1 292 0 is_stmt 1
 419 01c8 02E0     		b	.L27
 420              	.L28:
 293:..\..\Common\Minimal/blocktim.c **** 		{
 294:..\..\Common\Minimal/blocktim.c **** 			vTaskDelay( bktSHORT_WAIT );
 421              		.loc 1 294 0
 422 01ca 1420     		movs	r0, #20
 423 01cc FFF7FEFF 		bl	vTaskDelay
 424              	.L27:
 292:..\..\Common\Minimal/blocktim.c **** 		{
 425              		.loc 1 292 0
 426 01d0 3D4B     		ldr	r3, .L43+8
 427 01d2 1B68     		ldr	r3, [r3]
 428 01d4 552B     		cmp	r3, #85
 429 01d6 F8D1     		bne	.L28
 295:..\..\Common\Minimal/blocktim.c **** 		}
 296:..\..\Common\Minimal/blocktim.c **** 		vTaskDelay( bktSHORT_WAIT );
ARM GAS  C:\Users\Jamie\AppData\Local\Temp\ccdQyQj8.s 			page 14


 430              		.loc 1 296 0
 431 01d8 1420     		movs	r0, #20
 432 01da FFF7FEFF 		bl	vTaskDelay
 297:..\..\Common\Minimal/blocktim.c **** 		xRunIndicator = 0;
 433              		.loc 1 297 0
 434 01de 3A4B     		ldr	r3, .L43+8
 435 01e0 0022     		movs	r2, #0
 436 01e2 1A60     		str	r2, [r3]
 298:..\..\Common\Minimal/blocktim.c **** 
 299:..\..\Common\Minimal/blocktim.c **** 
 300:..\..\Common\Minimal/blocktim.c **** 		/*********************************************************************
 301:..\..\Common\Minimal/blocktim.c **** 		Test 4
 302:..\..\Common\Minimal/blocktim.c **** 
 303:..\..\Common\Minimal/blocktim.c **** 		As per test 3 - but with the send and receive the other way around.
 304:..\..\Common\Minimal/blocktim.c **** 		The other task blocks attempting to read from the queue.
 305:..\..\Common\Minimal/blocktim.c **** 
 306:..\..\Common\Minimal/blocktim.c **** 		Empty the queue.  We should find that it is full. */
 307:..\..\Common\Minimal/blocktim.c **** 		for( xItem = 0; xItem < bktQUEUE_LENGTH; xItem++ )
 437              		.loc 1 307 0
 438 01e4 0023     		movs	r3, #0
 439 01e6 3B61     		str	r3, [r7, #16]
 440 01e8 11E0     		b	.L29
 441              	.L31:
 308:..\..\Common\Minimal/blocktim.c **** 		{
 309:..\..\Common\Minimal/blocktim.c **** 			if( xQueueReceive( xTestQueue, &xData, bktDONT_BLOCK ) != pdPASS )
 442              		.loc 1 309 0
 443 01ea 354B     		ldr	r3, .L43
 444 01ec 1A68     		ldr	r2, [r3]
 445 01ee 07F10C03 		add	r3, r7, #12
 446 01f2 1046     		mov	r0, r2
 447 01f4 1946     		mov	r1, r3
 448 01f6 0022     		movs	r2, #0
 449 01f8 FFF7FEFF 		bl	xQueueReceive
 450 01fc 0346     		mov	r3, r0
 451 01fe 012B     		cmp	r3, #1
 452 0200 02D0     		beq	.L30
 310:..\..\Common\Minimal/blocktim.c **** 			{
 311:..\..\Common\Minimal/blocktim.c **** 				xErrorOccurred = pdTRUE;
 453              		.loc 1 311 0
 454 0202 304B     		ldr	r3, .L43+4
 455 0204 0122     		movs	r2, #1
 456 0206 1A60     		str	r2, [r3]
 457              	.L30:
 307:..\..\Common\Minimal/blocktim.c **** 		{
 458              		.loc 1 307 0 discriminator 2
 459 0208 3B69     		ldr	r3, [r7, #16]
 460 020a 0133     		adds	r3, r3, #1
 461 020c 3B61     		str	r3, [r7, #16]
 462              	.L29:
 307:..\..\Common\Minimal/blocktim.c **** 		{
 463              		.loc 1 307 0 is_stmt 0 discriminator 1
 464 020e 3B69     		ldr	r3, [r7, #16]
 465 0210 042B     		cmp	r3, #4
 466 0212 EADD     		ble	.L31
 312:..\..\Common\Minimal/blocktim.c **** 			}
 313:..\..\Common\Minimal/blocktim.c **** 		}
 314:..\..\Common\Minimal/blocktim.c **** 
ARM GAS  C:\Users\Jamie\AppData\Local\Temp\ccdQyQj8.s 			page 15


 315:..\..\Common\Minimal/blocktim.c **** 		/* Wake the other task so it blocks attempting to read from  the
 316:..\..\Common\Minimal/blocktim.c **** 		already	empty queue. */
 317:..\..\Common\Minimal/blocktim.c **** 		vTaskResume( xSecondary );
 467              		.loc 1 317 0 is_stmt 1
 468 0214 2D4B     		ldr	r3, .L43+12
 469 0216 1B68     		ldr	r3, [r3]
 470 0218 1846     		mov	r0, r3
 471 021a FFF7FEFF 		bl	vTaskResume
 318:..\..\Common\Minimal/blocktim.c **** 
 319:..\..\Common\Minimal/blocktim.c **** 		/* We need to wait a little to ensure the other task executes. */
 320:..\..\Common\Minimal/blocktim.c **** 		while( xRunIndicator != bktRUN_INDICATOR )
 472              		.loc 1 320 0
 473 021e 02E0     		b	.L32
 474              	.L33:
 321:..\..\Common\Minimal/blocktim.c **** 		{
 322:..\..\Common\Minimal/blocktim.c **** 			vTaskDelay( bktSHORT_WAIT );
 475              		.loc 1 322 0
 476 0220 1420     		movs	r0, #20
 477 0222 FFF7FEFF 		bl	vTaskDelay
 478              	.L32:
 320:..\..\Common\Minimal/blocktim.c **** 		{
 479              		.loc 1 320 0
 480 0226 284B     		ldr	r3, .L43+8
 481 0228 1B68     		ldr	r3, [r3]
 482 022a 552B     		cmp	r3, #85
 483 022c F8D1     		bne	.L33
 323:..\..\Common\Minimal/blocktim.c **** 		}
 324:..\..\Common\Minimal/blocktim.c **** 		vTaskDelay( bktSHORT_WAIT );
 484              		.loc 1 324 0
 485 022e 1420     		movs	r0, #20
 486 0230 FFF7FEFF 		bl	vTaskDelay
 325:..\..\Common\Minimal/blocktim.c **** 		xRunIndicator = 0;
 487              		.loc 1 325 0
 488 0234 244B     		ldr	r3, .L43+8
 489 0236 0022     		movs	r2, #0
 490 0238 1A60     		str	r2, [r3]
 326:..\..\Common\Minimal/blocktim.c **** 
 327:..\..\Common\Minimal/blocktim.c **** 		for( xItem = 0; xItem < bktQUEUE_LENGTH; xItem++ )
 491              		.loc 1 327 0
 492 023a 0023     		movs	r3, #0
 493 023c 3B61     		str	r3, [r7, #16]
 494 023e 3BE0     		b	.L34
 495              	.L39:
 328:..\..\Common\Minimal/blocktim.c **** 		{
 329:..\..\Common\Minimal/blocktim.c **** 			/* Now when we place an item on the queue the other task should
 330:..\..\Common\Minimal/blocktim.c **** 			wake but not execute as this task has higher priority. */
 331:..\..\Common\Minimal/blocktim.c **** 			if( xQueueSend( xTestQueue, &xItem, bktDONT_BLOCK ) != pdPASS )
 496              		.loc 1 331 0
 497 0240 1F4B     		ldr	r3, .L43
 498 0242 1A68     		ldr	r2, [r3]
 499 0244 07F11003 		add	r3, r7, #16
 500 0248 1046     		mov	r0, r2
 501 024a 1946     		mov	r1, r3
 502 024c 0022     		movs	r2, #0
 503 024e 0023     		movs	r3, #0
 504 0250 FFF7FEFF 		bl	xQueueGenericSend
 505 0254 0346     		mov	r3, r0
ARM GAS  C:\Users\Jamie\AppData\Local\Temp\ccdQyQj8.s 			page 16


 506 0256 012B     		cmp	r3, #1
 507 0258 02D0     		beq	.L35
 332:..\..\Common\Minimal/blocktim.c **** 			{
 333:..\..\Common\Minimal/blocktim.c **** 				xErrorOccurred = pdTRUE;
 508              		.loc 1 333 0
 509 025a 1A4B     		ldr	r3, .L43+4
 510 025c 0122     		movs	r2, #1
 511 025e 1A60     		str	r2, [r3]
 512              	.L35:
 334:..\..\Common\Minimal/blocktim.c **** 			}
 335:..\..\Common\Minimal/blocktim.c **** 
 336:..\..\Common\Minimal/blocktim.c **** 			/* Now empty the queue again before the other task gets a chance to
 337:..\..\Common\Minimal/blocktim.c **** 			execute.  If the other task had executed we would find the queue
 338:..\..\Common\Minimal/blocktim.c **** 			empty ourselves, and the other task would be suspended. */
 339:..\..\Common\Minimal/blocktim.c **** 			if( xQueueReceive( xTestQueue, &xData, bktDONT_BLOCK ) != pdPASS )
 513              		.loc 1 339 0
 514 0260 174B     		ldr	r3, .L43
 515 0262 1A68     		ldr	r2, [r3]
 516 0264 07F10C03 		add	r3, r7, #12
 517 0268 1046     		mov	r0, r2
 518 026a 1946     		mov	r1, r3
 519 026c 0022     		movs	r2, #0
 520 026e FFF7FEFF 		bl	xQueueReceive
 521 0272 0346     		mov	r3, r0
 522 0274 012B     		cmp	r3, #1
 523 0276 02D0     		beq	.L36
 340:..\..\Common\Minimal/blocktim.c **** 			{
 341:..\..\Common\Minimal/blocktim.c **** 				xErrorOccurred = pdTRUE;
 524              		.loc 1 341 0
 525 0278 124B     		ldr	r3, .L43+4
 526 027a 0122     		movs	r2, #1
 527 027c 1A60     		str	r2, [r3]
 528              	.L36:
 342:..\..\Common\Minimal/blocktim.c **** 			}
 343:..\..\Common\Minimal/blocktim.c **** 
 344:..\..\Common\Minimal/blocktim.c **** 			if( xRunIndicator == bktRUN_INDICATOR )
 529              		.loc 1 344 0
 530 027e 124B     		ldr	r3, .L43+8
 531 0280 1B68     		ldr	r3, [r3]
 532 0282 552B     		cmp	r3, #85
 533 0284 02D1     		bne	.L37
 345:..\..\Common\Minimal/blocktim.c **** 			{
 346:..\..\Common\Minimal/blocktim.c **** 				/* The other task should not have executed. */
 347:..\..\Common\Minimal/blocktim.c **** 				xErrorOccurred = pdTRUE;
 534              		.loc 1 347 0
 535 0286 0F4B     		ldr	r3, .L43+4
 536 0288 0122     		movs	r2, #1
 537 028a 1A60     		str	r2, [r3]
 538              	.L37:
 348:..\..\Common\Minimal/blocktim.c **** 			}
 349:..\..\Common\Minimal/blocktim.c **** 
 350:..\..\Common\Minimal/blocktim.c **** 			/* Raise the priority of the other task so it executes and blocks
 351:..\..\Common\Minimal/blocktim.c **** 			on the queue again. */
 352:..\..\Common\Minimal/blocktim.c **** 			vTaskPrioritySet( xSecondary, bktPRIMARY_PRIORITY + 2 );
 539              		.loc 1 352 0
 540 028c 0F4B     		ldr	r3, .L43+12
 541 028e 1B68     		ldr	r3, [r3]
ARM GAS  C:\Users\Jamie\AppData\Local\Temp\ccdQyQj8.s 			page 17


 542 0290 1846     		mov	r0, r3
 543 0292 0421     		movs	r1, #4
 544 0294 FFF7FEFF 		bl	vTaskPrioritySet
 353:..\..\Common\Minimal/blocktim.c **** 
 354:..\..\Common\Minimal/blocktim.c **** 			/* The other task should now have re-blocked without exiting the
 355:..\..\Common\Minimal/blocktim.c **** 			queue function. */
 356:..\..\Common\Minimal/blocktim.c **** 			if( xRunIndicator == bktRUN_INDICATOR )
 545              		.loc 1 356 0
 546 0298 0B4B     		ldr	r3, .L43+8
 547 029a 1B68     		ldr	r3, [r3]
 548 029c 552B     		cmp	r3, #85
 549 029e 02D1     		bne	.L38
 357:..\..\Common\Minimal/blocktim.c **** 			{
 358:..\..\Common\Minimal/blocktim.c **** 				/* The other task should not have executed outside of the
 359:..\..\Common\Minimal/blocktim.c **** 				queue function. */
 360:..\..\Common\Minimal/blocktim.c **** 				xErrorOccurred = pdTRUE;
 550              		.loc 1 360 0
 551 02a0 084B     		ldr	r3, .L43+4
 552 02a2 0122     		movs	r2, #1
 553 02a4 1A60     		str	r2, [r3]
 554              	.L38:
 361:..\..\Common\Minimal/blocktim.c **** 			}
 362:..\..\Common\Minimal/blocktim.c **** 			vTaskPrioritySet( xSecondary, bktSECONDARY_PRIORITY );
 555              		.loc 1 362 0 discriminator 2
 556 02a6 094B     		ldr	r3, .L43+12
 557 02a8 1B68     		ldr	r3, [r3]
 558 02aa 1846     		mov	r0, r3
 559 02ac 0121     		movs	r1, #1
 560 02ae FFF7FEFF 		bl	vTaskPrioritySet
 327:..\..\Common\Minimal/blocktim.c **** 		{
 561              		.loc 1 327 0 discriminator 2
 562 02b2 3B69     		ldr	r3, [r7, #16]
 563 02b4 0133     		adds	r3, r3, #1
 564 02b6 3B61     		str	r3, [r7, #16]
 565              	.L34:
 327:..\..\Common\Minimal/blocktim.c **** 		{
 566              		.loc 1 327 0 is_stmt 0 discriminator 1
 567 02b8 3B69     		ldr	r3, [r7, #16]
 568 02ba 042B     		cmp	r3, #4
 569 02bc C0DD     		ble	.L39
 363:..\..\Common\Minimal/blocktim.c **** 		}
 364:..\..\Common\Minimal/blocktim.c **** 
 365:..\..\Common\Minimal/blocktim.c **** 		/* Let the other task timeout.  When it unblockes it will check that it
 366:..\..\Common\Minimal/blocktim.c **** 		unblocked at the correct time, then suspend itself. */
 367:..\..\Common\Minimal/blocktim.c **** 		while( xRunIndicator != bktRUN_INDICATOR )
 570              		.loc 1 367 0 is_stmt 1
 571 02be 0AE0     		b	.L40
 572              	.L44:
 573              		.align	2
 574              	.L43:
 575 02c0 00000000 		.word	xTestQueue
 576 02c4 10000000 		.word	xErrorOccurred
 577 02c8 14000000 		.word	xRunIndicator
 578 02cc 04000000 		.word	xSecondary
 579              	.L41:
 368:..\..\Common\Minimal/blocktim.c **** 		{
 369:..\..\Common\Minimal/blocktim.c **** 			vTaskDelay( bktSHORT_WAIT );
ARM GAS  C:\Users\Jamie\AppData\Local\Temp\ccdQyQj8.s 			page 18


 580              		.loc 1 369 0
 581 02d0 1420     		movs	r0, #20
 582 02d2 FFF7FEFF 		bl	vTaskDelay
 583              	.L40:
 367:..\..\Common\Minimal/blocktim.c **** 		{
 584              		.loc 1 367 0
 585 02d6 064B     		ldr	r3, .L45
 586 02d8 1B68     		ldr	r3, [r3]
 587 02da 552B     		cmp	r3, #85
 588 02dc F8D1     		bne	.L41
 370:..\..\Common\Minimal/blocktim.c **** 		}
 371:..\..\Common\Minimal/blocktim.c **** 		vTaskDelay( bktSHORT_WAIT );
 589              		.loc 1 371 0
 590 02de 1420     		movs	r0, #20
 591 02e0 FFF7FEFF 		bl	vTaskDelay
 372:..\..\Common\Minimal/blocktim.c **** 
 373:..\..\Common\Minimal/blocktim.c **** 		xPrimaryCycles++;
 592              		.loc 1 373 0
 593 02e4 034B     		ldr	r3, .L45+4
 594 02e6 1B68     		ldr	r3, [r3]
 595 02e8 0133     		adds	r3, r3, #1
 596 02ea 024A     		ldr	r2, .L45+4
 597 02ec 1360     		str	r3, [r2]
 374:..\..\Common\Minimal/blocktim.c **** 	}
 598              		.loc 1 374 0
 599 02ee 8BE6     		b	.L42
 600              	.L46:
 601              		.align	2
 602              	.L45:
 603 02f0 14000000 		.word	xRunIndicator
 604 02f4 08000000 		.word	xPrimaryCycles
 605              		.cfi_endproc
 606              	.LFE69:
 607              		.size	vPrimaryBlockTimeTestTask, .-vPrimaryBlockTimeTestTask
 608              		.section	.text.vSecondaryBlockTimeTestTask,"ax",%progbits
 609              		.align	2
 610              		.thumb
 611              		.thumb_func
 612              		.type	vSecondaryBlockTimeTestTask, %function
 613              	vSecondaryBlockTimeTestTask:
 614              	.LFB70:
 375:..\..\Common\Minimal/blocktim.c **** }
 376:..\..\Common\Minimal/blocktim.c **** /*-----------------------------------------------------------*/
 377:..\..\Common\Minimal/blocktim.c **** 
 378:..\..\Common\Minimal/blocktim.c **** static void vSecondaryBlockTimeTestTask( void *pvParameters )
 379:..\..\Common\Minimal/blocktim.c **** {
 615              		.loc 1 379 0
 616              		.cfi_startproc
 617              		@ args = 0, pretend = 0, frame = 24
 618              		@ frame_needed = 1, uses_anonymous_args = 0
 619 0000 80B5     		push	{r7, lr}
 620              		.cfi_def_cfa_offset 8
 621              		.cfi_offset 7, -8
 622              		.cfi_offset 14, -4
 623 0002 86B0     		sub	sp, sp, #24
 624              		.cfi_def_cfa_offset 32
 625 0004 00AF     		add	r7, sp, #0
ARM GAS  C:\Users\Jamie\AppData\Local\Temp\ccdQyQj8.s 			page 19


 626              		.cfi_def_cfa_register 7
 627 0006 7860     		str	r0, [r7, #4]
 628              	.L54:
 380:..\..\Common\Minimal/blocktim.c **** TickType_t xTimeWhenBlocking, xBlockedTime;
 381:..\..\Common\Minimal/blocktim.c **** BaseType_t xData;
 382:..\..\Common\Minimal/blocktim.c **** 
 383:..\..\Common\Minimal/blocktim.c **** 	( void ) pvParameters;
 384:..\..\Common\Minimal/blocktim.c **** 
 385:..\..\Common\Minimal/blocktim.c **** 	for( ;; )
 386:..\..\Common\Minimal/blocktim.c **** 	{
 387:..\..\Common\Minimal/blocktim.c **** 		/*********************************************************************
 388:..\..\Common\Minimal/blocktim.c **** 		Test 0, 1 and 2
 389:..\..\Common\Minimal/blocktim.c **** 
 390:..\..\Common\Minimal/blocktim.c **** 		This task does not participate in these tests. */
 391:..\..\Common\Minimal/blocktim.c **** 		vTaskSuspend( NULL );
 629              		.loc 1 391 0
 630 0008 0020     		movs	r0, #0
 631 000a FFF7FEFF 		bl	vTaskSuspend
 392:..\..\Common\Minimal/blocktim.c **** 
 393:..\..\Common\Minimal/blocktim.c **** 		/*********************************************************************
 394:..\..\Common\Minimal/blocktim.c **** 		Test 3
 395:..\..\Common\Minimal/blocktim.c **** 
 396:..\..\Common\Minimal/blocktim.c **** 		The first thing we do is attempt to read from the queue.  It should be
 397:..\..\Common\Minimal/blocktim.c **** 		full so we block.  Note the time before we block so we can check the
 398:..\..\Common\Minimal/blocktim.c **** 		wake time is as per that expected. */
 399:..\..\Common\Minimal/blocktim.c **** 		xTimeWhenBlocking = xTaskGetTickCount();
 632              		.loc 1 399 0
 633 000e FFF7FEFF 		bl	xTaskGetTickCount
 634 0012 7861     		str	r0, [r7, #20]
 400:..\..\Common\Minimal/blocktim.c **** 
 401:..\..\Common\Minimal/blocktim.c **** 		/* We should unblock after bktTIME_TO_BLOCK having not sent anything to
 402:..\..\Common\Minimal/blocktim.c **** 		the queue. */
 403:..\..\Common\Minimal/blocktim.c **** 		xData = 0;
 635              		.loc 1 403 0
 636 0014 0023     		movs	r3, #0
 637 0016 FB60     		str	r3, [r7, #12]
 404:..\..\Common\Minimal/blocktim.c **** 		xRunIndicator = bktRUN_INDICATOR;
 638              		.loc 1 404 0
 639 0018 2D4B     		ldr	r3, .L55
 640 001a 5522     		movs	r2, #85
 641 001c 1A60     		str	r2, [r3]
 405:..\..\Common\Minimal/blocktim.c **** 		if( xQueueSend( xTestQueue, &xData, bktTIME_TO_BLOCK ) != errQUEUE_FULL )
 642              		.loc 1 405 0
 643 001e 2D4B     		ldr	r3, .L55+4
 644 0020 1A68     		ldr	r2, [r3]
 645 0022 07F10C03 		add	r3, r7, #12
 646 0026 1046     		mov	r0, r2
 647 0028 1946     		mov	r1, r3
 648 002a AF22     		movs	r2, #175
 649 002c 0023     		movs	r3, #0
 650 002e FFF7FEFF 		bl	xQueueGenericSend
 651 0032 0346     		mov	r3, r0
 652 0034 002B     		cmp	r3, #0
 653 0036 02D0     		beq	.L48
 406:..\..\Common\Minimal/blocktim.c **** 		{
 407:..\..\Common\Minimal/blocktim.c **** 			xErrorOccurred = pdTRUE;
 654              		.loc 1 407 0
ARM GAS  C:\Users\Jamie\AppData\Local\Temp\ccdQyQj8.s 			page 20


 655 0038 274B     		ldr	r3, .L55+8
 656 003a 0122     		movs	r2, #1
 657 003c 1A60     		str	r2, [r3]
 658              	.L48:
 408:..\..\Common\Minimal/blocktim.c **** 		}
 409:..\..\Common\Minimal/blocktim.c **** 
 410:..\..\Common\Minimal/blocktim.c **** 		/* How long were we inside the send function? */
 411:..\..\Common\Minimal/blocktim.c **** 		xBlockedTime = xTaskGetTickCount() - xTimeWhenBlocking;
 659              		.loc 1 411 0
 660 003e FFF7FEFF 		bl	xTaskGetTickCount
 661 0042 0246     		mov	r2, r0
 662 0044 7B69     		ldr	r3, [r7, #20]
 663 0046 D31A     		subs	r3, r2, r3
 664 0048 3B61     		str	r3, [r7, #16]
 412:..\..\Common\Minimal/blocktim.c **** 
 413:..\..\Common\Minimal/blocktim.c **** 		/* We should not have blocked for less time than bktTIME_TO_BLOCK. */
 414:..\..\Common\Minimal/blocktim.c **** 		if( xBlockedTime < bktTIME_TO_BLOCK )
 665              		.loc 1 414 0
 666 004a 3B69     		ldr	r3, [r7, #16]
 667 004c AE2B     		cmp	r3, #174
 668 004e 02D8     		bhi	.L49
 415:..\..\Common\Minimal/blocktim.c **** 		{
 416:..\..\Common\Minimal/blocktim.c **** 			xErrorOccurred = pdTRUE;
 669              		.loc 1 416 0
 670 0050 214B     		ldr	r3, .L55+8
 671 0052 0122     		movs	r2, #1
 672 0054 1A60     		str	r2, [r3]
 673              	.L49:
 417:..\..\Common\Minimal/blocktim.c **** 		}
 418:..\..\Common\Minimal/blocktim.c **** 
 419:..\..\Common\Minimal/blocktim.c **** 		/* We should of not blocked for much longer than bktALLOWABLE_MARGIN
 420:..\..\Common\Minimal/blocktim.c **** 		either.  A margin is permitted as we would not necessarily run as
 421:..\..\Common\Minimal/blocktim.c **** 		soon as we unblocked. */
 422:..\..\Common\Minimal/blocktim.c **** 		if( xBlockedTime > ( bktTIME_TO_BLOCK + bktALLOWABLE_MARGIN ) )
 674              		.loc 1 422 0
 675 0056 3B69     		ldr	r3, [r7, #16]
 676 0058 BE2B     		cmp	r3, #190
 677 005a 02D9     		bls	.L50
 423:..\..\Common\Minimal/blocktim.c **** 		{
 424:..\..\Common\Minimal/blocktim.c **** 			xErrorOccurred = pdTRUE;
 678              		.loc 1 424 0
 679 005c 1E4B     		ldr	r3, .L55+8
 680 005e 0122     		movs	r2, #1
 681 0060 1A60     		str	r2, [r3]
 682              	.L50:
 425:..\..\Common\Minimal/blocktim.c **** 		}
 426:..\..\Common\Minimal/blocktim.c **** 
 427:..\..\Common\Minimal/blocktim.c **** 		/* Suspend ready for test 3. */
 428:..\..\Common\Minimal/blocktim.c **** 		xRunIndicator = bktRUN_INDICATOR;
 683              		.loc 1 428 0
 684 0062 1B4B     		ldr	r3, .L55
 685 0064 5522     		movs	r2, #85
 686 0066 1A60     		str	r2, [r3]
 429:..\..\Common\Minimal/blocktim.c **** 		vTaskSuspend( NULL );
 687              		.loc 1 429 0
 688 0068 0020     		movs	r0, #0
 689 006a FFF7FEFF 		bl	vTaskSuspend
ARM GAS  C:\Users\Jamie\AppData\Local\Temp\ccdQyQj8.s 			page 21


 430:..\..\Common\Minimal/blocktim.c **** 
 431:..\..\Common\Minimal/blocktim.c **** 		/*********************************************************************
 432:..\..\Common\Minimal/blocktim.c ****         Test 4
 433:..\..\Common\Minimal/blocktim.c **** 
 434:..\..\Common\Minimal/blocktim.c **** 		As per test three, but with the send and receive reversed. */
 435:..\..\Common\Minimal/blocktim.c **** 		xTimeWhenBlocking = xTaskGetTickCount();
 690              		.loc 1 435 0
 691 006e FFF7FEFF 		bl	xTaskGetTickCount
 692 0072 7861     		str	r0, [r7, #20]
 436:..\..\Common\Minimal/blocktim.c **** 
 437:..\..\Common\Minimal/blocktim.c **** 		/* We should unblock after bktTIME_TO_BLOCK having not received
 438:..\..\Common\Minimal/blocktim.c **** 		anything on the queue. */
 439:..\..\Common\Minimal/blocktim.c **** 		xRunIndicator = bktRUN_INDICATOR;
 693              		.loc 1 439 0
 694 0074 164B     		ldr	r3, .L55
 695 0076 5522     		movs	r2, #85
 696 0078 1A60     		str	r2, [r3]
 440:..\..\Common\Minimal/blocktim.c **** 		if( xQueueReceive( xTestQueue, &xData, bktTIME_TO_BLOCK ) != errQUEUE_EMPTY )
 697              		.loc 1 440 0
 698 007a 164B     		ldr	r3, .L55+4
 699 007c 1A68     		ldr	r2, [r3]
 700 007e 07F10C03 		add	r3, r7, #12
 701 0082 1046     		mov	r0, r2
 702 0084 1946     		mov	r1, r3
 703 0086 AF22     		movs	r2, #175
 704 0088 FFF7FEFF 		bl	xQueueReceive
 705 008c 0346     		mov	r3, r0
 706 008e 002B     		cmp	r3, #0
 707 0090 02D0     		beq	.L51
 441:..\..\Common\Minimal/blocktim.c **** 		{
 442:..\..\Common\Minimal/blocktim.c **** 			xErrorOccurred = pdTRUE;
 708              		.loc 1 442 0
 709 0092 114B     		ldr	r3, .L55+8
 710 0094 0122     		movs	r2, #1
 711 0096 1A60     		str	r2, [r3]
 712              	.L51:
 443:..\..\Common\Minimal/blocktim.c **** 		}
 444:..\..\Common\Minimal/blocktim.c **** 
 445:..\..\Common\Minimal/blocktim.c **** 		xBlockedTime = xTaskGetTickCount() - xTimeWhenBlocking;
 713              		.loc 1 445 0
 714 0098 FFF7FEFF 		bl	xTaskGetTickCount
 715 009c 0246     		mov	r2, r0
 716 009e 7B69     		ldr	r3, [r7, #20]
 717 00a0 D31A     		subs	r3, r2, r3
 718 00a2 3B61     		str	r3, [r7, #16]
 446:..\..\Common\Minimal/blocktim.c **** 
 447:..\..\Common\Minimal/blocktim.c **** 		/* We should not have blocked for less time than bktTIME_TO_BLOCK. */
 448:..\..\Common\Minimal/blocktim.c **** 		if( xBlockedTime < bktTIME_TO_BLOCK )
 719              		.loc 1 448 0
 720 00a4 3B69     		ldr	r3, [r7, #16]
 721 00a6 AE2B     		cmp	r3, #174
 722 00a8 02D8     		bhi	.L52
 449:..\..\Common\Minimal/blocktim.c **** 		{
 450:..\..\Common\Minimal/blocktim.c **** 			xErrorOccurred = pdTRUE;
 723              		.loc 1 450 0
 724 00aa 0B4B     		ldr	r3, .L55+8
 725 00ac 0122     		movs	r2, #1
ARM GAS  C:\Users\Jamie\AppData\Local\Temp\ccdQyQj8.s 			page 22


 726 00ae 1A60     		str	r2, [r3]
 727              	.L52:
 451:..\..\Common\Minimal/blocktim.c **** 		}
 452:..\..\Common\Minimal/blocktim.c **** 
 453:..\..\Common\Minimal/blocktim.c **** 		/* We should of not blocked for much longer than bktALLOWABLE_MARGIN
 454:..\..\Common\Minimal/blocktim.c **** 		either.  A margin is permitted as we would not necessarily run as soon
 455:..\..\Common\Minimal/blocktim.c **** 		as we unblocked. */
 456:..\..\Common\Minimal/blocktim.c **** 		if( xBlockedTime > ( bktTIME_TO_BLOCK + bktALLOWABLE_MARGIN ) )
 728              		.loc 1 456 0
 729 00b0 3B69     		ldr	r3, [r7, #16]
 730 00b2 BE2B     		cmp	r3, #190
 731 00b4 02D9     		bls	.L53
 457:..\..\Common\Minimal/blocktim.c **** 		{
 458:..\..\Common\Minimal/blocktim.c **** 			xErrorOccurred = pdTRUE;
 732              		.loc 1 458 0
 733 00b6 084B     		ldr	r3, .L55+8
 734 00b8 0122     		movs	r2, #1
 735 00ba 1A60     		str	r2, [r3]
 736              	.L53:
 459:..\..\Common\Minimal/blocktim.c **** 		}
 460:..\..\Common\Minimal/blocktim.c **** 
 461:..\..\Common\Minimal/blocktim.c **** 		xRunIndicator = bktRUN_INDICATOR;
 737              		.loc 1 461 0
 738 00bc 044B     		ldr	r3, .L55
 739 00be 5522     		movs	r2, #85
 740 00c0 1A60     		str	r2, [r3]
 462:..\..\Common\Minimal/blocktim.c **** 
 463:..\..\Common\Minimal/blocktim.c **** 		xSecondaryCycles++;
 741              		.loc 1 463 0
 742 00c2 064B     		ldr	r3, .L55+12
 743 00c4 1B68     		ldr	r3, [r3]
 744 00c6 0133     		adds	r3, r3, #1
 745 00c8 044A     		ldr	r2, .L55+12
 746 00ca 1360     		str	r3, [r2]
 464:..\..\Common\Minimal/blocktim.c **** 	}
 747              		.loc 1 464 0
 748 00cc 9CE7     		b	.L54
 749              	.L56:
 750 00ce 00BF     		.align	2
 751              	.L55:
 752 00d0 14000000 		.word	xRunIndicator
 753 00d4 00000000 		.word	xTestQueue
 754 00d8 10000000 		.word	xErrorOccurred
 755 00dc 0C000000 		.word	xSecondaryCycles
 756              		.cfi_endproc
 757              	.LFE70:
 758              		.size	vSecondaryBlockTimeTestTask, .-vSecondaryBlockTimeTestTask
 759              		.section	.text.prvBasicDelayTests,"ax",%progbits
 760              		.align	2
 761              		.thumb
 762              		.thumb_func
 763              		.type	prvBasicDelayTests, %function
 764              	prvBasicDelayTests:
 765              	.LFB71:
 465:..\..\Common\Minimal/blocktim.c **** }
 466:..\..\Common\Minimal/blocktim.c **** /*-----------------------------------------------------------*/
 467:..\..\Common\Minimal/blocktim.c **** 
ARM GAS  C:\Users\Jamie\AppData\Local\Temp\ccdQyQj8.s 			page 23


 468:..\..\Common\Minimal/blocktim.c **** static void prvBasicDelayTests( void )
 469:..\..\Common\Minimal/blocktim.c **** {
 766              		.loc 1 469 0
 767              		.cfi_startproc
 768              		@ args = 0, pretend = 0, frame = 32
 769              		@ frame_needed = 1, uses_anonymous_args = 0
 770 0000 80B5     		push	{r7, lr}
 771              		.cfi_def_cfa_offset 8
 772              		.cfi_offset 7, -8
 773              		.cfi_offset 14, -4
 774 0002 88B0     		sub	sp, sp, #32
 775              		.cfi_def_cfa_offset 40
 776 0004 00AF     		add	r7, sp, #0
 777              		.cfi_def_cfa_register 7
 470:..\..\Common\Minimal/blocktim.c **** TickType_t xPreTime, xPostTime, x, xLastUnblockTime, xExpectedUnblockTime;
 471:..\..\Common\Minimal/blocktim.c **** const TickType_t xPeriod = 75, xCycles = 5, xAllowableMargin = ( bktALLOWABLE_MARGIN >> 1 );
 778              		.loc 1 471 0
 779 0006 4B23     		movs	r3, #75
 780 0008 BB61     		str	r3, [r7, #24]
 781 000a 0523     		movs	r3, #5
 782 000c 7B61     		str	r3, [r7, #20]
 783 000e 0723     		movs	r3, #7
 784 0010 3B61     		str	r3, [r7, #16]
 472:..\..\Common\Minimal/blocktim.c **** 
 473:..\..\Common\Minimal/blocktim.c **** 	/* Temporarily increase priority so the timing is more accurate, but not so
 474:..\..\Common\Minimal/blocktim.c **** 	high as to disrupt the timer tests. */
 475:..\..\Common\Minimal/blocktim.c **** 	vTaskPrioritySet( NULL, configTIMER_TASK_PRIORITY - 1 );
 785              		.loc 1 475 0
 786 0012 0020     		movs	r0, #0
 787 0014 0321     		movs	r1, #3
 788 0016 FFF7FEFF 		bl	vTaskPrioritySet
 476:..\..\Common\Minimal/blocktim.c **** 
 477:..\..\Common\Minimal/blocktim.c **** 	/* Crude check to too that vTaskDelay() blocks for the expected period. */
 478:..\..\Common\Minimal/blocktim.c **** 	xPreTime = xTaskGetTickCount();
 789              		.loc 1 478 0
 790 001a FFF7FEFF 		bl	xTaskGetTickCount
 791 001e F860     		str	r0, [r7, #12]
 479:..\..\Common\Minimal/blocktim.c **** 	vTaskDelay( bktTIME_TO_BLOCK );
 792              		.loc 1 479 0
 793 0020 AF20     		movs	r0, #175
 794 0022 FFF7FEFF 		bl	vTaskDelay
 480:..\..\Common\Minimal/blocktim.c **** 	xPostTime = xTaskGetTickCount();
 795              		.loc 1 480 0
 796 0026 FFF7FEFF 		bl	xTaskGetTickCount
 797 002a B860     		str	r0, [r7, #8]
 481:..\..\Common\Minimal/blocktim.c **** 
 482:..\..\Common\Minimal/blocktim.c **** 	/* The priority is higher, so the allowable margin is halved when compared
 483:..\..\Common\Minimal/blocktim.c **** 	to the other tests in this file. */
 484:..\..\Common\Minimal/blocktim.c **** 	if( ( xPostTime - xPreTime ) > ( bktTIME_TO_BLOCK + xAllowableMargin ) )
 798              		.loc 1 484 0
 799 002c BA68     		ldr	r2, [r7, #8]
 800 002e FB68     		ldr	r3, [r7, #12]
 801 0030 D21A     		subs	r2, r2, r3
 802 0032 3B69     		ldr	r3, [r7, #16]
 803 0034 AF33     		adds	r3, r3, #175
 804 0036 9A42     		cmp	r2, r3
 805 0038 02D9     		bls	.L58
ARM GAS  C:\Users\Jamie\AppData\Local\Temp\ccdQyQj8.s 			page 24


 485:..\..\Common\Minimal/blocktim.c **** 	{
 486:..\..\Common\Minimal/blocktim.c **** 		xErrorOccurred = pdTRUE;
 806              		.loc 1 486 0
 807 003a 1B4B     		ldr	r3, .L62
 808 003c 0122     		movs	r2, #1
 809 003e 1A60     		str	r2, [r3]
 810              	.L58:
 487:..\..\Common\Minimal/blocktim.c **** 	}
 488:..\..\Common\Minimal/blocktim.c **** 
 489:..\..\Common\Minimal/blocktim.c **** 	/* Now crude tests to check the vTaskDelayUntil() functionality. */
 490:..\..\Common\Minimal/blocktim.c **** 	xPostTime = xTaskGetTickCount();
 811              		.loc 1 490 0
 812 0040 FFF7FEFF 		bl	xTaskGetTickCount
 813 0044 B860     		str	r0, [r7, #8]
 491:..\..\Common\Minimal/blocktim.c **** 	xLastUnblockTime = xPostTime;
 814              		.loc 1 491 0
 815 0046 BB68     		ldr	r3, [r7, #8]
 816 0048 3B60     		str	r3, [r7]
 492:..\..\Common\Minimal/blocktim.c **** 
 493:..\..\Common\Minimal/blocktim.c **** 	for( x = 0; x < xCycles; x++ )
 817              		.loc 1 493 0
 818 004a 0023     		movs	r3, #0
 819 004c FB61     		str	r3, [r7, #28]
 820 004e 1FE0     		b	.L59
 821              	.L61:
 494:..\..\Common\Minimal/blocktim.c **** 	{
 495:..\..\Common\Minimal/blocktim.c **** 		/* Calculate the next expected unblock time from the time taken before
 496:..\..\Common\Minimal/blocktim.c **** 		this loop was entered. */
 497:..\..\Common\Minimal/blocktim.c **** 		xExpectedUnblockTime = xPostTime + ( x * xPeriod );
 822              		.loc 1 497 0
 823 0050 FB69     		ldr	r3, [r7, #28]
 824 0052 BA69     		ldr	r2, [r7, #24]
 825 0054 02FB03F2 		mul	r2, r2, r3
 826 0058 BB68     		ldr	r3, [r7, #8]
 827 005a 1344     		add	r3, r3, r2
 828 005c 7B60     		str	r3, [r7, #4]
 498:..\..\Common\Minimal/blocktim.c **** 
 499:..\..\Common\Minimal/blocktim.c **** 		vTaskDelayUntil( &xLastUnblockTime, xPeriod );
 829              		.loc 1 499 0
 830 005e 3B46     		mov	r3, r7
 831 0060 1846     		mov	r0, r3
 832 0062 B969     		ldr	r1, [r7, #24]
 833 0064 FFF7FEFF 		bl	vTaskDelayUntil
 500:..\..\Common\Minimal/blocktim.c **** 
 501:..\..\Common\Minimal/blocktim.c **** 		if( ( xTaskGetTickCount() - xExpectedUnblockTime ) > ( bktTIME_TO_BLOCK + xAllowableMargin ) )
 834              		.loc 1 501 0
 835 0068 FFF7FEFF 		bl	xTaskGetTickCount
 836 006c 0246     		mov	r2, r0
 837 006e 7B68     		ldr	r3, [r7, #4]
 838 0070 D21A     		subs	r2, r2, r3
 839 0072 3B69     		ldr	r3, [r7, #16]
 840 0074 AF33     		adds	r3, r3, #175
 841 0076 9A42     		cmp	r2, r3
 842 0078 02D9     		bls	.L60
 502:..\..\Common\Minimal/blocktim.c **** 		{
 503:..\..\Common\Minimal/blocktim.c **** 			xErrorOccurred = pdTRUE;
 843              		.loc 1 503 0
ARM GAS  C:\Users\Jamie\AppData\Local\Temp\ccdQyQj8.s 			page 25


 844 007a 0B4B     		ldr	r3, .L62
 845 007c 0122     		movs	r2, #1
 846 007e 1A60     		str	r2, [r3]
 847              	.L60:
 504:..\..\Common\Minimal/blocktim.c **** 		}
 505:..\..\Common\Minimal/blocktim.c **** 
 506:..\..\Common\Minimal/blocktim.c **** 		xPrimaryCycles++;
 848              		.loc 1 506 0 discriminator 2
 849 0080 0A4B     		ldr	r3, .L62+4
 850 0082 1B68     		ldr	r3, [r3]
 851 0084 0133     		adds	r3, r3, #1
 852 0086 094A     		ldr	r2, .L62+4
 853 0088 1360     		str	r3, [r2]
 493:..\..\Common\Minimal/blocktim.c **** 	{
 854              		.loc 1 493 0 discriminator 2
 855 008a FB69     		ldr	r3, [r7, #28]
 856 008c 0133     		adds	r3, r3, #1
 857 008e FB61     		str	r3, [r7, #28]
 858              	.L59:
 493:..\..\Common\Minimal/blocktim.c **** 	{
 859              		.loc 1 493 0 is_stmt 0 discriminator 1
 860 0090 FA69     		ldr	r2, [r7, #28]
 861 0092 7B69     		ldr	r3, [r7, #20]
 862 0094 9A42     		cmp	r2, r3
 863 0096 DBD3     		bcc	.L61
 507:..\..\Common\Minimal/blocktim.c **** 	}
 508:..\..\Common\Minimal/blocktim.c **** 
 509:..\..\Common\Minimal/blocktim.c **** 	/* Reset to the original task priority ready for the other tests. */
 510:..\..\Common\Minimal/blocktim.c **** 	vTaskPrioritySet( NULL, bktPRIMARY_PRIORITY );
 864              		.loc 1 510 0 is_stmt 1
 865 0098 0020     		movs	r0, #0
 866 009a 0221     		movs	r1, #2
 867 009c FFF7FEFF 		bl	vTaskPrioritySet
 511:..\..\Common\Minimal/blocktim.c **** }
 868              		.loc 1 511 0
 869 00a0 2037     		adds	r7, r7, #32
 870              		.cfi_def_cfa_offset 8
 871 00a2 BD46     		mov	sp, r7
 872              		.cfi_def_cfa_register 13
 873              		@ sp needed
 874 00a4 80BD     		pop	{r7, pc}
 875              	.L63:
 876 00a6 00BF     		.align	2
 877              	.L62:
 878 00a8 10000000 		.word	xErrorOccurred
 879 00ac 08000000 		.word	xPrimaryCycles
 880              		.cfi_endproc
 881              	.LFE71:
 882              		.size	prvBasicDelayTests, .-prvBasicDelayTests
 883              		.section	.text.xAreBlockTimeTestTasksStillRunning,"ax",%progbits
 884              		.align	2
 885              		.global	xAreBlockTimeTestTasksStillRunning
 886              		.thumb
 887              		.thumb_func
 888              		.type	xAreBlockTimeTestTasksStillRunning, %function
 889              	xAreBlockTimeTestTasksStillRunning:
 890              	.LFB72:
ARM GAS  C:\Users\Jamie\AppData\Local\Temp\ccdQyQj8.s 			page 26


 512:..\..\Common\Minimal/blocktim.c **** /*-----------------------------------------------------------*/
 513:..\..\Common\Minimal/blocktim.c **** 
 514:..\..\Common\Minimal/blocktim.c **** BaseType_t xAreBlockTimeTestTasksStillRunning( void )
 515:..\..\Common\Minimal/blocktim.c **** {
 891              		.loc 1 515 0
 892              		.cfi_startproc
 893              		@ args = 0, pretend = 0, frame = 8
 894              		@ frame_needed = 1, uses_anonymous_args = 0
 895              		@ link register save eliminated.
 896 0000 80B4     		push	{r7}
 897              		.cfi_def_cfa_offset 4
 898              		.cfi_offset 7, -4
 899 0002 83B0     		sub	sp, sp, #12
 900              		.cfi_def_cfa_offset 16
 901 0004 00AF     		add	r7, sp, #0
 902              		.cfi_def_cfa_register 7
 516:..\..\Common\Minimal/blocktim.c **** static BaseType_t xLastPrimaryCycleCount = 0, xLastSecondaryCycleCount = 0;
 517:..\..\Common\Minimal/blocktim.c **** BaseType_t xReturn = pdPASS;
 903              		.loc 1 517 0
 904 0006 0123     		movs	r3, #1
 905 0008 7B60     		str	r3, [r7, #4]
 518:..\..\Common\Minimal/blocktim.c **** 
 519:..\..\Common\Minimal/blocktim.c **** 	/* Have both tasks performed at least one cycle since this function was
 520:..\..\Common\Minimal/blocktim.c **** 	last called? */
 521:..\..\Common\Minimal/blocktim.c **** 	if( xPrimaryCycles == xLastPrimaryCycleCount )
 906              		.loc 1 521 0
 907 000a 124B     		ldr	r3, .L69
 908 000c 1A68     		ldr	r2, [r3]
 909 000e 124B     		ldr	r3, .L69+4
 910 0010 1B68     		ldr	r3, [r3]
 911 0012 9A42     		cmp	r2, r3
 912 0014 01D1     		bne	.L65
 522:..\..\Common\Minimal/blocktim.c **** 	{
 523:..\..\Common\Minimal/blocktim.c **** 		xReturn = pdFAIL;
 913              		.loc 1 523 0
 914 0016 0023     		movs	r3, #0
 915 0018 7B60     		str	r3, [r7, #4]
 916              	.L65:
 524:..\..\Common\Minimal/blocktim.c **** 	}
 525:..\..\Common\Minimal/blocktim.c **** 
 526:..\..\Common\Minimal/blocktim.c **** 	if( xSecondaryCycles == xLastSecondaryCycleCount )
 917              		.loc 1 526 0
 918 001a 104B     		ldr	r3, .L69+8
 919 001c 1A68     		ldr	r2, [r3]
 920 001e 104B     		ldr	r3, .L69+12
 921 0020 1B68     		ldr	r3, [r3]
 922 0022 9A42     		cmp	r2, r3
 923 0024 01D1     		bne	.L66
 527:..\..\Common\Minimal/blocktim.c **** 	{
 528:..\..\Common\Minimal/blocktim.c **** 		xReturn = pdFAIL;
 924              		.loc 1 528 0
 925 0026 0023     		movs	r3, #0
 926 0028 7B60     		str	r3, [r7, #4]
 927              	.L66:
 529:..\..\Common\Minimal/blocktim.c **** 	}
 530:..\..\Common\Minimal/blocktim.c **** 
 531:..\..\Common\Minimal/blocktim.c **** 	if( xErrorOccurred == pdTRUE )
ARM GAS  C:\Users\Jamie\AppData\Local\Temp\ccdQyQj8.s 			page 27


 928              		.loc 1 531 0
 929 002a 0E4B     		ldr	r3, .L69+16
 930 002c 1B68     		ldr	r3, [r3]
 931 002e 012B     		cmp	r3, #1
 932 0030 01D1     		bne	.L67
 532:..\..\Common\Minimal/blocktim.c **** 	{
 533:..\..\Common\Minimal/blocktim.c **** 		xReturn = pdFAIL;
 933              		.loc 1 533 0
 934 0032 0023     		movs	r3, #0
 935 0034 7B60     		str	r3, [r7, #4]
 936              	.L67:
 534:..\..\Common\Minimal/blocktim.c **** 	}
 535:..\..\Common\Minimal/blocktim.c **** 
 536:..\..\Common\Minimal/blocktim.c **** 	xLastSecondaryCycleCount = xSecondaryCycles;
 937              		.loc 1 536 0
 938 0036 094B     		ldr	r3, .L69+8
 939 0038 1B68     		ldr	r3, [r3]
 940 003a 094A     		ldr	r2, .L69+12
 941 003c 1360     		str	r3, [r2]
 537:..\..\Common\Minimal/blocktim.c **** 	xLastPrimaryCycleCount = xPrimaryCycles;
 942              		.loc 1 537 0
 943 003e 054B     		ldr	r3, .L69
 944 0040 1B68     		ldr	r3, [r3]
 945 0042 054A     		ldr	r2, .L69+4
 946 0044 1360     		str	r3, [r2]
 538:..\..\Common\Minimal/blocktim.c **** 
 539:..\..\Common\Minimal/blocktim.c **** 	return xReturn;
 947              		.loc 1 539 0
 948 0046 7B68     		ldr	r3, [r7, #4]
 540:..\..\Common\Minimal/blocktim.c **** }
 949              		.loc 1 540 0
 950 0048 1846     		mov	r0, r3
 951 004a 0C37     		adds	r7, r7, #12
 952              		.cfi_def_cfa_offset 4
 953 004c BD46     		mov	sp, r7
 954              		.cfi_def_cfa_register 13
 955              		@ sp needed
 956 004e 5DF8047B 		ldr	r7, [sp], #4
 957              		.cfi_restore 7
 958              		.cfi_def_cfa_offset 0
 959 0052 7047     		bx	lr
 960              	.L70:
 961              		.align	2
 962              	.L69:
 963 0054 08000000 		.word	xPrimaryCycles
 964 0058 18000000 		.word	xLastPrimaryCycleCount.6423
 965 005c 0C000000 		.word	xSecondaryCycles
 966 0060 1C000000 		.word	xLastSecondaryCycleCount.6424
 967 0064 10000000 		.word	xErrorOccurred
 968              		.cfi_endproc
 969              	.LFE72:
 970              		.size	xAreBlockTimeTestTasksStillRunning, .-xAreBlockTimeTestTasksStillRunning
 971              		.bss
 972              		.align	2
 973              	xLastPrimaryCycleCount.6423:
 974 0018 00000000 		.space	4
 975              		.align	2
ARM GAS  C:\Users\Jamie\AppData\Local\Temp\ccdQyQj8.s 			page 28


 976              	xLastSecondaryCycleCount.6424:
 977 001c 00000000 		.space	4
 978              		.text
 979              	.Letext0:
 980              		.file 2 "c:\\program files (x86)\\cypress\\psoc creator\\4.0\\psoc creator\\import\\gnu\\arm\\4.9.
 981              		.file 3 "c:\\program files (x86)\\cypress\\psoc creator\\4.0\\psoc creator\\import\\gnu\\arm\\4.9.
 982              		.file 4 "../../../Source/portable/GCC/ARM_CM3/portmacro.h"
 983              		.file 5 "../../../Source/include/task.h"
 984              		.file 6 "../../../Source/include/queue.h"
 985              		.file 7 "Generated_Source\\PSoC5/core_cm3.h"