ARM GAS  C:\Users\shevi\AppData\Local\Temp\ccg7xKEn.s 			page 1


   1              		.syntax unified
   2              		.cpu cortex-m3
   3              		.fpu softvfp
   4              		.eabi_attribute 20, 1
   5              		.eabi_attribute 21, 1
   6              		.eabi_attribute 23, 3
   7              		.eabi_attribute 24, 1
   8              		.eabi_attribute 25, 1
   9              		.eabi_attribute 26, 1
  10              		.eabi_attribute 30, 6
  11              		.eabi_attribute 34, 1
  12              		.eabi_attribute 18, 4
  13              		.thumb
  14              		.file	"comtest.c"
  15              		.text
  16              	.Ltext0:
  17              		.cfi_sections	.debug_frame
  18              		.bss
  19              		.align	2
  20              	xPort:
  21 0000 00000000 		.space	4
  22              		.align	2
  23              	uxBaseLED:
  24 0004 00000000 		.space	4
  25              		.align	2
  26              	uxRxLoops:
  27 0008 00000000 		.space	4
  28              		.section	.rodata
  29              		.align	2
  30              	.LC0:
  31 0000 434F4D54 		.ascii	"COMTx\000"
  31      7800
  32 0006 0000     		.align	2
  33              	.LC1:
  34 0008 434F4D52 		.ascii	"COMRx\000"
  34      7800
  35 000e 0000     		.section	.text.vAltStartComTestTasks,"ax",%progbits
  36              		.align	2
  37              		.global	vAltStartComTestTasks
  38              		.thumb
  39              		.thumb_func
  40              		.type	vAltStartComTestTasks, %function
  41              	vAltStartComTestTasks:
  42              	.LFB68:
  43              		.file 1 "comtest.c"
   1:comtest.c     **** /*
   2:comtest.c     ****  * FreeRTOS Kernel V10.0.1
   3:comtest.c     ****  * Copyright (C) 2017 Amazon.com, Inc. or its affiliates.  All Rights Reserved.
   4:comtest.c     ****  *
   5:comtest.c     ****  * Permission is hereby granted, free of charge, to any person obtaining a copy of
   6:comtest.c     ****  * this software and associated documentation files (the "Software"), to deal in
   7:comtest.c     ****  * the Software without restriction, including without limitation the rights to
   8:comtest.c     ****  * use, copy, modify, merge, publish, distribute, sublicense, and/or sell copies of
   9:comtest.c     ****  * the Software, and to permit persons to whom the Software is furnished to do so,
  10:comtest.c     ****  * subject to the following conditions:
  11:comtest.c     ****  *
  12:comtest.c     ****  * The above copyright notice and this permission notice shall be included in all
ARM GAS  C:\Users\shevi\AppData\Local\Temp\ccg7xKEn.s 			page 2


  13:comtest.c     ****  * copies or substantial portions of the Software.
  14:comtest.c     ****  *
  15:comtest.c     ****  * THE SOFTWARE IS PROVIDED "AS IS", WITHOUT WARRANTY OF ANY KIND, EXPRESS OR
  16:comtest.c     ****  * IMPLIED, INCLUDING BUT NOT LIMITED TO THE WARRANTIES OF MERCHANTABILITY, FITNESS
  17:comtest.c     ****  * FOR A PARTICULAR PURPOSE AND NONINFRINGEMENT. IN NO EVENT SHALL THE AUTHORS OR
  18:comtest.c     ****  * COPYRIGHT HOLDERS BE LIABLE FOR ANY CLAIM, DAMAGES OR OTHER LIABILITY, WHETHER
  19:comtest.c     ****  * IN AN ACTION OF CONTRACT, TORT OR OTHERWISE, ARISING FROM, OUT OF OR IN
  20:comtest.c     ****  * CONNECTION WITH THE SOFTWARE OR THE USE OR OTHER DEALINGS IN THE SOFTWARE.
  21:comtest.c     ****  *
  22:comtest.c     ****  * http://www.FreeRTOS.org
  23:comtest.c     ****  * http://aws.amazon.com/freertos
  24:comtest.c     ****  *
  25:comtest.c     ****  * 1 tab == 4 spaces!
  26:comtest.c     ****  */
  27:comtest.c     **** 
  28:comtest.c     **** 
  29:comtest.c     **** /*
  30:comtest.c     ****  * This version of comtest. c is for use on systems that have limited stack
  31:comtest.c     ****  * space and no display facilities.  The complete version can be found in
  32:comtest.c     ****  * the Demo/Common/Full directory.
  33:comtest.c     ****  *
  34:comtest.c     ****  * Creates two tasks that operate on an interrupt driven serial port.  A
  35:comtest.c     ****  * loopback connector should be used so that everything that is transmitted is
  36:comtest.c     ****  * also received.  The serial port does not use any flow control.  On a
  37:comtest.c     ****  * standard 9way 'D' connector pins two and three should be connected together.
  38:comtest.c     ****  *
  39:comtest.c     ****  * The first task posts a sequence of characters to the Tx queue, toggling an
  40:comtest.c     ****  * LED on each successful post.  At the end of the sequence it sleeps for a
  41:comtest.c     ****  * pseudo-random period before resending the same sequence.
  42:comtest.c     ****  *
  43:comtest.c     ****  * The UART Tx end interrupt is enabled whenever data is available in the Tx
  44:comtest.c     ****  * queue.  The Tx end ISR removes a single character from the Tx queue and
  45:comtest.c     ****  * passes it to the UART for transmission.
  46:comtest.c     ****  *
  47:comtest.c     ****  * The second task blocks on the Rx queue waiting for a character to become
  48:comtest.c     ****  * available.  When the UART Rx end interrupt receives a character it places
  49:comtest.c     ****  * it in the Rx queue, waking the second task.  The second task checks that the
  50:comtest.c     ****  * characters removed from the Rx queue form the same sequence as those posted
  51:comtest.c     ****  * to the Tx queue, and toggles an LED for each correct character.
  52:comtest.c     ****  *
  53:comtest.c     ****  * The receiving task is spawned with a higher priority than the transmitting
  54:comtest.c     ****  * task.  The receiver will therefore wake every time a character is
  55:comtest.c     ****  * transmitted so neither the Tx or Rx queue should ever hold more than a few
  56:comtest.c     ****  * characters.
  57:comtest.c     ****  *
  58:comtest.c     ****  */
  59:comtest.c     **** 
  60:comtest.c     **** /* Scheduler include files. */
  61:comtest.c     **** #include <stdlib.h>
  62:comtest.c     **** #include "FreeRTOS.h"
  63:comtest.c     **** #include "task.h"
  64:comtest.c     **** 
  65:comtest.c     **** /* Demo program include files. */
  66:comtest.c     **** #include "serial.h"
  67:comtest.c     **** #include "comtest.h"
  68:comtest.c     **** 
  69:comtest.c     **** #define comSTACK_SIZE				configMINIMAL_STACK_SIZE
ARM GAS  C:\Users\shevi\AppData\Local\Temp\ccg7xKEn.s 			page 3


  70:comtest.c     **** #define comTX_LED_OFFSET			( 0 )
  71:comtest.c     **** #define comRX_LED_OFFSET			( 1 )
  72:comtest.c     **** #define comTOTAL_PERMISSIBLE_ERRORS ( 2 )
  73:comtest.c     **** 
  74:comtest.c     **** /* The Tx task will transmit the sequence of characters at a pseudo random
  75:comtest.c     **** interval.  This is the maximum and minimum block time between sends. */
  76:comtest.c     **** #define comTX_MAX_BLOCK_TIME		( ( TickType_t ) 0x96 )
  77:comtest.c     **** #define comTX_MIN_BLOCK_TIME		( ( TickType_t ) 0x32 )
  78:comtest.c     **** #define comOFFSET_TIME				( ( TickType_t ) 3 )
  79:comtest.c     **** 
  80:comtest.c     **** /* We should find that each character can be queued for Tx immediately and we
  81:comtest.c     **** don't have to block to send. */
  82:comtest.c     **** #define comNO_BLOCK					( ( TickType_t ) 0 )
  83:comtest.c     **** 
  84:comtest.c     **** /* The Rx task will block on the Rx queue for a long period. */
  85:comtest.c     **** #define comRX_BLOCK_TIME			( ( TickType_t ) 0xffff )
  86:comtest.c     **** 
  87:comtest.c     **** /* The sequence transmitted is from comFIRST_BYTE to and including comLAST_BYTE. */
  88:comtest.c     **** #define comFIRST_BYTE				( 'A' )
  89:comtest.c     **** #define comLAST_BYTE				( 'X' )
  90:comtest.c     **** 
  91:comtest.c     **** #define comBUFFER_LEN				( ( UBaseType_t ) ( comLAST_BYTE - comFIRST_BYTE ) + ( UBaseType_t ) 1 )
  92:comtest.c     **** #define comINITIAL_RX_COUNT_VALUE	( 0 )
  93:comtest.c     **** 
  94:comtest.c     **** /* Handle to the com port used by both tasks. */
  95:comtest.c     **** static xComPortHandle xPort = NULL;
  96:comtest.c     **** 
  97:comtest.c     **** /* The transmit task as described at the top of the file. */
  98:comtest.c     **** static portTASK_FUNCTION_PROTO( vComTxTask, pvParameters );
  99:comtest.c     **** 
 100:comtest.c     **** /* The receive task as described at the top of the file. */
 101:comtest.c     **** static portTASK_FUNCTION_PROTO( vComRxTask, pvParameters );
 102:comtest.c     **** 
 103:comtest.c     **** /* The LED that should be toggled by the Rx and Tx tasks.  The Rx task will
 104:comtest.c     **** toggle LED ( uxBaseLED + comRX_LED_OFFSET).  The Tx task will toggle LED
 105:comtest.c     **** ( uxBaseLED + comTX_LED_OFFSET ). */
 106:comtest.c     **** static UBaseType_t uxBaseLED = 0;
 107:comtest.c     **** 
 108:comtest.c     **** /* Check variable used to ensure no error have occurred.  The Rx task will
 109:comtest.c     **** increment this variable after every successfully received sequence.  If at any
 110:comtest.c     **** time the sequence is incorrect the the variable will stop being incremented. */
 111:comtest.c     **** static volatile UBaseType_t uxRxLoops = comINITIAL_RX_COUNT_VALUE;
 112:comtest.c     **** 
 113:comtest.c     **** /*-----------------------------------------------------------*/
 114:comtest.c     **** 
 115:comtest.c     **** void vAltStartComTestTasks( UBaseType_t uxPriority, uint32_t ulBaudRate, UBaseType_t uxLED )
 116:comtest.c     **** {
  44              		.loc 1 116 0
  45              		.cfi_startproc
  46              		@ args = 0, pretend = 0, frame = 16
  47              		@ frame_needed = 1, uses_anonymous_args = 0
  48 0000 80B5     		push	{r7, lr}
  49              		.cfi_def_cfa_offset 8
  50              		.cfi_offset 7, -8
  51              		.cfi_offset 14, -4
  52 0002 86B0     		sub	sp, sp, #24
  53              		.cfi_def_cfa_offset 32
ARM GAS  C:\Users\shevi\AppData\Local\Temp\ccg7xKEn.s 			page 4


  54 0004 02AF     		add	r7, sp, #8
  55              		.cfi_def_cfa 7, 24
  56 0006 F860     		str	r0, [r7, #12]
  57 0008 B960     		str	r1, [r7, #8]
  58 000a 7A60     		str	r2, [r7, #4]
 117:comtest.c     **** 	/* Initialise the com port then spawn the Rx and Tx tasks. */
 118:comtest.c     **** 	uxBaseLED = uxLED;
  59              		.loc 1 118 0
  60 000c 0F4A     		ldr	r2, .L2
  61 000e 7B68     		ldr	r3, [r7, #4]
  62 0010 1360     		str	r3, [r2]
 119:comtest.c     **** 	xSerialPortInitMinimal( ulBaudRate, comBUFFER_LEN );
  63              		.loc 1 119 0
  64 0012 B868     		ldr	r0, [r7, #8]
  65 0014 1821     		movs	r1, #24
  66 0016 FFF7FEFF 		bl	xSerialPortInitMinimal
 120:comtest.c     **** 
 121:comtest.c     **** 	/* The Tx task is spawned with a lower priority than the Rx task. */
 122:comtest.c     **** 	xTaskCreate( vComTxTask, "COMTx", comSTACK_SIZE, NULL, uxPriority - 1, ( TaskHandle_t * ) NULL );
  67              		.loc 1 122 0
  68 001a FB68     		ldr	r3, [r7, #12]
  69 001c 013B     		subs	r3, r3, #1
  70 001e 0093     		str	r3, [sp]
  71 0020 0023     		movs	r3, #0
  72 0022 0193     		str	r3, [sp, #4]
  73 0024 0A48     		ldr	r0, .L2+4
  74 0026 0B49     		ldr	r1, .L2+8
  75 0028 6422     		movs	r2, #100
  76 002a 0023     		movs	r3, #0
  77 002c FFF7FEFF 		bl	xTaskCreate
 123:comtest.c     **** 	xTaskCreate( vComRxTask, "COMRx", comSTACK_SIZE, NULL, uxPriority, ( TaskHandle_t * ) NULL );
  78              		.loc 1 123 0
  79 0030 FB68     		ldr	r3, [r7, #12]
  80 0032 0093     		str	r3, [sp]
  81 0034 0023     		movs	r3, #0
  82 0036 0193     		str	r3, [sp, #4]
  83 0038 0748     		ldr	r0, .L2+12
  84 003a 0849     		ldr	r1, .L2+16
  85 003c 6422     		movs	r2, #100
  86 003e 0023     		movs	r3, #0
  87 0040 FFF7FEFF 		bl	xTaskCreate
 124:comtest.c     **** }
  88              		.loc 1 124 0
  89 0044 1037     		adds	r7, r7, #16
  90              		.cfi_def_cfa_offset 8
  91 0046 BD46     		mov	sp, r7
  92              		.cfi_def_cfa_register 13
  93              		@ sp needed
  94 0048 80BD     		pop	{r7, pc}
  95              	.L3:
  96 004a 00BF     		.align	2
  97              	.L2:
  98 004c 04000000 		.word	uxBaseLED
  99 0050 00000000 		.word	vComTxTask
 100 0054 00000000 		.word	.LC0
 101 0058 00000000 		.word	vComRxTask
 102 005c 08000000 		.word	.LC1
ARM GAS  C:\Users\shevi\AppData\Local\Temp\ccg7xKEn.s 			page 5


 103              		.cfi_endproc
 104              	.LFE68:
 105              		.size	vAltStartComTestTasks, .-vAltStartComTestTasks
 106              		.section	.text.vComTxTask,"ax",%progbits
 107              		.align	2
 108              		.thumb
 109              		.thumb_func
 110              		.type	vComTxTask, %function
 111              	vComTxTask:
 112              	.LFB69:
 125:comtest.c     **** /*-----------------------------------------------------------*/
 126:comtest.c     **** 
 127:comtest.c     **** static portTASK_FUNCTION( vComTxTask, pvParameters )
 128:comtest.c     **** {
 113              		.loc 1 128 0
 114              		.cfi_startproc
 115              		@ args = 0, pretend = 0, frame = 16
 116              		@ frame_needed = 1, uses_anonymous_args = 0
 117 0000 80B5     		push	{r7, lr}
 118              		.cfi_def_cfa_offset 8
 119              		.cfi_offset 7, -8
 120              		.cfi_offset 14, -4
 121 0002 84B0     		sub	sp, sp, #16
 122              		.cfi_def_cfa_offset 24
 123 0004 00AF     		add	r7, sp, #0
 124              		.cfi_def_cfa_register 7
 125 0006 7860     		str	r0, [r7, #4]
 126              	.L8:
 129:comtest.c     **** char cByteToSend;
 130:comtest.c     **** TickType_t xTimeToWait;
 131:comtest.c     **** 
 132:comtest.c     **** 	/* Just to stop compiler warnings. */
 133:comtest.c     **** 	( void ) pvParameters;
 134:comtest.c     **** 
 135:comtest.c     **** 	for( ;; )
 136:comtest.c     **** 	{
 137:comtest.c     **** 		/* Simply transmit a sequence of characters from comFIRST_BYTE to
 138:comtest.c     **** 		comLAST_BYTE. */
 139:comtest.c     **** 		for( cByteToSend = comFIRST_BYTE; cByteToSend <= comLAST_BYTE; cByteToSend++ )
 127              		.loc 1 139 0
 128 0008 4123     		movs	r3, #65
 129 000a FB73     		strb	r3, [r7, #15]
 130 000c 0BE0     		b	.L5
 131              	.L6:
 140:comtest.c     **** 		{
 141:comtest.c     **** 			if( xSerialPutChar( xPort, cByteToSend, comNO_BLOCK ) == pdPASS )
 132              		.loc 1 141 0
 133 000e 134B     		ldr	r3, .L9
 134 0010 1A68     		ldr	r2, [r3]
 135 0012 FB7B     		ldrb	r3, [r7, #15]	@ zero_extendqisi2
 136 0014 5BB2     		sxtb	r3, r3
 137 0016 1046     		mov	r0, r2
 138 0018 1946     		mov	r1, r3
 139 001a 0022     		movs	r2, #0
 140 001c FFF7FEFF 		bl	xSerialPutChar
 139:comtest.c     **** 		{
 141              		.loc 1 139 0
ARM GAS  C:\Users\shevi\AppData\Local\Temp\ccg7xKEn.s 			page 6


 142 0020 FB7B     		ldrb	r3, [r7, #15]	@ zero_extendqisi2
 143 0022 0133     		adds	r3, r3, #1
 144 0024 FB73     		strb	r3, [r7, #15]
 145              	.L5:
 139:comtest.c     **** 		{
 146              		.loc 1 139 0 is_stmt 0 discriminator 1
 147 0026 FB7B     		ldrb	r3, [r7, #15]	@ zero_extendqisi2
 148 0028 582B     		cmp	r3, #88
 149 002a F0D9     		bls	.L6
 142:comtest.c     **** 			{
 143:comtest.c     **** 				
 144:comtest.c     **** 			}
 145:comtest.c     **** 		}
 146:comtest.c     **** 
 147:comtest.c     **** 		/* Turn the LED off while we are not doing anything. */
 148:comtest.c     **** 		
 149:comtest.c     **** 
 150:comtest.c     **** 		/* We have posted all the characters in the string - wait before
 151:comtest.c     **** 		re-sending.  Wait a pseudo-random time as this will provide a better
 152:comtest.c     **** 		test. */
 153:comtest.c     **** 		xTimeToWait = xTaskGetTickCount() + comOFFSET_TIME;
 150              		.loc 1 153 0 is_stmt 1
 151 002c FFF7FEFF 		bl	xTaskGetTickCount
 152 0030 0346     		mov	r3, r0
 153 0032 0333     		adds	r3, r3, #3
 154 0034 BB60     		str	r3, [r7, #8]
 154:comtest.c     **** 
 155:comtest.c     **** 		/* Make sure we don't wait too long... */
 156:comtest.c     **** 		xTimeToWait %= comTX_MAX_BLOCK_TIME;
 155              		.loc 1 156 0
 156 0036 BB68     		ldr	r3, [r7, #8]
 157 0038 094A     		ldr	r2, .L9+4
 158 003a A2FB0312 		umull	r1, r2, r2, r3
 159 003e 1209     		lsrs	r2, r2, #4
 160 0040 9621     		movs	r1, #150
 161 0042 01FB02F2 		mul	r2, r1, r2
 162 0046 9B1A     		subs	r3, r3, r2
 163 0048 BB60     		str	r3, [r7, #8]
 157:comtest.c     **** 
 158:comtest.c     **** 		/* ...but we do want to wait. */
 159:comtest.c     **** 		if( xTimeToWait < comTX_MIN_BLOCK_TIME )
 164              		.loc 1 159 0
 165 004a BB68     		ldr	r3, [r7, #8]
 166 004c 312B     		cmp	r3, #49
 167 004e 01D8     		bhi	.L7
 160:comtest.c     **** 		{
 161:comtest.c     **** 			xTimeToWait = comTX_MIN_BLOCK_TIME;
 168              		.loc 1 161 0
 169 0050 3223     		movs	r3, #50
 170 0052 BB60     		str	r3, [r7, #8]
 171              	.L7:
 162:comtest.c     **** 		}
 163:comtest.c     **** 
 164:comtest.c     **** 		vTaskDelay( xTimeToWait );
 172              		.loc 1 164 0
 173 0054 B868     		ldr	r0, [r7, #8]
 174 0056 FFF7FEFF 		bl	vTaskDelay
ARM GAS  C:\Users\shevi\AppData\Local\Temp\ccg7xKEn.s 			page 7


 165:comtest.c     **** 	}
 175              		.loc 1 165 0
 176 005a D5E7     		b	.L8
 177              	.L10:
 178              		.align	2
 179              	.L9:
 180 005c 00000000 		.word	xPort
 181 0060 B5814E1B 		.word	458129845
 182              		.cfi_endproc
 183              	.LFE69:
 184              		.size	vComTxTask, .-vComTxTask
 185              		.section	.text.vComRxTask,"ax",%progbits
 186              		.align	2
 187              		.thumb
 188              		.thumb_func
 189              		.type	vComRxTask, %function
 190              	vComRxTask:
 191              	.LFB70:
 166:comtest.c     **** } /*lint !e715 !e818 pvParameters is required for a task function even if it is not referenced. */
 167:comtest.c     **** /*-----------------------------------------------------------*/
 168:comtest.c     **** 
 169:comtest.c     **** static portTASK_FUNCTION( vComRxTask, pvParameters )
 170:comtest.c     **** {
 192              		.loc 1 170 0
 193              		.cfi_startproc
 194              		@ args = 0, pretend = 0, frame = 24
 195              		@ frame_needed = 1, uses_anonymous_args = 0
 196 0000 80B5     		push	{r7, lr}
 197              		.cfi_def_cfa_offset 8
 198              		.cfi_offset 7, -8
 199              		.cfi_offset 14, -4
 200 0002 86B0     		sub	sp, sp, #24
 201              		.cfi_def_cfa_offset 32
 202 0004 00AF     		add	r7, sp, #0
 203              		.cfi_def_cfa_register 7
 204 0006 7860     		str	r0, [r7, #4]
 171:comtest.c     **** signed char cExpectedByte, cByteRxed;
 172:comtest.c     **** BaseType_t xResyncRequired = pdFALSE, xErrorOccurred = pdFALSE;
 205              		.loc 1 172 0
 206 0008 0023     		movs	r3, #0
 207 000a 3B61     		str	r3, [r7, #16]
 208 000c 0023     		movs	r3, #0
 209 000e FB60     		str	r3, [r7, #12]
 210              	.L20:
 173:comtest.c     **** 
 174:comtest.c     **** 	/* Just to stop compiler warnings. */
 175:comtest.c     **** 	( void ) pvParameters;
 176:comtest.c     **** 
 177:comtest.c     **** 	for( ;; )
 178:comtest.c     **** 	{
 179:comtest.c     **** 		/* We expect to receive the characters from comFIRST_BYTE to
 180:comtest.c     **** 		comLAST_BYTE in an incrementing order.  Loop to receive each byte. */
 181:comtest.c     **** 		for( cExpectedByte = comFIRST_BYTE; cExpectedByte <= comLAST_BYTE; cExpectedByte++ )
 211              		.loc 1 181 0
 212 0010 4123     		movs	r3, #65
 213 0012 FB75     		strb	r3, [r7, #23]
 214 0014 1AE0     		b	.L12
ARM GAS  C:\Users\shevi\AppData\Local\Temp\ccg7xKEn.s 			page 8


 215              	.L15:
 182:comtest.c     **** 		{
 183:comtest.c     **** 			/* Block on the queue that contains received bytes until a byte is
 184:comtest.c     **** 			available. */
 185:comtest.c     **** 			if( xSerialGetChar( xPort, &cByteRxed, comRX_BLOCK_TIME ) )
 216              		.loc 1 185 0
 217 0016 204B     		ldr	r3, .L21
 218 0018 1A68     		ldr	r2, [r3]
 219 001a 07F10B03 		add	r3, r7, #11
 220 001e 1046     		mov	r0, r2
 221 0020 1946     		mov	r1, r3
 222 0022 4FF6FF72 		movw	r2, #65535
 223 0026 FFF7FEFF 		bl	xSerialGetChar
 224 002a 0346     		mov	r3, r0
 225 002c 002B     		cmp	r3, #0
 226 002e 08D0     		beq	.L13
 186:comtest.c     **** 			{
 187:comtest.c     **** 				/* Was this the byte we were expecting?  If so, toggle the LED,
 188:comtest.c     **** 				otherwise we are out on sync and should break out of the loop
 189:comtest.c     **** 				until the expected character sequence is about to restart. */
 190:comtest.c     **** 				if( cByteRxed == cExpectedByte )
 227              		.loc 1 190 0
 228 0030 FB7A     		ldrb	r3, [r7, #11]	@ zero_extendqisi2
 229 0032 97F91720 		ldrsb	r2, [r7, #23]
 230 0036 5BB2     		sxtb	r3, r3
 231 0038 9A42     		cmp	r2, r3
 232 003a 02D0     		beq	.L13
 191:comtest.c     **** 				{
 192:comtest.c     **** 					
 193:comtest.c     **** 				}
 194:comtest.c     **** 				else
 195:comtest.c     **** 				{
 196:comtest.c     **** 					xResyncRequired = pdTRUE;
 233              		.loc 1 196 0
 234 003c 0123     		movs	r3, #1
 235 003e 3B61     		str	r3, [r7, #16]
 197:comtest.c     **** 					break; /*lint !e960 Non-switch break allowed. */
 236              		.loc 1 197 0
 237 0040 08E0     		b	.L14
 238              	.L13:
 181:comtest.c     **** 		{
 239              		.loc 1 181 0 discriminator 2
 240 0042 FB7D     		ldrb	r3, [r7, #23]	@ zero_extendqisi2
 241 0044 DBB2     		uxtb	r3, r3
 242 0046 0133     		adds	r3, r3, #1
 243 0048 DBB2     		uxtb	r3, r3
 244 004a FB75     		strb	r3, [r7, #23]
 245              	.L12:
 181:comtest.c     **** 		{
 246              		.loc 1 181 0 is_stmt 0 discriminator 1
 247 004c 97F91730 		ldrsb	r3, [r7, #23]
 248 0050 582B     		cmp	r3, #88
 249 0052 E0DD     		ble	.L15
 250              	.L14:
 198:comtest.c     **** 				}
 199:comtest.c     **** 			}
 200:comtest.c     **** 		}
ARM GAS  C:\Users\shevi\AppData\Local\Temp\ccg7xKEn.s 			page 9


 201:comtest.c     **** 
 202:comtest.c     **** 		/* Turn the LED off while we are not doing anything. */
 203:comtest.c     **** 		
 204:comtest.c     **** 
 205:comtest.c     **** 		/* Did we break out of the loop because the characters were received in
 206:comtest.c     **** 		an unexpected order?  If so wait here until the character sequence is
 207:comtest.c     **** 		about to restart. */
 208:comtest.c     **** 		if( xResyncRequired == pdTRUE )
 251              		.loc 1 208 0 is_stmt 1
 252 0054 3B69     		ldr	r3, [r7, #16]
 253 0056 012B     		cmp	r3, #1
 254 0058 14D1     		bne	.L16
 209:comtest.c     **** 		{
 210:comtest.c     **** 			while( cByteRxed != comLAST_BYTE )
 255              		.loc 1 210 0
 256 005a 09E0     		b	.L17
 257              	.L18:
 211:comtest.c     **** 			{
 212:comtest.c     **** 				/* Block until the next char is available. */
 213:comtest.c     **** 				xSerialGetChar( xPort, &cByteRxed, comRX_BLOCK_TIME );
 258              		.loc 1 213 0
 259 005c 0E4B     		ldr	r3, .L21
 260 005e 1A68     		ldr	r2, [r3]
 261 0060 07F10B03 		add	r3, r7, #11
 262 0064 1046     		mov	r0, r2
 263 0066 1946     		mov	r1, r3
 264 0068 4FF6FF72 		movw	r2, #65535
 265 006c FFF7FEFF 		bl	xSerialGetChar
 266              	.L17:
 210:comtest.c     **** 			{
 267              		.loc 1 210 0
 268 0070 FB7A     		ldrb	r3, [r7, #11]	@ zero_extendqisi2
 269 0072 5BB2     		sxtb	r3, r3
 270 0074 582B     		cmp	r3, #88
 271 0076 F1D1     		bne	.L18
 214:comtest.c     **** 			}
 215:comtest.c     **** 
 216:comtest.c     **** 			/* Note that an error occurred which caused us to have to resync.
 217:comtest.c     **** 			We use this to stop incrementing the loop counter so
 218:comtest.c     **** 			sAreComTestTasksStillRunning() will return false - indicating an
 219:comtest.c     **** 			error. */
 220:comtest.c     **** 			xErrorOccurred++;
 272              		.loc 1 220 0
 273 0078 FB68     		ldr	r3, [r7, #12]
 274 007a 0133     		adds	r3, r3, #1
 275 007c FB60     		str	r3, [r7, #12]
 221:comtest.c     **** 
 222:comtest.c     **** 			/* We have now resynced with the Tx task and can continue. */
 223:comtest.c     **** 			xResyncRequired = pdFALSE;
 276              		.loc 1 223 0
 277 007e 0023     		movs	r3, #0
 278 0080 3B61     		str	r3, [r7, #16]
 279 0082 07E0     		b	.L19
 280              	.L16:
 224:comtest.c     **** 		}
 225:comtest.c     **** 		else
 226:comtest.c     **** 		{
ARM GAS  C:\Users\shevi\AppData\Local\Temp\ccg7xKEn.s 			page 10


 227:comtest.c     **** 			if( xErrorOccurred < comTOTAL_PERMISSIBLE_ERRORS )
 281              		.loc 1 227 0
 282 0084 FB68     		ldr	r3, [r7, #12]
 283 0086 012B     		cmp	r3, #1
 284 0088 04DC     		bgt	.L19
 228:comtest.c     **** 			{
 229:comtest.c     **** 				/* Increment the count of successful loops.  As error
 230:comtest.c     **** 				occurring (i.e. an unexpected character being received) will
 231:comtest.c     **** 				prevent this counter being incremented for the rest of the
 232:comtest.c     **** 				execution.   Don't worry about mutual exclusion on this
 233:comtest.c     **** 				variable - it doesn't really matter as we just want it
 234:comtest.c     **** 				to change. */
 235:comtest.c     **** 				uxRxLoops++;
 285              		.loc 1 235 0
 286 008a 044B     		ldr	r3, .L21+4
 287 008c 1B68     		ldr	r3, [r3]
 288 008e 0133     		adds	r3, r3, #1
 289 0090 024A     		ldr	r2, .L21+4
 290 0092 1360     		str	r3, [r2]
 291              	.L19:
 236:comtest.c     **** 			}
 237:comtest.c     **** 		}
 238:comtest.c     **** 	}
 292              		.loc 1 238 0
 293 0094 BCE7     		b	.L20
 294              	.L22:
 295 0096 00BF     		.align	2
 296              	.L21:
 297 0098 00000000 		.word	xPort
 298 009c 08000000 		.word	uxRxLoops
 299              		.cfi_endproc
 300              	.LFE70:
 301              		.size	vComRxTask, .-vComRxTask
 302              		.section	.text.xAreComTestTasksStillRunning,"ax",%progbits
 303              		.align	2
 304              		.global	xAreComTestTasksStillRunning
 305              		.thumb
 306              		.thumb_func
 307              		.type	xAreComTestTasksStillRunning, %function
 308              	xAreComTestTasksStillRunning:
 309              	.LFB71:
 239:comtest.c     **** } /*lint !e715 !e818 pvParameters is required for a task function even if it is not referenced. */
 240:comtest.c     **** /*-----------------------------------------------------------*/
 241:comtest.c     **** 
 242:comtest.c     **** BaseType_t xAreComTestTasksStillRunning( void )
 243:comtest.c     **** {
 310              		.loc 1 243 0
 311              		.cfi_startproc
 312              		@ args = 0, pretend = 0, frame = 8
 313              		@ frame_needed = 1, uses_anonymous_args = 0
 314              		@ link register save eliminated.
 315 0000 80B4     		push	{r7}
 316              		.cfi_def_cfa_offset 4
 317              		.cfi_offset 7, -4
 318 0002 83B0     		sub	sp, sp, #12
 319              		.cfi_def_cfa_offset 16
 320 0004 00AF     		add	r7, sp, #0
ARM GAS  C:\Users\shevi\AppData\Local\Temp\ccg7xKEn.s 			page 11


 321              		.cfi_def_cfa_register 7
 244:comtest.c     **** BaseType_t xReturn;
 245:comtest.c     **** 
 246:comtest.c     **** 	/* If the count of successful reception loops has not changed than at
 247:comtest.c     **** 	some time an error occurred (i.e. a character was received out of sequence)
 248:comtest.c     **** 	and we will return false. */
 249:comtest.c     **** 	if( uxRxLoops == comINITIAL_RX_COUNT_VALUE )
 322              		.loc 1 249 0
 323 0006 094B     		ldr	r3, .L27
 324 0008 1B68     		ldr	r3, [r3]
 325 000a 002B     		cmp	r3, #0
 326 000c 02D1     		bne	.L24
 250:comtest.c     **** 	{
 251:comtest.c     **** 		xReturn = pdFALSE;
 327              		.loc 1 251 0
 328 000e 0023     		movs	r3, #0
 329 0010 7B60     		str	r3, [r7, #4]
 330 0012 01E0     		b	.L25
 331              	.L24:
 252:comtest.c     **** 	}
 253:comtest.c     **** 	else
 254:comtest.c     **** 	{
 255:comtest.c     **** 		xReturn = pdTRUE;
 332              		.loc 1 255 0
 333 0014 0123     		movs	r3, #1
 334 0016 7B60     		str	r3, [r7, #4]
 335              	.L25:
 256:comtest.c     **** 	}
 257:comtest.c     **** 
 258:comtest.c     **** 	/* Reset the count of successful Rx loops.  When this function is called
 259:comtest.c     **** 	again we expect this to have been incremented. */
 260:comtest.c     **** 	uxRxLoops = comINITIAL_RX_COUNT_VALUE;
 336              		.loc 1 260 0
 337 0018 044B     		ldr	r3, .L27
 338 001a 0022     		movs	r2, #0
 339 001c 1A60     		str	r2, [r3]
 261:comtest.c     **** 
 262:comtest.c     **** 	return xReturn;
 340              		.loc 1 262 0
 341 001e 7B68     		ldr	r3, [r7, #4]
 263:comtest.c     **** }
 342              		.loc 1 263 0
 343 0020 1846     		mov	r0, r3
 344 0022 0C37     		adds	r7, r7, #12
 345              		.cfi_def_cfa_offset 4
 346 0024 BD46     		mov	sp, r7
 347              		.cfi_def_cfa_register 13
 348              		@ sp needed
 349 0026 5DF8047B 		ldr	r7, [sp], #4
 350              		.cfi_restore 7
 351              		.cfi_def_cfa_offset 0
 352 002a 7047     		bx	lr
 353              	.L28:
 354              		.align	2
 355              	.L27:
 356 002c 08000000 		.word	uxRxLoops
 357              		.cfi_endproc
ARM GAS  C:\Users\shevi\AppData\Local\Temp\ccg7xKEn.s 			page 12


 358              	.LFE71:
 359              		.size	xAreComTestTasksStillRunning, .-xAreComTestTasksStillRunning
 360              		.text
 361              	.Letext0:
 362              		.file 2 "c:\\program files (x86)\\cypress\\psoc creator\\4.0\\psoc creator\\import\\gnu\\arm\\4.9.
 363              		.file 3 "c:\\program files (x86)\\cypress\\psoc creator\\4.0\\psoc creator\\import\\gnu\\arm\\4.9.
 364              		.file 4 "..\\..\\FreeRTOS_Source\\portable\\GCC\\ARM_CM3/portmacro.h"
 365              		.file 5 "..\\..\\FreeRTOS_Source\\include/task.h"
 366              		.file 6 "..\\..\\FreeRTOS_Source\\include/serial.h"
 367              		.file 7 "Generated_Source\\PSoC5/core_cm3.h"