ARM GAS  C:\Users\Jamie\AppData\Local\Temp\cc88ul3d.s 			page 1


   1              		.syntax unified
   2              		.cpu cortex-m3
   3              		.fpu softvfp
   4              		.eabi_attribute 20, 1
   5              		.eabi_attribute 21, 1
   6              		.eabi_attribute 23, 3
   7              		.eabi_attribute 24, 1
   8              		.eabi_attribute 25, 1
   9              		.eabi_attribute 26, 1
  10              		.eabi_attribute 30, 6
  11              		.eabi_attribute 34, 1
  12              		.eabi_attribute 18, 4
  13              		.thumb
  14              		.file	"countsem.c"
  15              		.text
  16              	.Ltext0:
  17              		.cfi_sections	.debug_frame
  18              		.bss
  19              		.align	2
  20              	xErrorDetected:
  21 0000 00000000 		.space	4
  22              		.align	2
  23              	xParameters:
  24 0004 00000000 		.space	24
  24      00000000 
  24      00000000 
  24      00000000 
  24      00000000 
  25              		.section	.rodata
  26              		.align	2
  27              	.LC0:
  28 0000 436F756E 		.ascii	"Counting_Sem_1\000"
  28      74696E67 
  28      5F53656D 
  28      5F3100
  29 000f 00       		.align	2
  30              	.LC1:
  31 0010 436F756E 		.ascii	"Counting_Sem_2\000"
  31      74696E67 
  31      5F53656D 
  31      5F3200
  32 001f 00       		.align	2
  33              	.LC2:
  34 0020 434E5431 		.ascii	"CNT1\000"
  34      00
  35 0025 000000   		.align	2
  36              	.LC3:
  37 0028 434E5432 		.ascii	"CNT2\000"
  37      00
  38 002d 000000   		.section	.text.vStartCountingSemaphoreTasks,"ax",%progbits
  39              		.align	2
  40              		.global	vStartCountingSemaphoreTasks
  41              		.thumb
  42              		.thumb_func
  43              		.type	vStartCountingSemaphoreTasks, %function
  44              	vStartCountingSemaphoreTasks:
  45              	.LFB68:
ARM GAS  C:\Users\Jamie\AppData\Local\Temp\cc88ul3d.s 			page 2


  46              		.file 1 "..\\..\\Common\\Minimal\\countsem.c"
   1:..\..\Common\Minimal/countsem.c **** /*
   2:..\..\Common\Minimal/countsem.c ****  * FreeRTOS Kernel V10.0.1
   3:..\..\Common\Minimal/countsem.c ****  * Copyright (C) 2017 Amazon.com, Inc. or its affiliates.  All Rights Reserved.
   4:..\..\Common\Minimal/countsem.c ****  *
   5:..\..\Common\Minimal/countsem.c ****  * Permission is hereby granted, free of charge, to any person obtaining a copy of
   6:..\..\Common\Minimal/countsem.c ****  * this software and associated documentation files (the "Software"), to deal in
   7:..\..\Common\Minimal/countsem.c ****  * the Software without restriction, including without limitation the rights to
   8:..\..\Common\Minimal/countsem.c ****  * use, copy, modify, merge, publish, distribute, sublicense, and/or sell copies of
   9:..\..\Common\Minimal/countsem.c ****  * the Software, and to permit persons to whom the Software is furnished to do so,
  10:..\..\Common\Minimal/countsem.c ****  * subject to the following conditions:
  11:..\..\Common\Minimal/countsem.c ****  *
  12:..\..\Common\Minimal/countsem.c ****  * The above copyright notice and this permission notice shall be included in all
  13:..\..\Common\Minimal/countsem.c ****  * copies or substantial portions of the Software.
  14:..\..\Common\Minimal/countsem.c ****  *
  15:..\..\Common\Minimal/countsem.c ****  * THE SOFTWARE IS PROVIDED "AS IS", WITHOUT WARRANTY OF ANY KIND, EXPRESS OR
  16:..\..\Common\Minimal/countsem.c ****  * IMPLIED, INCLUDING BUT NOT LIMITED TO THE WARRANTIES OF MERCHANTABILITY, FITNESS
  17:..\..\Common\Minimal/countsem.c ****  * FOR A PARTICULAR PURPOSE AND NONINFRINGEMENT. IN NO EVENT SHALL THE AUTHORS OR
  18:..\..\Common\Minimal/countsem.c ****  * COPYRIGHT HOLDERS BE LIABLE FOR ANY CLAIM, DAMAGES OR OTHER LIABILITY, WHETHER
  19:..\..\Common\Minimal/countsem.c ****  * IN AN ACTION OF CONTRACT, TORT OR OTHERWISE, ARISING FROM, OUT OF OR IN
  20:..\..\Common\Minimal/countsem.c ****  * CONNECTION WITH THE SOFTWARE OR THE USE OR OTHER DEALINGS IN THE SOFTWARE.
  21:..\..\Common\Minimal/countsem.c ****  *
  22:..\..\Common\Minimal/countsem.c ****  * http://www.FreeRTOS.org
  23:..\..\Common\Minimal/countsem.c ****  * http://aws.amazon.com/freertos
  24:..\..\Common\Minimal/countsem.c ****  *
  25:..\..\Common\Minimal/countsem.c ****  * 1 tab == 4 spaces!
  26:..\..\Common\Minimal/countsem.c ****  */
  27:..\..\Common\Minimal/countsem.c **** 
  28:..\..\Common\Minimal/countsem.c **** 
  29:..\..\Common\Minimal/countsem.c **** /*
  30:..\..\Common\Minimal/countsem.c ****  * Simple demonstration of the usage of counting semaphore.
  31:..\..\Common\Minimal/countsem.c ****  */
  32:..\..\Common\Minimal/countsem.c **** 
  33:..\..\Common\Minimal/countsem.c **** /* Scheduler include files. */
  34:..\..\Common\Minimal/countsem.c **** #include "FreeRTOS.h"
  35:..\..\Common\Minimal/countsem.c **** #include "task.h"
  36:..\..\Common\Minimal/countsem.c **** #include "semphr.h"
  37:..\..\Common\Minimal/countsem.c **** 
  38:..\..\Common\Minimal/countsem.c **** /* Demo program include files. */
  39:..\..\Common\Minimal/countsem.c **** #include "countsem.h"
  40:..\..\Common\Minimal/countsem.c **** 
  41:..\..\Common\Minimal/countsem.c **** /* The maximum count value that the semaphore used for the demo can hold. */
  42:..\..\Common\Minimal/countsem.c **** #define countMAX_COUNT_VALUE	( 200 )
  43:..\..\Common\Minimal/countsem.c **** 
  44:..\..\Common\Minimal/countsem.c **** /* Constants used to indicate whether or not the semaphore should have been
  45:..\..\Common\Minimal/countsem.c **** created with its maximum count value, or its minimum count value.  These
  46:..\..\Common\Minimal/countsem.c **** numbers are used to ensure that the pointers passed in as the task parameters
  47:..\..\Common\Minimal/countsem.c **** are valid. */
  48:..\..\Common\Minimal/countsem.c **** #define countSTART_AT_MAX_COUNT	( 0xaa )
  49:..\..\Common\Minimal/countsem.c **** #define countSTART_AT_ZERO		( 0x55 )
  50:..\..\Common\Minimal/countsem.c **** 
  51:..\..\Common\Minimal/countsem.c **** /* Two tasks are created for the test.  One uses a semaphore created with its
  52:..\..\Common\Minimal/countsem.c **** count value set to the maximum, and one with the count value set to zero. */
  53:..\..\Common\Minimal/countsem.c **** #define countNUM_TEST_TASKS		( 2 )
  54:..\..\Common\Minimal/countsem.c **** #define countDONT_BLOCK			( 0 )
  55:..\..\Common\Minimal/countsem.c **** 
  56:..\..\Common\Minimal/countsem.c **** /*-----------------------------------------------------------*/
ARM GAS  C:\Users\Jamie\AppData\Local\Temp\cc88ul3d.s 			page 3


  57:..\..\Common\Minimal/countsem.c **** 
  58:..\..\Common\Minimal/countsem.c **** /* Flag that will be latched to pdTRUE should any unexpected behaviour be
  59:..\..\Common\Minimal/countsem.c **** detected in any of the tasks. */
  60:..\..\Common\Minimal/countsem.c **** static volatile BaseType_t xErrorDetected = pdFALSE;
  61:..\..\Common\Minimal/countsem.c **** 
  62:..\..\Common\Minimal/countsem.c **** /*-----------------------------------------------------------*/
  63:..\..\Common\Minimal/countsem.c **** 
  64:..\..\Common\Minimal/countsem.c **** /*
  65:..\..\Common\Minimal/countsem.c ****  * The demo task.  This simply counts the semaphore up to its maximum value,
  66:..\..\Common\Minimal/countsem.c ****  * the counts it back down again.  The result of each semaphore 'give' and
  67:..\..\Common\Minimal/countsem.c ****  * 'take' is inspected, with an error being flagged if it is found not to be
  68:..\..\Common\Minimal/countsem.c ****  * the expected result.
  69:..\..\Common\Minimal/countsem.c ****  */
  70:..\..\Common\Minimal/countsem.c **** static void prvCountingSemaphoreTask( void *pvParameters );
  71:..\..\Common\Minimal/countsem.c **** 
  72:..\..\Common\Minimal/countsem.c **** /*
  73:..\..\Common\Minimal/countsem.c ****  * Utility function to increment the semaphore count value up from zero to
  74:..\..\Common\Minimal/countsem.c ****  * countMAX_COUNT_VALUE.
  75:..\..\Common\Minimal/countsem.c ****  */
  76:..\..\Common\Minimal/countsem.c **** static void prvIncrementSemaphoreCount( SemaphoreHandle_t xSemaphore, volatile UBaseType_t *puxLoop
  77:..\..\Common\Minimal/countsem.c **** 
  78:..\..\Common\Minimal/countsem.c **** /*
  79:..\..\Common\Minimal/countsem.c ****  * Utility function to decrement the semaphore count value up from
  80:..\..\Common\Minimal/countsem.c ****  * countMAX_COUNT_VALUE to zero.
  81:..\..\Common\Minimal/countsem.c ****  */
  82:..\..\Common\Minimal/countsem.c **** static void prvDecrementSemaphoreCount( SemaphoreHandle_t xSemaphore, volatile UBaseType_t *puxLoop
  83:..\..\Common\Minimal/countsem.c **** 
  84:..\..\Common\Minimal/countsem.c **** /*-----------------------------------------------------------*/
  85:..\..\Common\Minimal/countsem.c **** 
  86:..\..\Common\Minimal/countsem.c **** /* The structure that is passed into the task as the task parameter. */
  87:..\..\Common\Minimal/countsem.c **** typedef struct COUNT_SEM_STRUCT
  88:..\..\Common\Minimal/countsem.c **** {
  89:..\..\Common\Minimal/countsem.c **** 	/* The semaphore to be used for the demo. */
  90:..\..\Common\Minimal/countsem.c **** 	SemaphoreHandle_t xSemaphore;
  91:..\..\Common\Minimal/countsem.c **** 
  92:..\..\Common\Minimal/countsem.c **** 	/* Set to countSTART_AT_MAX_COUNT if the semaphore should be created with
  93:..\..\Common\Minimal/countsem.c **** 	its count value set to its max count value, or countSTART_AT_ZERO if it
  94:..\..\Common\Minimal/countsem.c **** 	should have been created with its count value set to 0. */
  95:..\..\Common\Minimal/countsem.c **** 	UBaseType_t uxExpectedStartCount;
  96:..\..\Common\Minimal/countsem.c **** 
  97:..\..\Common\Minimal/countsem.c **** 	/* Incremented on each cycle of the demo task.  Used to detect a stalled
  98:..\..\Common\Minimal/countsem.c **** 	task. */
  99:..\..\Common\Minimal/countsem.c **** 	volatile UBaseType_t uxLoopCounter;
 100:..\..\Common\Minimal/countsem.c **** } xCountSemStruct;
 101:..\..\Common\Minimal/countsem.c **** 
 102:..\..\Common\Minimal/countsem.c **** /* Two structures are defined, one is passed to each test task. */
 103:..\..\Common\Minimal/countsem.c **** static xCountSemStruct xParameters[ countNUM_TEST_TASKS ];
 104:..\..\Common\Minimal/countsem.c **** 
 105:..\..\Common\Minimal/countsem.c **** /*-----------------------------------------------------------*/
 106:..\..\Common\Minimal/countsem.c **** 
 107:..\..\Common\Minimal/countsem.c **** void vStartCountingSemaphoreTasks( void )
 108:..\..\Common\Minimal/countsem.c **** {
  47              		.loc 1 108 0
  48              		.cfi_startproc
  49              		@ args = 0, pretend = 0, frame = 0
  50              		@ frame_needed = 1, uses_anonymous_args = 0
  51 0000 80B5     		push	{r7, lr}
ARM GAS  C:\Users\Jamie\AppData\Local\Temp\cc88ul3d.s 			page 4


  52              		.cfi_def_cfa_offset 8
  53              		.cfi_offset 7, -8
  54              		.cfi_offset 14, -4
  55 0002 82B0     		sub	sp, sp, #8
  56              		.cfi_def_cfa_offset 16
  57 0004 02AF     		add	r7, sp, #8
  58              		.cfi_def_cfa 7, 8
 109:..\..\Common\Minimal/countsem.c **** 	/* Create the semaphores that we are going to use for the test/demo.  The
 110:..\..\Common\Minimal/countsem.c **** 	first should be created such that it starts at its maximum count value,
 111:..\..\Common\Minimal/countsem.c **** 	the second should be created such that it starts with a count value of zero. */
 112:..\..\Common\Minimal/countsem.c **** 	xParameters[ 0 ].xSemaphore = xSemaphoreCreateCounting( countMAX_COUNT_VALUE, countMAX_COUNT_VALUE
  59              		.loc 1 112 0
  60 0006 C820     		movs	r0, #200
  61 0008 C821     		movs	r1, #200
  62 000a FFF7FEFF 		bl	xQueueCreateCountingSemaphore
  63 000e 0246     		mov	r2, r0
  64 0010 1F4B     		ldr	r3, .L4
  65 0012 1A60     		str	r2, [r3]
 113:..\..\Common\Minimal/countsem.c **** 	xParameters[ 0 ].uxExpectedStartCount = countSTART_AT_MAX_COUNT;
  66              		.loc 1 113 0
  67 0014 1E4B     		ldr	r3, .L4
  68 0016 AA22     		movs	r2, #170
  69 0018 5A60     		str	r2, [r3, #4]
 114:..\..\Common\Minimal/countsem.c **** 	xParameters[ 0 ].uxLoopCounter = 0;
  70              		.loc 1 114 0
  71 001a 1D4B     		ldr	r3, .L4
  72 001c 0022     		movs	r2, #0
  73 001e 9A60     		str	r2, [r3, #8]
 115:..\..\Common\Minimal/countsem.c **** 
 116:..\..\Common\Minimal/countsem.c **** 	xParameters[ 1 ].xSemaphore = xSemaphoreCreateCounting( countMAX_COUNT_VALUE, 0 );
  74              		.loc 1 116 0
  75 0020 C820     		movs	r0, #200
  76 0022 0021     		movs	r1, #0
  77 0024 FFF7FEFF 		bl	xQueueCreateCountingSemaphore
  78 0028 0246     		mov	r2, r0
  79 002a 194B     		ldr	r3, .L4
  80 002c DA60     		str	r2, [r3, #12]
 117:..\..\Common\Minimal/countsem.c **** 	xParameters[ 1 ].uxExpectedStartCount = 0;
  81              		.loc 1 117 0
  82 002e 184B     		ldr	r3, .L4
  83 0030 0022     		movs	r2, #0
  84 0032 1A61     		str	r2, [r3, #16]
 118:..\..\Common\Minimal/countsem.c **** 	xParameters[ 1 ].uxLoopCounter = 0;
  85              		.loc 1 118 0
  86 0034 164B     		ldr	r3, .L4
  87 0036 0022     		movs	r2, #0
  88 0038 5A61     		str	r2, [r3, #20]
 119:..\..\Common\Minimal/countsem.c **** 
 120:..\..\Common\Minimal/countsem.c **** 	/* Were the semaphores created? */
 121:..\..\Common\Minimal/countsem.c **** 	if( ( xParameters[ 0 ].xSemaphore != NULL ) || ( xParameters[ 1 ].xSemaphore != NULL ) )
  89              		.loc 1 121 0
  90 003a 154B     		ldr	r3, .L4
  91 003c 1B68     		ldr	r3, [r3]
  92 003e 002B     		cmp	r3, #0
  93 0040 03D1     		bne	.L2
  94              		.loc 1 121 0 is_stmt 0 discriminator 1
  95 0042 134B     		ldr	r3, .L4
ARM GAS  C:\Users\Jamie\AppData\Local\Temp\cc88ul3d.s 			page 5


  96 0044 DB68     		ldr	r3, [r3, #12]
  97 0046 002B     		cmp	r3, #0
  98 0048 1FD0     		beq	.L1
  99              	.L2:
 122:..\..\Common\Minimal/countsem.c **** 	{
 123:..\..\Common\Minimal/countsem.c **** 		/* vQueueAddToRegistry() adds the semaphore to the registry, if one is
 124:..\..\Common\Minimal/countsem.c **** 		in use.  The registry is provided as a means for kernel aware
 125:..\..\Common\Minimal/countsem.c **** 		debuggers to locate semaphores and has no purpose if a kernel aware
 126:..\..\Common\Minimal/countsem.c **** 		debugger is not being used.  The call to vQueueAddToRegistry() will be
 127:..\..\Common\Minimal/countsem.c **** 		removed by the pre-processor if configQUEUE_REGISTRY_SIZE is not
 128:..\..\Common\Minimal/countsem.c **** 		defined or is defined to be less than 1. */
 129:..\..\Common\Minimal/countsem.c **** 		vQueueAddToRegistry( ( QueueHandle_t ) xParameters[ 0 ].xSemaphore, "Counting_Sem_1" );
 100              		.loc 1 129 0 is_stmt 1
 101 004a 114B     		ldr	r3, .L4
 102 004c 1B68     		ldr	r3, [r3]
 103 004e 1846     		mov	r0, r3
 104 0050 1049     		ldr	r1, .L4+4
 105 0052 FFF7FEFF 		bl	vQueueAddToRegistry
 130:..\..\Common\Minimal/countsem.c **** 		vQueueAddToRegistry( ( QueueHandle_t ) xParameters[ 1 ].xSemaphore, "Counting_Sem_2" );
 106              		.loc 1 130 0
 107 0056 0E4B     		ldr	r3, .L4
 108 0058 DB68     		ldr	r3, [r3, #12]
 109 005a 1846     		mov	r0, r3
 110 005c 0E49     		ldr	r1, .L4+8
 111 005e FFF7FEFF 		bl	vQueueAddToRegistry
 131:..\..\Common\Minimal/countsem.c **** 
 132:..\..\Common\Minimal/countsem.c **** 		/* Create the demo tasks, passing in the semaphore to use as the parameter. */
 133:..\..\Common\Minimal/countsem.c **** 		xTaskCreate( prvCountingSemaphoreTask, "CNT1", configMINIMAL_STACK_SIZE, ( void * ) &( xParameter
 112              		.loc 1 133 0
 113 0062 0023     		movs	r3, #0
 114 0064 0093     		str	r3, [sp]
 115 0066 0023     		movs	r3, #0
 116 0068 0193     		str	r3, [sp, #4]
 117 006a 0C48     		ldr	r0, .L4+12
 118 006c 0C49     		ldr	r1, .L4+16
 119 006e 6422     		movs	r2, #100
 120 0070 074B     		ldr	r3, .L4
 121 0072 FFF7FEFF 		bl	xTaskCreate
 134:..\..\Common\Minimal/countsem.c **** 		xTaskCreate( prvCountingSemaphoreTask, "CNT2", configMINIMAL_STACK_SIZE, ( void * ) &( xParameter
 122              		.loc 1 134 0
 123 0076 0023     		movs	r3, #0
 124 0078 0093     		str	r3, [sp]
 125 007a 0023     		movs	r3, #0
 126 007c 0193     		str	r3, [sp, #4]
 127 007e 0748     		ldr	r0, .L4+12
 128 0080 0849     		ldr	r1, .L4+20
 129 0082 6422     		movs	r2, #100
 130 0084 084B     		ldr	r3, .L4+24
 131 0086 FFF7FEFF 		bl	xTaskCreate
 132              	.L1:
 135:..\..\Common\Minimal/countsem.c **** 	}
 136:..\..\Common\Minimal/countsem.c **** }
 133              		.loc 1 136 0
 134 008a BD46     		mov	sp, r7
 135              		.cfi_def_cfa_register 13
 136              		@ sp needed
 137 008c 80BD     		pop	{r7, pc}
ARM GAS  C:\Users\Jamie\AppData\Local\Temp\cc88ul3d.s 			page 6


 138              	.L5:
 139 008e 00BF     		.align	2
 140              	.L4:
 141 0090 04000000 		.word	xParameters
 142 0094 00000000 		.word	.LC0
 143 0098 10000000 		.word	.LC1
 144 009c 00000000 		.word	prvCountingSemaphoreTask
 145 00a0 20000000 		.word	.LC2
 146 00a4 28000000 		.word	.LC3
 147 00a8 10000000 		.word	xParameters+12
 148              		.cfi_endproc
 149              	.LFE68:
 150              		.size	vStartCountingSemaphoreTasks, .-vStartCountingSemaphoreTasks
 151              		.section	.text.prvDecrementSemaphoreCount,"ax",%progbits
 152              		.align	2
 153              		.thumb
 154              		.thumb_func
 155              		.type	prvDecrementSemaphoreCount, %function
 156              	prvDecrementSemaphoreCount:
 157              	.LFB69:
 137:..\..\Common\Minimal/countsem.c **** /*-----------------------------------------------------------*/
 138:..\..\Common\Minimal/countsem.c **** 
 139:..\..\Common\Minimal/countsem.c **** static void prvDecrementSemaphoreCount( SemaphoreHandle_t xSemaphore, volatile UBaseType_t *puxLoop
 140:..\..\Common\Minimal/countsem.c **** {
 158              		.loc 1 140 0
 159              		.cfi_startproc
 160              		@ args = 0, pretend = 0, frame = 16
 161              		@ frame_needed = 1, uses_anonymous_args = 0
 162 0000 80B5     		push	{r7, lr}
 163              		.cfi_def_cfa_offset 8
 164              		.cfi_offset 7, -8
 165              		.cfi_offset 14, -4
 166 0002 84B0     		sub	sp, sp, #16
 167              		.cfi_def_cfa_offset 24
 168 0004 00AF     		add	r7, sp, #0
 169              		.cfi_def_cfa_register 7
 170 0006 7860     		str	r0, [r7, #4]
 171 0008 3960     		str	r1, [r7]
 141:..\..\Common\Minimal/countsem.c **** UBaseType_t ux;
 142:..\..\Common\Minimal/countsem.c **** 
 143:..\..\Common\Minimal/countsem.c **** 	/* If the semaphore count is at its maximum then we should not be able to
 144:..\..\Common\Minimal/countsem.c **** 	'give' the semaphore. */
 145:..\..\Common\Minimal/countsem.c **** 	if( xSemaphoreGive( xSemaphore ) == pdPASS )
 172              		.loc 1 145 0
 173 000a 7868     		ldr	r0, [r7, #4]
 174 000c 0021     		movs	r1, #0
 175 000e 0022     		movs	r2, #0
 176 0010 0023     		movs	r3, #0
 177 0012 FFF7FEFF 		bl	xQueueGenericSend
 178 0016 0346     		mov	r3, r0
 179 0018 012B     		cmp	r3, #1
 180 001a 02D1     		bne	.L7
 146:..\..\Common\Minimal/countsem.c **** 	{
 147:..\..\Common\Minimal/countsem.c **** 		xErrorDetected = pdTRUE;
 181              		.loc 1 147 0
 182 001c 134B     		ldr	r3, .L12
 183 001e 0122     		movs	r2, #1
ARM GAS  C:\Users\Jamie\AppData\Local\Temp\cc88ul3d.s 			page 7


 184 0020 1A60     		str	r2, [r3]
 185              	.L7:
 148:..\..\Common\Minimal/countsem.c **** 	}
 149:..\..\Common\Minimal/countsem.c **** 
 150:..\..\Common\Minimal/countsem.c **** 	/* We should be able to 'take' the semaphore countMAX_COUNT_VALUE times. */
 151:..\..\Common\Minimal/countsem.c **** 	for( ux = 0; ux < countMAX_COUNT_VALUE; ux++ )
 186              		.loc 1 151 0
 187 0022 0023     		movs	r3, #0
 188 0024 FB60     		str	r3, [r7, #12]
 189 0026 11E0     		b	.L8
 190              	.L10:
 152:..\..\Common\Minimal/countsem.c **** 	{
 153:..\..\Common\Minimal/countsem.c **** 		configASSERT( uxSemaphoreGetCount( xSemaphore ) == ( countMAX_COUNT_VALUE - ux ) );
 154:..\..\Common\Minimal/countsem.c **** 
 155:..\..\Common\Minimal/countsem.c **** 		if( xSemaphoreTake( xSemaphore, countDONT_BLOCK ) != pdPASS )
 191              		.loc 1 155 0
 192 0028 7868     		ldr	r0, [r7, #4]
 193 002a 0021     		movs	r1, #0
 194 002c FFF7FEFF 		bl	xQueueSemaphoreTake
 195 0030 0346     		mov	r3, r0
 196 0032 012B     		cmp	r3, #1
 197 0034 02D0     		beq	.L9
 156:..\..\Common\Minimal/countsem.c **** 		{
 157:..\..\Common\Minimal/countsem.c **** 			/* We expected to be able to take the semaphore. */
 158:..\..\Common\Minimal/countsem.c **** 			xErrorDetected = pdTRUE;
 198              		.loc 1 158 0
 199 0036 0D4B     		ldr	r3, .L12
 200 0038 0122     		movs	r2, #1
 201 003a 1A60     		str	r2, [r3]
 202              	.L9:
 159:..\..\Common\Minimal/countsem.c **** 		}
 160:..\..\Common\Minimal/countsem.c **** 
 161:..\..\Common\Minimal/countsem.c **** 		( *puxLoopCounter )++;
 203              		.loc 1 161 0 discriminator 2
 204 003c 3B68     		ldr	r3, [r7]
 205 003e 1B68     		ldr	r3, [r3]
 206 0040 5A1C     		adds	r2, r3, #1
 207 0042 3B68     		ldr	r3, [r7]
 208 0044 1A60     		str	r2, [r3]
 151:..\..\Common\Minimal/countsem.c **** 	{
 209              		.loc 1 151 0 discriminator 2
 210 0046 FB68     		ldr	r3, [r7, #12]
 211 0048 0133     		adds	r3, r3, #1
 212 004a FB60     		str	r3, [r7, #12]
 213              	.L8:
 151:..\..\Common\Minimal/countsem.c **** 	{
 214              		.loc 1 151 0 is_stmt 0 discriminator 1
 215 004c FB68     		ldr	r3, [r7, #12]
 216 004e C72B     		cmp	r3, #199
 217 0050 EAD9     		bls	.L10
 162:..\..\Common\Minimal/countsem.c **** 	}
 163:..\..\Common\Minimal/countsem.c **** 
 164:..\..\Common\Minimal/countsem.c **** 	#if configUSE_PREEMPTION == 0
 165:..\..\Common\Minimal/countsem.c **** 		taskYIELD();
 166:..\..\Common\Minimal/countsem.c **** 	#endif
 167:..\..\Common\Minimal/countsem.c **** 
 168:..\..\Common\Minimal/countsem.c **** 	/* If the semaphore count is zero then we should not be able to	'take'
ARM GAS  C:\Users\Jamie\AppData\Local\Temp\cc88ul3d.s 			page 8


 169:..\..\Common\Minimal/countsem.c **** 	the semaphore. */
 170:..\..\Common\Minimal/countsem.c **** 	configASSERT( uxSemaphoreGetCount( xSemaphore ) == 0 );
 171:..\..\Common\Minimal/countsem.c **** 	if( xSemaphoreTake( xSemaphore, countDONT_BLOCK ) == pdPASS )
 218              		.loc 1 171 0 is_stmt 1
 219 0052 7868     		ldr	r0, [r7, #4]
 220 0054 0021     		movs	r1, #0
 221 0056 FFF7FEFF 		bl	xQueueSemaphoreTake
 222 005a 0346     		mov	r3, r0
 223 005c 012B     		cmp	r3, #1
 224 005e 02D1     		bne	.L6
 172:..\..\Common\Minimal/countsem.c **** 	{
 173:..\..\Common\Minimal/countsem.c **** 		xErrorDetected = pdTRUE;
 225              		.loc 1 173 0
 226 0060 024B     		ldr	r3, .L12
 227 0062 0122     		movs	r2, #1
 228 0064 1A60     		str	r2, [r3]
 229              	.L6:
 174:..\..\Common\Minimal/countsem.c **** 	}
 175:..\..\Common\Minimal/countsem.c **** }
 230              		.loc 1 175 0
 231 0066 1037     		adds	r7, r7, #16
 232              		.cfi_def_cfa_offset 8
 233 0068 BD46     		mov	sp, r7
 234              		.cfi_def_cfa_register 13
 235              		@ sp needed
 236 006a 80BD     		pop	{r7, pc}
 237              	.L13:
 238              		.align	2
 239              	.L12:
 240 006c 00000000 		.word	xErrorDetected
 241              		.cfi_endproc
 242              	.LFE69:
 243              		.size	prvDecrementSemaphoreCount, .-prvDecrementSemaphoreCount
 244              		.section	.text.prvIncrementSemaphoreCount,"ax",%progbits
 245              		.align	2
 246              		.thumb
 247              		.thumb_func
 248              		.type	prvIncrementSemaphoreCount, %function
 249              	prvIncrementSemaphoreCount:
 250              	.LFB70:
 176:..\..\Common\Minimal/countsem.c **** /*-----------------------------------------------------------*/
 177:..\..\Common\Minimal/countsem.c **** 
 178:..\..\Common\Minimal/countsem.c **** static void prvIncrementSemaphoreCount( SemaphoreHandle_t xSemaphore, volatile UBaseType_t *puxLoop
 179:..\..\Common\Minimal/countsem.c **** {
 251              		.loc 1 179 0
 252              		.cfi_startproc
 253              		@ args = 0, pretend = 0, frame = 16
 254              		@ frame_needed = 1, uses_anonymous_args = 0
 255 0000 80B5     		push	{r7, lr}
 256              		.cfi_def_cfa_offset 8
 257              		.cfi_offset 7, -8
 258              		.cfi_offset 14, -4
 259 0002 84B0     		sub	sp, sp, #16
 260              		.cfi_def_cfa_offset 24
 261 0004 00AF     		add	r7, sp, #0
 262              		.cfi_def_cfa_register 7
 263 0006 7860     		str	r0, [r7, #4]
ARM GAS  C:\Users\Jamie\AppData\Local\Temp\cc88ul3d.s 			page 9


 264 0008 3960     		str	r1, [r7]
 180:..\..\Common\Minimal/countsem.c **** UBaseType_t ux;
 181:..\..\Common\Minimal/countsem.c **** 
 182:..\..\Common\Minimal/countsem.c **** 	/* If the semaphore count is zero then we should not be able to	'take'
 183:..\..\Common\Minimal/countsem.c **** 	the semaphore. */
 184:..\..\Common\Minimal/countsem.c **** 	if( xSemaphoreTake( xSemaphore, countDONT_BLOCK ) == pdPASS )
 265              		.loc 1 184 0
 266 000a 7868     		ldr	r0, [r7, #4]
 267 000c 0021     		movs	r1, #0
 268 000e FFF7FEFF 		bl	xQueueSemaphoreTake
 269 0012 0346     		mov	r3, r0
 270 0014 012B     		cmp	r3, #1
 271 0016 02D1     		bne	.L15
 185:..\..\Common\Minimal/countsem.c **** 	{
 186:..\..\Common\Minimal/countsem.c **** 		xErrorDetected = pdTRUE;
 272              		.loc 1 186 0
 273 0018 154B     		ldr	r3, .L20
 274 001a 0122     		movs	r2, #1
 275 001c 1A60     		str	r2, [r3]
 276              	.L15:
 187:..\..\Common\Minimal/countsem.c **** 	}
 188:..\..\Common\Minimal/countsem.c **** 
 189:..\..\Common\Minimal/countsem.c **** 	/* We should be able to 'give' the semaphore countMAX_COUNT_VALUE times. */
 190:..\..\Common\Minimal/countsem.c **** 	for( ux = 0; ux < countMAX_COUNT_VALUE; ux++ )
 277              		.loc 1 190 0
 278 001e 0023     		movs	r3, #0
 279 0020 FB60     		str	r3, [r7, #12]
 280 0022 13E0     		b	.L16
 281              	.L18:
 191:..\..\Common\Minimal/countsem.c **** 	{
 192:..\..\Common\Minimal/countsem.c **** 		configASSERT( uxSemaphoreGetCount( xSemaphore ) == ux );
 193:..\..\Common\Minimal/countsem.c **** 
 194:..\..\Common\Minimal/countsem.c **** 		if( xSemaphoreGive( xSemaphore ) != pdPASS )
 282              		.loc 1 194 0
 283 0024 7868     		ldr	r0, [r7, #4]
 284 0026 0021     		movs	r1, #0
 285 0028 0022     		movs	r2, #0
 286 002a 0023     		movs	r3, #0
 287 002c FFF7FEFF 		bl	xQueueGenericSend
 288 0030 0346     		mov	r3, r0
 289 0032 012B     		cmp	r3, #1
 290 0034 02D0     		beq	.L17
 195:..\..\Common\Minimal/countsem.c **** 		{
 196:..\..\Common\Minimal/countsem.c **** 			/* We expected to be able to take the semaphore. */
 197:..\..\Common\Minimal/countsem.c **** 			xErrorDetected = pdTRUE;
 291              		.loc 1 197 0
 292 0036 0E4B     		ldr	r3, .L20
 293 0038 0122     		movs	r2, #1
 294 003a 1A60     		str	r2, [r3]
 295              	.L17:
 198:..\..\Common\Minimal/countsem.c **** 		}
 199:..\..\Common\Minimal/countsem.c **** 
 200:..\..\Common\Minimal/countsem.c **** 		( *puxLoopCounter )++;
 296              		.loc 1 200 0 discriminator 2
 297 003c 3B68     		ldr	r3, [r7]
 298 003e 1B68     		ldr	r3, [r3]
 299 0040 5A1C     		adds	r2, r3, #1
ARM GAS  C:\Users\Jamie\AppData\Local\Temp\cc88ul3d.s 			page 10


 300 0042 3B68     		ldr	r3, [r7]
 301 0044 1A60     		str	r2, [r3]
 190:..\..\Common\Minimal/countsem.c **** 	{
 302              		.loc 1 190 0 discriminator 2
 303 0046 FB68     		ldr	r3, [r7, #12]
 304 0048 0133     		adds	r3, r3, #1
 305 004a FB60     		str	r3, [r7, #12]
 306              	.L16:
 190:..\..\Common\Minimal/countsem.c **** 	{
 307              		.loc 1 190 0 is_stmt 0 discriminator 1
 308 004c FB68     		ldr	r3, [r7, #12]
 309 004e C72B     		cmp	r3, #199
 310 0050 E8D9     		bls	.L18
 201:..\..\Common\Minimal/countsem.c **** 	}
 202:..\..\Common\Minimal/countsem.c **** 
 203:..\..\Common\Minimal/countsem.c **** 	#if configUSE_PREEMPTION == 0
 204:..\..\Common\Minimal/countsem.c **** 		taskYIELD();
 205:..\..\Common\Minimal/countsem.c **** 	#endif
 206:..\..\Common\Minimal/countsem.c **** 
 207:..\..\Common\Minimal/countsem.c **** 	/* If the semaphore count is at its maximum then we should not be able to
 208:..\..\Common\Minimal/countsem.c **** 	'give' the semaphore. */
 209:..\..\Common\Minimal/countsem.c **** 	if( xSemaphoreGive( xSemaphore ) == pdPASS )
 311              		.loc 1 209 0 is_stmt 1
 312 0052 7868     		ldr	r0, [r7, #4]
 313 0054 0021     		movs	r1, #0
 314 0056 0022     		movs	r2, #0
 315 0058 0023     		movs	r3, #0
 316 005a FFF7FEFF 		bl	xQueueGenericSend
 317 005e 0346     		mov	r3, r0
 318 0060 012B     		cmp	r3, #1
 319 0062 02D1     		bne	.L14
 210:..\..\Common\Minimal/countsem.c **** 	{
 211:..\..\Common\Minimal/countsem.c **** 		xErrorDetected = pdTRUE;
 320              		.loc 1 211 0
 321 0064 024B     		ldr	r3, .L20
 322 0066 0122     		movs	r2, #1
 323 0068 1A60     		str	r2, [r3]
 324              	.L14:
 212:..\..\Common\Minimal/countsem.c **** 	}
 213:..\..\Common\Minimal/countsem.c **** }
 325              		.loc 1 213 0
 326 006a 1037     		adds	r7, r7, #16
 327              		.cfi_def_cfa_offset 8
 328 006c BD46     		mov	sp, r7
 329              		.cfi_def_cfa_register 13
 330              		@ sp needed
 331 006e 80BD     		pop	{r7, pc}
 332              	.L21:
 333              		.align	2
 334              	.L20:
 335 0070 00000000 		.word	xErrorDetected
 336              		.cfi_endproc
 337              	.LFE70:
 338              		.size	prvIncrementSemaphoreCount, .-prvIncrementSemaphoreCount
 339              		.section	.text.prvCountingSemaphoreTask,"ax",%progbits
 340              		.align	2
 341              		.thumb
ARM GAS  C:\Users\Jamie\AppData\Local\Temp\cc88ul3d.s 			page 11


 342              		.thumb_func
 343              		.type	prvCountingSemaphoreTask, %function
 344              	prvCountingSemaphoreTask:
 345              	.LFB71:
 214:..\..\Common\Minimal/countsem.c **** /*-----------------------------------------------------------*/
 215:..\..\Common\Minimal/countsem.c **** 
 216:..\..\Common\Minimal/countsem.c **** static void prvCountingSemaphoreTask( void *pvParameters )
 217:..\..\Common\Minimal/countsem.c **** {
 346              		.loc 1 217 0
 347              		.cfi_startproc
 348              		@ args = 0, pretend = 0, frame = 16
 349              		@ frame_needed = 1, uses_anonymous_args = 0
 350 0000 80B5     		push	{r7, lr}
 351              		.cfi_def_cfa_offset 8
 352              		.cfi_offset 7, -8
 353              		.cfi_offset 14, -4
 354 0002 84B0     		sub	sp, sp, #16
 355              		.cfi_def_cfa_offset 24
 356 0004 00AF     		add	r7, sp, #0
 357              		.cfi_def_cfa_register 7
 358 0006 7860     		str	r0, [r7, #4]
 218:..\..\Common\Minimal/countsem.c **** xCountSemStruct *pxParameter;
 219:..\..\Common\Minimal/countsem.c **** 
 220:..\..\Common\Minimal/countsem.c **** 	#ifdef USE_STDIO
 221:..\..\Common\Minimal/countsem.c **** 	void vPrintDisplayMessage( const char * const * ppcMessageToSend );
 222:..\..\Common\Minimal/countsem.c **** 
 223:..\..\Common\Minimal/countsem.c **** 		const char * const pcTaskStartMsg = "Counting semaphore demo started.\r\n";
 224:..\..\Common\Minimal/countsem.c **** 
 225:..\..\Common\Minimal/countsem.c **** 		/* Queue a message for printing to say the task has started. */
 226:..\..\Common\Minimal/countsem.c **** 		vPrintDisplayMessage( &pcTaskStartMsg );
 227:..\..\Common\Minimal/countsem.c **** 	#endif
 228:..\..\Common\Minimal/countsem.c **** 
 229:..\..\Common\Minimal/countsem.c **** 	/* The semaphore to be used was passed as the parameter. */
 230:..\..\Common\Minimal/countsem.c **** 	pxParameter = ( xCountSemStruct * ) pvParameters;
 359              		.loc 1 230 0
 360 0008 7B68     		ldr	r3, [r7, #4]
 361 000a FB60     		str	r3, [r7, #12]
 231:..\..\Common\Minimal/countsem.c **** 
 232:..\..\Common\Minimal/countsem.c **** 	/* Did we expect to find the semaphore already at its max count value, or
 233:..\..\Common\Minimal/countsem.c **** 	at zero? */
 234:..\..\Common\Minimal/countsem.c **** 	if( pxParameter->uxExpectedStartCount == countSTART_AT_MAX_COUNT )
 362              		.loc 1 234 0
 363 000c FB68     		ldr	r3, [r7, #12]
 364 000e 5B68     		ldr	r3, [r3, #4]
 365 0010 AA2B     		cmp	r3, #170
 366 0012 07D1     		bne	.L23
 235:..\..\Common\Minimal/countsem.c **** 	{
 236:..\..\Common\Minimal/countsem.c **** 		prvDecrementSemaphoreCount( pxParameter->xSemaphore, &( pxParameter->uxLoopCounter ) );
 367              		.loc 1 236 0
 368 0014 FB68     		ldr	r3, [r7, #12]
 369 0016 1A68     		ldr	r2, [r3]
 370 0018 FB68     		ldr	r3, [r7, #12]
 371 001a 0833     		adds	r3, r3, #8
 372 001c 1046     		mov	r0, r2
 373 001e 1946     		mov	r1, r3
 374 0020 FFF7FEFF 		bl	prvDecrementSemaphoreCount
 375              	.L23:
ARM GAS  C:\Users\Jamie\AppData\Local\Temp\cc88ul3d.s 			page 12


 237:..\..\Common\Minimal/countsem.c **** 	}
 238:..\..\Common\Minimal/countsem.c **** 
 239:..\..\Common\Minimal/countsem.c **** 	/* Now we expect the semaphore count to be 0, so this time there is an
 240:..\..\Common\Minimal/countsem.c **** 	error if we can take the semaphore. */
 241:..\..\Common\Minimal/countsem.c **** 	if( xSemaphoreTake( pxParameter->xSemaphore, 0 ) == pdPASS )
 376              		.loc 1 241 0
 377 0024 FB68     		ldr	r3, [r7, #12]
 378 0026 1B68     		ldr	r3, [r3]
 379 0028 1846     		mov	r0, r3
 380 002a 0021     		movs	r1, #0
 381 002c FFF7FEFF 		bl	xQueueSemaphoreTake
 382 0030 0346     		mov	r3, r0
 383 0032 012B     		cmp	r3, #1
 384 0034 02D1     		bne	.L24
 242:..\..\Common\Minimal/countsem.c **** 	{
 243:..\..\Common\Minimal/countsem.c **** 		xErrorDetected = pdTRUE;
 385              		.loc 1 243 0
 386 0036 0A4B     		ldr	r3, .L25
 387 0038 0122     		movs	r2, #1
 388 003a 1A60     		str	r2, [r3]
 389              	.L24:
 244:..\..\Common\Minimal/countsem.c **** 	}
 245:..\..\Common\Minimal/countsem.c **** 
 246:..\..\Common\Minimal/countsem.c **** 	for( ;; )
 247:..\..\Common\Minimal/countsem.c **** 	{
 248:..\..\Common\Minimal/countsem.c **** 		prvIncrementSemaphoreCount( pxParameter->xSemaphore, &( pxParameter->uxLoopCounter ) );
 390              		.loc 1 248 0 discriminator 1
 391 003c FB68     		ldr	r3, [r7, #12]
 392 003e 1A68     		ldr	r2, [r3]
 393 0040 FB68     		ldr	r3, [r7, #12]
 394 0042 0833     		adds	r3, r3, #8
 395 0044 1046     		mov	r0, r2
 396 0046 1946     		mov	r1, r3
 397 0048 FFF7FEFF 		bl	prvIncrementSemaphoreCount
 249:..\..\Common\Minimal/countsem.c **** 		prvDecrementSemaphoreCount( pxParameter->xSemaphore, &( pxParameter->uxLoopCounter ) );
 398              		.loc 1 249 0 discriminator 1
 399 004c FB68     		ldr	r3, [r7, #12]
 400 004e 1A68     		ldr	r2, [r3]
 401 0050 FB68     		ldr	r3, [r7, #12]
 402 0052 0833     		adds	r3, r3, #8
 403 0054 1046     		mov	r0, r2
 404 0056 1946     		mov	r1, r3
 405 0058 FFF7FEFF 		bl	prvDecrementSemaphoreCount
 250:..\..\Common\Minimal/countsem.c **** 	}
 406              		.loc 1 250 0 discriminator 1
 407 005c EEE7     		b	.L24
 408              	.L26:
 409 005e 00BF     		.align	2
 410              	.L25:
 411 0060 00000000 		.word	xErrorDetected
 412              		.cfi_endproc
 413              	.LFE71:
 414              		.size	prvCountingSemaphoreTask, .-prvCountingSemaphoreTask
 415              		.section	.text.xAreCountingSemaphoreTasksStillRunning,"ax",%progbits
 416              		.align	2
 417              		.global	xAreCountingSemaphoreTasksStillRunning
 418              		.thumb
ARM GAS  C:\Users\Jamie\AppData\Local\Temp\cc88ul3d.s 			page 13


 419              		.thumb_func
 420              		.type	xAreCountingSemaphoreTasksStillRunning, %function
 421              	xAreCountingSemaphoreTasksStillRunning:
 422              	.LFB72:
 251:..\..\Common\Minimal/countsem.c **** }
 252:..\..\Common\Minimal/countsem.c **** /*-----------------------------------------------------------*/
 253:..\..\Common\Minimal/countsem.c **** 
 254:..\..\Common\Minimal/countsem.c **** BaseType_t xAreCountingSemaphoreTasksStillRunning( void )
 255:..\..\Common\Minimal/countsem.c **** {
 423              		.loc 1 255 0
 424              		.cfi_startproc
 425              		@ args = 0, pretend = 0, frame = 8
 426              		@ frame_needed = 1, uses_anonymous_args = 0
 427              		@ link register save eliminated.
 428 0000 80B4     		push	{r7}
 429              		.cfi_def_cfa_offset 4
 430              		.cfi_offset 7, -4
 431 0002 83B0     		sub	sp, sp, #12
 432              		.cfi_def_cfa_offset 16
 433 0004 00AF     		add	r7, sp, #0
 434              		.cfi_def_cfa_register 7
 256:..\..\Common\Minimal/countsem.c **** static UBaseType_t uxLastCount0 = 0, uxLastCount1 = 0;
 257:..\..\Common\Minimal/countsem.c **** BaseType_t xReturn = pdPASS;
 435              		.loc 1 257 0
 436 0006 0123     		movs	r3, #1
 437 0008 7B60     		str	r3, [r7, #4]
 258:..\..\Common\Minimal/countsem.c **** 
 259:..\..\Common\Minimal/countsem.c **** 	/* Return fail if any 'give' or 'take' did not result in the expected
 260:..\..\Common\Minimal/countsem.c **** 	behaviour. */
 261:..\..\Common\Minimal/countsem.c **** 	if( xErrorDetected != pdFALSE )
 438              		.loc 1 261 0
 439 000a 134B     		ldr	r3, .L34
 440 000c 1B68     		ldr	r3, [r3]
 441 000e 002B     		cmp	r3, #0
 442 0010 01D0     		beq	.L28
 262:..\..\Common\Minimal/countsem.c **** 	{
 263:..\..\Common\Minimal/countsem.c **** 		xReturn = pdFAIL;
 443              		.loc 1 263 0
 444 0012 0023     		movs	r3, #0
 445 0014 7B60     		str	r3, [r7, #4]
 446              	.L28:
 264:..\..\Common\Minimal/countsem.c **** 	}
 265:..\..\Common\Minimal/countsem.c **** 
 266:..\..\Common\Minimal/countsem.c **** 	/* Return fail if either task is not still incrementing its loop counter. */
 267:..\..\Common\Minimal/countsem.c **** 	if( uxLastCount0 == xParameters[ 0 ].uxLoopCounter )
 447              		.loc 1 267 0
 448 0016 114B     		ldr	r3, .L34+4
 449 0018 9A68     		ldr	r2, [r3, #8]
 450 001a 114B     		ldr	r3, .L34+8
 451 001c 1B68     		ldr	r3, [r3]
 452 001e 9A42     		cmp	r2, r3
 453 0020 02D1     		bne	.L29
 268:..\..\Common\Minimal/countsem.c **** 	{
 269:..\..\Common\Minimal/countsem.c **** 		xReturn = pdFAIL;
 454              		.loc 1 269 0
 455 0022 0023     		movs	r3, #0
 456 0024 7B60     		str	r3, [r7, #4]
ARM GAS  C:\Users\Jamie\AppData\Local\Temp\cc88ul3d.s 			page 14


 457 0026 03E0     		b	.L30
 458              	.L29:
 270:..\..\Common\Minimal/countsem.c **** 	}
 271:..\..\Common\Minimal/countsem.c **** 	else
 272:..\..\Common\Minimal/countsem.c **** 	{
 273:..\..\Common\Minimal/countsem.c **** 		uxLastCount0 = xParameters[ 0 ].uxLoopCounter;
 459              		.loc 1 273 0
 460 0028 0C4B     		ldr	r3, .L34+4
 461 002a 9B68     		ldr	r3, [r3, #8]
 462 002c 0C4A     		ldr	r2, .L34+8
 463 002e 1360     		str	r3, [r2]
 464              	.L30:
 274:..\..\Common\Minimal/countsem.c **** 	}
 275:..\..\Common\Minimal/countsem.c **** 
 276:..\..\Common\Minimal/countsem.c **** 	if( uxLastCount1 == xParameters[ 1 ].uxLoopCounter )
 465              		.loc 1 276 0
 466 0030 0A4B     		ldr	r3, .L34+4
 467 0032 5A69     		ldr	r2, [r3, #20]
 468 0034 0B4B     		ldr	r3, .L34+12
 469 0036 1B68     		ldr	r3, [r3]
 470 0038 9A42     		cmp	r2, r3
 471 003a 02D1     		bne	.L31
 277:..\..\Common\Minimal/countsem.c **** 	{
 278:..\..\Common\Minimal/countsem.c **** 		xReturn = pdFAIL;
 472              		.loc 1 278 0
 473 003c 0023     		movs	r3, #0
 474 003e 7B60     		str	r3, [r7, #4]
 475 0040 03E0     		b	.L32
 476              	.L31:
 279:..\..\Common\Minimal/countsem.c **** 	}
 280:..\..\Common\Minimal/countsem.c **** 	else
 281:..\..\Common\Minimal/countsem.c **** 	{
 282:..\..\Common\Minimal/countsem.c **** 		uxLastCount1 = xParameters[ 1 ].uxLoopCounter;
 477              		.loc 1 282 0
 478 0042 064B     		ldr	r3, .L34+4
 479 0044 5B69     		ldr	r3, [r3, #20]
 480 0046 074A     		ldr	r2, .L34+12
 481 0048 1360     		str	r3, [r2]
 482              	.L32:
 283:..\..\Common\Minimal/countsem.c **** 	}
 284:..\..\Common\Minimal/countsem.c **** 
 285:..\..\Common\Minimal/countsem.c **** 	return xReturn;
 483              		.loc 1 285 0
 484 004a 7B68     		ldr	r3, [r7, #4]
 286:..\..\Common\Minimal/countsem.c **** }
 485              		.loc 1 286 0
 486 004c 1846     		mov	r0, r3
 487 004e 0C37     		adds	r7, r7, #12
 488              		.cfi_def_cfa_offset 4
 489 0050 BD46     		mov	sp, r7
 490              		.cfi_def_cfa_register 13
 491              		@ sp needed
 492 0052 5DF8047B 		ldr	r7, [sp], #4
 493              		.cfi_restore 7
 494              		.cfi_def_cfa_offset 0
 495 0056 7047     		bx	lr
 496              	.L35:
ARM GAS  C:\Users\Jamie\AppData\Local\Temp\cc88ul3d.s 			page 15


 497              		.align	2
 498              	.L34:
 499 0058 00000000 		.word	xErrorDetected
 500 005c 04000000 		.word	xParameters
 501 0060 1C000000 		.word	uxLastCount0.6388
 502 0064 20000000 		.word	uxLastCount1.6389
 503              		.cfi_endproc
 504              	.LFE72:
 505              		.size	xAreCountingSemaphoreTasksStillRunning, .-xAreCountingSemaphoreTasksStillRunning
 506              		.bss
 507              		.align	2
 508              	uxLastCount0.6388:
 509 001c 00000000 		.space	4
 510              		.align	2
 511              	uxLastCount1.6389:
 512 0020 00000000 		.space	4
 513              		.text
 514              	.Letext0:
 515              		.file 2 "c:\\program files (x86)\\cypress\\psoc creator\\4.0\\psoc creator\\import\\gnu\\arm\\4.9.
 516              		.file 3 "c:\\program files (x86)\\cypress\\psoc creator\\4.0\\psoc creator\\import\\gnu\\arm\\4.9.
 517              		.file 4 "../../../Source/portable/GCC/ARM_CM3/portmacro.h"
 518              		.file 5 "../../../Source/include/queue.h"
 519              		.file 6 "../../../Source/include/semphr.h"
 520              		.file 7 "Generated_Source\\PSoC5/core_cm3.h"