ARM GAS  C:\Users\Jamie\AppData\Local\Temp\ccu0TLTk.s 			page 1


   1              		.syntax unified
   2              		.cpu cortex-m3
   3              		.fpu softvfp
   4              		.eabi_attribute 20, 1
   5              		.eabi_attribute 21, 1
   6              		.eabi_attribute 23, 3
   7              		.eabi_attribute 24, 1
   8              		.eabi_attribute 25, 1
   9              		.eabi_attribute 26, 1
  10              		.eabi_attribute 30, 6
  11              		.eabi_attribute 34, 1
  12              		.eabi_attribute 18, 4
  13              		.thumb
  14              		.file	"death.c"
  15              		.text
  16              	.Ltext0:
  17              		.cfi_sections	.debug_frame
  18              		.bss
  19              		.align	1
  20              	usCreationCount:
  21 0000 0000     		.space	2
  22 0002 0000     		.align	2
  23              	uxTasksRunningAtStart:
  24 0004 00000000 		.space	4
  25              		.section	.rodata
  26              		.align	2
  27              		.type	uxMaxNumberOfExtraTasksRunning, %object
  28              		.size	uxMaxNumberOfExtraTasksRunning, 4
  29              	uxMaxNumberOfExtraTasksRunning:
  30 0000 03000000 		.word	3
  31              		.comm	xCreatedTask,4,4
  32              		.align	2
  33              	.LC0:
  34 0004 43524541 		.ascii	"CREATOR\000"
  34      544F5200 
  35              		.section	.text.vCreateSuicidalTasks,"ax",%progbits
  36              		.align	2
  37              		.global	vCreateSuicidalTasks
  38              		.thumb
  39              		.thumb_func
  40              		.type	vCreateSuicidalTasks, %function
  41              	vCreateSuicidalTasks:
  42              	.LFB68:
  43              		.file 1 "..\\..\\Common\\Minimal\\death.c"
   1:..\..\Common\Minimal/death.c **** /*
   2:..\..\Common\Minimal/death.c ****  * FreeRTOS Kernel V10.0.1
   3:..\..\Common\Minimal/death.c ****  * Copyright (C) 2017 Amazon.com, Inc. or its affiliates.  All Rights Reserved.
   4:..\..\Common\Minimal/death.c ****  *
   5:..\..\Common\Minimal/death.c ****  * Permission is hereby granted, free of charge, to any person obtaining a copy of
   6:..\..\Common\Minimal/death.c ****  * this software and associated documentation files (the "Software"), to deal in
   7:..\..\Common\Minimal/death.c ****  * the Software without restriction, including without limitation the rights to
   8:..\..\Common\Minimal/death.c ****  * use, copy, modify, merge, publish, distribute, sublicense, and/or sell copies of
   9:..\..\Common\Minimal/death.c ****  * the Software, and to permit persons to whom the Software is furnished to do so,
  10:..\..\Common\Minimal/death.c ****  * subject to the following conditions:
  11:..\..\Common\Minimal/death.c ****  *
  12:..\..\Common\Minimal/death.c ****  * The above copyright notice and this permission notice shall be included in all
  13:..\..\Common\Minimal/death.c ****  * copies or substantial portions of the Software.
ARM GAS  C:\Users\Jamie\AppData\Local\Temp\ccu0TLTk.s 			page 2


  14:..\..\Common\Minimal/death.c ****  *
  15:..\..\Common\Minimal/death.c ****  * THE SOFTWARE IS PROVIDED "AS IS", WITHOUT WARRANTY OF ANY KIND, EXPRESS OR
  16:..\..\Common\Minimal/death.c ****  * IMPLIED, INCLUDING BUT NOT LIMITED TO THE WARRANTIES OF MERCHANTABILITY, FITNESS
  17:..\..\Common\Minimal/death.c ****  * FOR A PARTICULAR PURPOSE AND NONINFRINGEMENT. IN NO EVENT SHALL THE AUTHORS OR
  18:..\..\Common\Minimal/death.c ****  * COPYRIGHT HOLDERS BE LIABLE FOR ANY CLAIM, DAMAGES OR OTHER LIABILITY, WHETHER
  19:..\..\Common\Minimal/death.c ****  * IN AN ACTION OF CONTRACT, TORT OR OTHERWISE, ARISING FROM, OUT OF OR IN
  20:..\..\Common\Minimal/death.c ****  * CONNECTION WITH THE SOFTWARE OR THE USE OR OTHER DEALINGS IN THE SOFTWARE.
  21:..\..\Common\Minimal/death.c ****  *
  22:..\..\Common\Minimal/death.c ****  * http://www.FreeRTOS.org
  23:..\..\Common\Minimal/death.c ****  * http://aws.amazon.com/freertos
  24:..\..\Common\Minimal/death.c ****  *
  25:..\..\Common\Minimal/death.c ****  * 1 tab == 4 spaces!
  26:..\..\Common\Minimal/death.c ****  */
  27:..\..\Common\Minimal/death.c **** 
  28:..\..\Common\Minimal/death.c **** /**
  29:..\..\Common\Minimal/death.c ****  * Create a single persistent task which periodically dynamically creates another
  30:..\..\Common\Minimal/death.c ****  * two tasks.  The original task is called the creator task, the two tasks it
  31:..\..\Common\Minimal/death.c ****  * creates are called suicidal tasks.
  32:..\..\Common\Minimal/death.c ****  *
  33:..\..\Common\Minimal/death.c ****  * One of the created suicidal tasks kill one other suicidal task before killing
  34:..\..\Common\Minimal/death.c ****  * itself - leaving just the original task remaining.
  35:..\..\Common\Minimal/death.c ****  *
  36:..\..\Common\Minimal/death.c ****  * The creator task must be spawned after all of the other demo application tasks
  37:..\..\Common\Minimal/death.c ****  * as it keeps a check on the number of tasks under the scheduler control.  The
  38:..\..\Common\Minimal/death.c ****  * number of tasks it expects to see running should never be greater than the
  39:..\..\Common\Minimal/death.c ****  * number of tasks that were in existence when the creator task was spawned, plus
  40:..\..\Common\Minimal/death.c ****  * one set of four suicidal tasks.  If this number is exceeded an error is flagged.
  41:..\..\Common\Minimal/death.c ****  *
  42:..\..\Common\Minimal/death.c ****  * \page DeathC death.c
  43:..\..\Common\Minimal/death.c ****  * \ingroup DemoFiles
  44:..\..\Common\Minimal/death.c ****  * <HR>
  45:..\..\Common\Minimal/death.c ****  */
  46:..\..\Common\Minimal/death.c **** 
  47:..\..\Common\Minimal/death.c **** 
  48:..\..\Common\Minimal/death.c **** #include <stdlib.h>
  49:..\..\Common\Minimal/death.c **** 
  50:..\..\Common\Minimal/death.c **** /* Scheduler include files. */
  51:..\..\Common\Minimal/death.c **** #include "FreeRTOS.h"
  52:..\..\Common\Minimal/death.c **** #include "task.h"
  53:..\..\Common\Minimal/death.c **** 
  54:..\..\Common\Minimal/death.c **** /* Demo program include files. */
  55:..\..\Common\Minimal/death.c **** #include "death.h"
  56:..\..\Common\Minimal/death.c **** 
  57:..\..\Common\Minimal/death.c **** #define deathSTACK_SIZE		( configMINIMAL_STACK_SIZE + 60 )
  58:..\..\Common\Minimal/death.c **** 
  59:..\..\Common\Minimal/death.c **** /* The task originally created which is responsible for periodically dynamically
  60:..\..\Common\Minimal/death.c **** creating another four tasks. */
  61:..\..\Common\Minimal/death.c **** static portTASK_FUNCTION_PROTO( vCreateTasks, pvParameters );
  62:..\..\Common\Minimal/death.c **** 
  63:..\..\Common\Minimal/death.c **** /* The task function of the dynamically created tasks. */
  64:..\..\Common\Minimal/death.c **** static portTASK_FUNCTION_PROTO( vSuicidalTask, pvParameters );
  65:..\..\Common\Minimal/death.c **** 
  66:..\..\Common\Minimal/death.c **** /* A variable which is incremented every time the dynamic tasks are created.  This
  67:..\..\Common\Minimal/death.c **** is used to check that the task is still running. */
  68:..\..\Common\Minimal/death.c **** static volatile uint16_t usCreationCount = 0;
  69:..\..\Common\Minimal/death.c **** 
  70:..\..\Common\Minimal/death.c **** /* Used to store the number of tasks that were originally running so the creator
ARM GAS  C:\Users\Jamie\AppData\Local\Temp\ccu0TLTk.s 			page 3


  71:..\..\Common\Minimal/death.c **** task can tell if any of the suicidal tasks have failed to die.
  72:..\..\Common\Minimal/death.c **** */
  73:..\..\Common\Minimal/death.c **** static volatile UBaseType_t uxTasksRunningAtStart = 0;
  74:..\..\Common\Minimal/death.c **** 
  75:..\..\Common\Minimal/death.c **** /* When a task deletes itself, it stack and TCB are cleaned up by the Idle task.
  76:..\..\Common\Minimal/death.c **** Under heavy load the idle task might not get much processing time, so it would
  77:..\..\Common\Minimal/death.c **** be legitimate for several tasks to remain undeleted for a short period.  There
  78:..\..\Common\Minimal/death.c **** may also be a few other unexpected tasks if, for example, the tasks that test
  79:..\..\Common\Minimal/death.c **** static allocation are also being used. */
  80:..\..\Common\Minimal/death.c **** static const UBaseType_t uxMaxNumberOfExtraTasksRunning = 3;
  81:..\..\Common\Minimal/death.c **** 
  82:..\..\Common\Minimal/death.c **** /* Used to store a handle to the task that should be killed by a suicidal task,
  83:..\..\Common\Minimal/death.c **** before it kills itself. */
  84:..\..\Common\Minimal/death.c **** TaskHandle_t xCreatedTask;
  85:..\..\Common\Minimal/death.c **** 
  86:..\..\Common\Minimal/death.c **** /*-----------------------------------------------------------*/
  87:..\..\Common\Minimal/death.c **** 
  88:..\..\Common\Minimal/death.c **** void vCreateSuicidalTasks( UBaseType_t uxPriority )
  89:..\..\Common\Minimal/death.c **** {
  44              		.loc 1 89 0
  45              		.cfi_startproc
  46              		@ args = 0, pretend = 0, frame = 8
  47              		@ frame_needed = 1, uses_anonymous_args = 0
  48 0000 80B5     		push	{r7, lr}
  49              		.cfi_def_cfa_offset 8
  50              		.cfi_offset 7, -8
  51              		.cfi_offset 14, -4
  52 0002 84B0     		sub	sp, sp, #16
  53              		.cfi_def_cfa_offset 24
  54 0004 02AF     		add	r7, sp, #8
  55              		.cfi_def_cfa 7, 16
  56 0006 7860     		str	r0, [r7, #4]
  90:..\..\Common\Minimal/death.c **** 	xTaskCreate( vCreateTasks, "CREATOR", deathSTACK_SIZE, ( void * ) NULL, uxPriority, NULL );
  57              		.loc 1 90 0
  58 0008 7B68     		ldr	r3, [r7, #4]
  59 000a 0093     		str	r3, [sp]
  60 000c 0023     		movs	r3, #0
  61 000e 0193     		str	r3, [sp, #4]
  62 0010 0448     		ldr	r0, .L2
  63 0012 0549     		ldr	r1, .L2+4
  64 0014 A022     		movs	r2, #160
  65 0016 0023     		movs	r3, #0
  66 0018 FFF7FEFF 		bl	xTaskCreate
  91:..\..\Common\Minimal/death.c **** }
  67              		.loc 1 91 0
  68 001c 0837     		adds	r7, r7, #8
  69              		.cfi_def_cfa_offset 8
  70 001e BD46     		mov	sp, r7
  71              		.cfi_def_cfa_register 13
  72              		@ sp needed
  73 0020 80BD     		pop	{r7, pc}
  74              	.L3:
  75 0022 00BF     		.align	2
  76              	.L2:
  77 0024 00000000 		.word	vCreateTasks
  78 0028 04000000 		.word	.LC0
  79              		.cfi_endproc
ARM GAS  C:\Users\Jamie\AppData\Local\Temp\ccu0TLTk.s 			page 4


  80              	.LFE68:
  81              		.size	vCreateSuicidalTasks, .-vCreateSuicidalTasks
  82              		.section	.text.vSuicidalTask,"ax",%progbits
  83              		.align	2
  84              		.thumb
  85              		.thumb_func
  86              		.type	vSuicidalTask, %function
  87              	vSuicidalTask:
  88              	.LFB69:
  92:..\..\Common\Minimal/death.c **** /*-----------------------------------------------------------*/
  93:..\..\Common\Minimal/death.c **** 
  94:..\..\Common\Minimal/death.c **** static portTASK_FUNCTION( vSuicidalTask, pvParameters )
  95:..\..\Common\Minimal/death.c **** {
  89              		.loc 1 95 0
  90              		.cfi_startproc
  91              		@ args = 0, pretend = 0, frame = 24
  92              		@ frame_needed = 1, uses_anonymous_args = 0
  93 0000 80B5     		push	{r7, lr}
  94              		.cfi_def_cfa_offset 8
  95              		.cfi_offset 7, -8
  96              		.cfi_offset 14, -4
  97 0002 86B0     		sub	sp, sp, #24
  98              		.cfi_def_cfa_offset 32
  99 0004 00AF     		add	r7, sp, #0
 100              		.cfi_def_cfa_register 7
 101 0006 7860     		str	r0, [r7, #4]
  96:..\..\Common\Minimal/death.c **** volatile long l1, l2;
  97:..\..\Common\Minimal/death.c **** TaskHandle_t xTaskToKill;
  98:..\..\Common\Minimal/death.c **** const TickType_t xDelay = pdMS_TO_TICKS( ( TickType_t ) 200 );
 102              		.loc 1 98 0
 103 0008 C823     		movs	r3, #200
 104 000a 3B61     		str	r3, [r7, #16]
  99:..\..\Common\Minimal/death.c **** 
 100:..\..\Common\Minimal/death.c **** 	/* Test deletion of a task's secure context, if any. */
 101:..\..\Common\Minimal/death.c **** 	portTASK_CALLS_SECURE_FUNCTIONS();
 102:..\..\Common\Minimal/death.c **** 
 103:..\..\Common\Minimal/death.c **** 	if( pvParameters != NULL )
 105              		.loc 1 103 0
 106 000c 7B68     		ldr	r3, [r7, #4]
 107 000e 002B     		cmp	r3, #0
 108 0010 03D0     		beq	.L5
 104:..\..\Common\Minimal/death.c **** 	{
 105:..\..\Common\Minimal/death.c **** 		/* This task is periodically created four times.  Two created tasks are
 106:..\..\Common\Minimal/death.c **** 		passed a handle to the other task so it can kill it before killing itself.
 107:..\..\Common\Minimal/death.c **** 		The other task is passed in null. */
 108:..\..\Common\Minimal/death.c **** 		xTaskToKill = *( TaskHandle_t* )pvParameters;
 109              		.loc 1 108 0
 110 0012 7B68     		ldr	r3, [r7, #4]
 111 0014 1B68     		ldr	r3, [r3]
 112 0016 7B61     		str	r3, [r7, #20]
 113 0018 01E0     		b	.L6
 114              	.L5:
 109:..\..\Common\Minimal/death.c **** 	}
 110:..\..\Common\Minimal/death.c **** 	else
 111:..\..\Common\Minimal/death.c **** 	{
 112:..\..\Common\Minimal/death.c **** 		xTaskToKill = NULL;
 115              		.loc 1 112 0
ARM GAS  C:\Users\Jamie\AppData\Local\Temp\ccu0TLTk.s 			page 5


 116 001a 0023     		movs	r3, #0
 117 001c 7B61     		str	r3, [r7, #20]
 118              	.L6:
 113:..\..\Common\Minimal/death.c **** 	}
 114:..\..\Common\Minimal/death.c **** 
 115:..\..\Common\Minimal/death.c **** 	for( ;; )
 116:..\..\Common\Minimal/death.c **** 	{
 117:..\..\Common\Minimal/death.c **** 		/* Do something random just to use some stack and registers. */
 118:..\..\Common\Minimal/death.c **** 		l1 = 2;
 119              		.loc 1 118 0
 120 001e 0223     		movs	r3, #2
 121 0020 FB60     		str	r3, [r7, #12]
 119:..\..\Common\Minimal/death.c **** 		l2 = 89;
 122              		.loc 1 119 0
 123 0022 5923     		movs	r3, #89
 124 0024 BB60     		str	r3, [r7, #8]
 120:..\..\Common\Minimal/death.c **** 		l2 *= l1;
 125              		.loc 1 120 0
 126 0026 FB68     		ldr	r3, [r7, #12]
 127 0028 BA68     		ldr	r2, [r7, #8]
 128 002a 02FB03F3 		mul	r3, r2, r3
 129 002e BB60     		str	r3, [r7, #8]
 121:..\..\Common\Minimal/death.c **** 		vTaskDelay( xDelay );
 130              		.loc 1 121 0
 131 0030 3869     		ldr	r0, [r7, #16]
 132 0032 FFF7FEFF 		bl	vTaskDelay
 122:..\..\Common\Minimal/death.c **** 
 123:..\..\Common\Minimal/death.c **** 		if( xTaskToKill != NULL )
 133              		.loc 1 123 0
 134 0036 7B69     		ldr	r3, [r7, #20]
 135 0038 002B     		cmp	r3, #0
 136 003a 08D0     		beq	.L7
 124:..\..\Common\Minimal/death.c **** 		{
 125:..\..\Common\Minimal/death.c **** 			/* Make sure the other task has a go before we delete it. */
 126:..\..\Common\Minimal/death.c **** 			vTaskDelay( ( TickType_t ) 0 );
 137              		.loc 1 126 0
 138 003c 0020     		movs	r0, #0
 139 003e FFF7FEFF 		bl	vTaskDelay
 127:..\..\Common\Minimal/death.c **** 
 128:..\..\Common\Minimal/death.c **** 			/* Kill the other task that was created by vCreateTasks(). */
 129:..\..\Common\Minimal/death.c **** 			vTaskDelete( xTaskToKill );
 140              		.loc 1 129 0
 141 0042 7869     		ldr	r0, [r7, #20]
 142 0044 FFF7FEFF 		bl	vTaskDelete
 130:..\..\Common\Minimal/death.c **** 
 131:..\..\Common\Minimal/death.c **** 			/* Kill ourselves. */
 132:..\..\Common\Minimal/death.c **** 			vTaskDelete( NULL );
 143              		.loc 1 132 0
 144 0048 0020     		movs	r0, #0
 145 004a FFF7FEFF 		bl	vTaskDelete
 146              	.L7:
 133:..\..\Common\Minimal/death.c **** 		}
 134:..\..\Common\Minimal/death.c **** 	}
 147              		.loc 1 134 0
 148 004e E6E7     		b	.L6
 149              		.cfi_endproc
 150              	.LFE69:
ARM GAS  C:\Users\Jamie\AppData\Local\Temp\ccu0TLTk.s 			page 6


 151              		.size	vSuicidalTask, .-vSuicidalTask
 152              		.section	.rodata
 153              		.align	2
 154              	.LC1:
 155 000c 53554943 		.ascii	"SUICID1\000"
 155      49443100 
 156              		.align	2
 157              	.LC2:
 158 0014 53554943 		.ascii	"SUICID2\000"
 158      49443200 
 159              		.section	.text.vCreateTasks,"ax",%progbits
 160              		.align	2
 161              		.thumb
 162              		.thumb_func
 163              		.type	vCreateTasks, %function
 164              	vCreateTasks:
 165              	.LFB70:
 135:..\..\Common\Minimal/death.c **** }/*lint !e818 !e550 Function prototype must be as per standard for task functions. */
 136:..\..\Common\Minimal/death.c **** /*-----------------------------------------------------------*/
 137:..\..\Common\Minimal/death.c **** 
 138:..\..\Common\Minimal/death.c **** static portTASK_FUNCTION( vCreateTasks, pvParameters )
 139:..\..\Common\Minimal/death.c **** {
 166              		.loc 1 139 0
 167              		.cfi_startproc
 168              		@ args = 0, pretend = 0, frame = 16
 169              		@ frame_needed = 1, uses_anonymous_args = 0
 170 0000 80B5     		push	{r7, lr}
 171              		.cfi_def_cfa_offset 8
 172              		.cfi_offset 7, -8
 173              		.cfi_offset 14, -4
 174 0002 86B0     		sub	sp, sp, #24
 175              		.cfi_def_cfa_offset 32
 176 0004 02AF     		add	r7, sp, #8
 177              		.cfi_def_cfa 7, 24
 178 0006 7860     		str	r0, [r7, #4]
 140:..\..\Common\Minimal/death.c **** const TickType_t xDelay = pdMS_TO_TICKS( ( TickType_t ) 1000 );
 179              		.loc 1 140 0
 180 0008 4FF47A73 		mov	r3, #1000
 181 000c FB60     		str	r3, [r7, #12]
 141:..\..\Common\Minimal/death.c **** UBaseType_t uxPriority;
 142:..\..\Common\Minimal/death.c **** 
 143:..\..\Common\Minimal/death.c **** 	/* Remove compiler warning about unused parameter. */
 144:..\..\Common\Minimal/death.c **** 	( void ) pvParameters;
 145:..\..\Common\Minimal/death.c **** 
 146:..\..\Common\Minimal/death.c **** 	/* Delay at the start to ensure tasks created by other demos have been
 147:..\..\Common\Minimal/death.c **** 	created before storing the current number of tasks. */
 148:..\..\Common\Minimal/death.c **** 	vTaskDelay( xDelay );
 182              		.loc 1 148 0
 183 000e F868     		ldr	r0, [r7, #12]
 184 0010 FFF7FEFF 		bl	vTaskDelay
 149:..\..\Common\Minimal/death.c **** 	uxTasksRunningAtStart = ( UBaseType_t ) uxTaskGetNumberOfTasks();
 185              		.loc 1 149 0
 186 0014 FFF7FEFF 		bl	uxTaskGetNumberOfTasks
 187 0018 0246     		mov	r2, r0
 188 001a 144B     		ldr	r3, .L10
 189 001c 1A60     		str	r2, [r3]
 150:..\..\Common\Minimal/death.c **** 
ARM GAS  C:\Users\Jamie\AppData\Local\Temp\ccu0TLTk.s 			page 7


 151:..\..\Common\Minimal/death.c **** 	uxPriority = uxTaskPriorityGet( NULL );
 190              		.loc 1 151 0
 191 001e 0020     		movs	r0, #0
 192 0020 FFF7FEFF 		bl	uxTaskPriorityGet
 193 0024 B860     		str	r0, [r7, #8]
 194              	.L9:
 152:..\..\Common\Minimal/death.c **** 
 153:..\..\Common\Minimal/death.c **** 	for( ;; )
 154:..\..\Common\Minimal/death.c **** 	{
 155:..\..\Common\Minimal/death.c **** 		/* Just loop round, delaying then creating the four suicidal tasks. */
 156:..\..\Common\Minimal/death.c **** 		vTaskDelay( xDelay );
 195              		.loc 1 156 0 discriminator 1
 196 0026 F868     		ldr	r0, [r7, #12]
 197 0028 FFF7FEFF 		bl	vTaskDelay
 157:..\..\Common\Minimal/death.c **** 
 158:..\..\Common\Minimal/death.c **** 		xCreatedTask = NULL;
 198              		.loc 1 158 0 discriminator 1
 199 002c 104B     		ldr	r3, .L10+4
 200 002e 0022     		movs	r2, #0
 201 0030 1A60     		str	r2, [r3]
 159:..\..\Common\Minimal/death.c **** 
 160:..\..\Common\Minimal/death.c **** 		xTaskCreate( vSuicidalTask, "SUICID1", configMINIMAL_STACK_SIZE, NULL, uxPriority, &xCreatedTask 
 202              		.loc 1 160 0 discriminator 1
 203 0032 BB68     		ldr	r3, [r7, #8]
 204 0034 0093     		str	r3, [sp]
 205 0036 0E4B     		ldr	r3, .L10+4
 206 0038 0193     		str	r3, [sp, #4]
 207 003a 0E48     		ldr	r0, .L10+8
 208 003c 0E49     		ldr	r1, .L10+12
 209 003e 6422     		movs	r2, #100
 210 0040 0023     		movs	r3, #0
 211 0042 FFF7FEFF 		bl	xTaskCreate
 161:..\..\Common\Minimal/death.c **** 		xTaskCreate( vSuicidalTask, "SUICID2", configMINIMAL_STACK_SIZE, &xCreatedTask, uxPriority, NULL 
 212              		.loc 1 161 0 discriminator 1
 213 0046 BB68     		ldr	r3, [r7, #8]
 214 0048 0093     		str	r3, [sp]
 215 004a 0023     		movs	r3, #0
 216 004c 0193     		str	r3, [sp, #4]
 217 004e 0948     		ldr	r0, .L10+8
 218 0050 0A49     		ldr	r1, .L10+16
 219 0052 6422     		movs	r2, #100
 220 0054 064B     		ldr	r3, .L10+4
 221 0056 FFF7FEFF 		bl	xTaskCreate
 162:..\..\Common\Minimal/death.c **** 
 163:..\..\Common\Minimal/death.c **** 		++usCreationCount;
 222              		.loc 1 163 0 discriminator 1
 223 005a 094B     		ldr	r3, .L10+20
 224 005c 1B88     		ldrh	r3, [r3]	@ movhi
 225 005e 9BB2     		uxth	r3, r3
 226 0060 0133     		adds	r3, r3, #1
 227 0062 9AB2     		uxth	r2, r3
 228 0064 064B     		ldr	r3, .L10+20
 229 0066 1A80     		strh	r2, [r3]	@ movhi
 164:..\..\Common\Minimal/death.c **** 	}
 230              		.loc 1 164 0 discriminator 1
 231 0068 DDE7     		b	.L9
 232              	.L11:
ARM GAS  C:\Users\Jamie\AppData\Local\Temp\ccu0TLTk.s 			page 8


 233 006a 00BF     		.align	2
 234              	.L10:
 235 006c 04000000 		.word	uxTasksRunningAtStart
 236 0070 00000000 		.word	xCreatedTask
 237 0074 00000000 		.word	vSuicidalTask
 238 0078 0C000000 		.word	.LC1
 239 007c 14000000 		.word	.LC2
 240 0080 00000000 		.word	usCreationCount
 241              		.cfi_endproc
 242              	.LFE70:
 243              		.size	vCreateTasks, .-vCreateTasks
 244              		.section	.text.xIsCreateTaskStillRunning,"ax",%progbits
 245              		.align	2
 246              		.global	xIsCreateTaskStillRunning
 247              		.thumb
 248              		.thumb_func
 249              		.type	xIsCreateTaskStillRunning, %function
 250              	xIsCreateTaskStillRunning:
 251              	.LFB71:
 165:..\..\Common\Minimal/death.c **** }
 166:..\..\Common\Minimal/death.c **** /*-----------------------------------------------------------*/
 167:..\..\Common\Minimal/death.c **** 
 168:..\..\Common\Minimal/death.c **** /* This is called to check that the creator task is still running and that there
 169:..\..\Common\Minimal/death.c **** are not any more than four extra tasks. */
 170:..\..\Common\Minimal/death.c **** BaseType_t xIsCreateTaskStillRunning( void )
 171:..\..\Common\Minimal/death.c **** {
 252              		.loc 1 171 0
 253              		.cfi_startproc
 254              		@ args = 0, pretend = 0, frame = 8
 255              		@ frame_needed = 1, uses_anonymous_args = 0
 256 0000 80B5     		push	{r7, lr}
 257              		.cfi_def_cfa_offset 8
 258              		.cfi_offset 7, -8
 259              		.cfi_offset 14, -4
 260 0002 82B0     		sub	sp, sp, #8
 261              		.cfi_def_cfa_offset 16
 262 0004 00AF     		add	r7, sp, #0
 263              		.cfi_def_cfa_register 7
 172:..\..\Common\Minimal/death.c **** static uint16_t usLastCreationCount = 0xfff;
 173:..\..\Common\Minimal/death.c **** BaseType_t xReturn = pdTRUE;
 264              		.loc 1 173 0
 265 0006 0123     		movs	r3, #1
 266 0008 7B60     		str	r3, [r7, #4]
 174:..\..\Common\Minimal/death.c **** static UBaseType_t uxTasksRunningNow;
 175:..\..\Common\Minimal/death.c **** 
 176:..\..\Common\Minimal/death.c **** 	if( usLastCreationCount == usCreationCount )
 267              		.loc 1 176 0
 268 000a 164B     		ldr	r3, .L18
 269 000c 1A88     		ldrh	r2, [r3]
 270 000e 164B     		ldr	r3, .L18+4
 271 0010 1B88     		ldrh	r3, [r3]	@ movhi
 272 0012 9BB2     		uxth	r3, r3
 273 0014 9A42     		cmp	r2, r3
 274 0016 02D1     		bne	.L13
 177:..\..\Common\Minimal/death.c **** 	{
 178:..\..\Common\Minimal/death.c **** 		xReturn = pdFALSE;
 275              		.loc 1 178 0
ARM GAS  C:\Users\Jamie\AppData\Local\Temp\ccu0TLTk.s 			page 9


 276 0018 0023     		movs	r3, #0
 277 001a 7B60     		str	r3, [r7, #4]
 278 001c 04E0     		b	.L14
 279              	.L13:
 179:..\..\Common\Minimal/death.c **** 	}
 180:..\..\Common\Minimal/death.c **** 	else
 181:..\..\Common\Minimal/death.c **** 	{
 182:..\..\Common\Minimal/death.c **** 		usLastCreationCount = usCreationCount;
 280              		.loc 1 182 0
 281 001e 124B     		ldr	r3, .L18+4
 282 0020 1B88     		ldrh	r3, [r3]	@ movhi
 283 0022 9AB2     		uxth	r2, r3
 284 0024 0F4B     		ldr	r3, .L18
 285 0026 1A80     		strh	r2, [r3]	@ movhi
 286              	.L14:
 183:..\..\Common\Minimal/death.c **** 	}
 184:..\..\Common\Minimal/death.c **** 
 185:..\..\Common\Minimal/death.c **** 	uxTasksRunningNow = ( UBaseType_t ) uxTaskGetNumberOfTasks();
 287              		.loc 1 185 0
 288 0028 FFF7FEFF 		bl	uxTaskGetNumberOfTasks
 289 002c 0246     		mov	r2, r0
 290 002e 0F4B     		ldr	r3, .L18+8
 291 0030 1A60     		str	r2, [r3]
 186:..\..\Common\Minimal/death.c **** 
 187:..\..\Common\Minimal/death.c **** 	if( uxTasksRunningNow < uxTasksRunningAtStart )
 292              		.loc 1 187 0
 293 0032 0E4B     		ldr	r3, .L18+8
 294 0034 1A68     		ldr	r2, [r3]
 295 0036 0E4B     		ldr	r3, .L18+12
 296 0038 1B68     		ldr	r3, [r3]
 297 003a 9A42     		cmp	r2, r3
 298 003c 02D2     		bcs	.L15
 188:..\..\Common\Minimal/death.c **** 	{
 189:..\..\Common\Minimal/death.c **** 		xReturn = pdFALSE;
 299              		.loc 1 189 0
 300 003e 0023     		movs	r3, #0
 301 0040 7B60     		str	r3, [r7, #4]
 302 0042 09E0     		b	.L16
 303              	.L15:
 190:..\..\Common\Minimal/death.c **** 	}
 191:..\..\Common\Minimal/death.c **** 	else if( ( uxTasksRunningNow - uxTasksRunningAtStart ) > uxMaxNumberOfExtraTasksRunning )
 304              		.loc 1 191 0
 305 0044 094B     		ldr	r3, .L18+8
 306 0046 1A68     		ldr	r2, [r3]
 307 0048 094B     		ldr	r3, .L18+12
 308 004a 1B68     		ldr	r3, [r3]
 309 004c D31A     		subs	r3, r2, r3
 310 004e 0322     		movs	r2, #3
 311 0050 9342     		cmp	r3, r2
 312 0052 01D9     		bls	.L16
 192:..\..\Common\Minimal/death.c **** 	{
 193:..\..\Common\Minimal/death.c **** 		xReturn = pdFALSE;
 313              		.loc 1 193 0
 314 0054 0023     		movs	r3, #0
 315 0056 7B60     		str	r3, [r7, #4]
 316              	.L16:
 194:..\..\Common\Minimal/death.c **** 	}
ARM GAS  C:\Users\Jamie\AppData\Local\Temp\ccu0TLTk.s 			page 10


 195:..\..\Common\Minimal/death.c **** 	else
 196:..\..\Common\Minimal/death.c **** 	{
 197:..\..\Common\Minimal/death.c **** 		/* Everything is okay. */
 198:..\..\Common\Minimal/death.c **** 	}
 199:..\..\Common\Minimal/death.c **** 
 200:..\..\Common\Minimal/death.c **** 	return xReturn;
 317              		.loc 1 200 0
 318 0058 7B68     		ldr	r3, [r7, #4]
 201:..\..\Common\Minimal/death.c **** }
 319              		.loc 1 201 0
 320 005a 1846     		mov	r0, r3
 321 005c 0837     		adds	r7, r7, #8
 322              		.cfi_def_cfa_offset 8
 323 005e BD46     		mov	sp, r7
 324              		.cfi_def_cfa_register 13
 325              		@ sp needed
 326 0060 80BD     		pop	{r7, pc}
 327              	.L19:
 328 0062 00BF     		.align	2
 329              	.L18:
 330 0064 00000000 		.word	usLastCreationCount.6672
 331 0068 00000000 		.word	usCreationCount
 332 006c 08000000 		.word	uxTasksRunningNow.6674
 333 0070 04000000 		.word	uxTasksRunningAtStart
 334              		.cfi_endproc
 335              	.LFE71:
 336              		.size	xIsCreateTaskStillRunning, .-xIsCreateTaskStillRunning
 337              		.data
 338              		.align	1
 339              		.type	usLastCreationCount.6672, %object
 340              		.size	usLastCreationCount.6672, 2
 341              	usLastCreationCount.6672:
 342 0000 FF0F     		.short	4095
 343              		.bss
 344              		.align	2
 345              	uxTasksRunningNow.6674:
 346 0008 00000000 		.space	4
 347              		.text
 348              	.Letext0:
 349              		.file 2 "c:\\program files (x86)\\cypress\\psoc creator\\4.0\\psoc creator\\import\\gnu\\arm\\4.9.
 350              		.file 3 "c:\\program files (x86)\\cypress\\psoc creator\\4.0\\psoc creator\\import\\gnu\\arm\\4.9.
 351              		.file 4 "../../../Source/portable/GCC/ARM_CM3/portmacro.h"
 352              		.file 5 "../../../Source/include/task.h"
 353              		.file 6 "Generated_Source\\PSoC5/core_cm3.h"