ARM GAS  C:\Users\Jamie\AppData\Local\Temp\ccM5AyQz.s 			page 1


   1              		.syntax unified
   2              		.cpu cortex-m3
   3              		.fpu softvfp
   4              		.eabi_attribute 20, 1
   5              		.eabi_attribute 21, 1
   6              		.eabi_attribute 23, 3
   7              		.eabi_attribute 24, 1
   8              		.eabi_attribute 25, 1
   9              		.eabi_attribute 26, 1
  10              		.eabi_attribute 30, 6
  11              		.eabi_attribute 34, 1
  12              		.eabi_attribute 18, 4
  13              		.thumb
  14              		.file	"flash.c"
  15              		.text
  16              	.Ltext0:
  17              		.cfi_sections	.debug_frame
  18              		.bss
  19              		.align	2
  20              	uxFlashTaskNumber:
  21 0000 00000000 		.space	4
  22              		.section	.rodata
  23              		.align	2
  24              	.LC0:
  25 0000 4C454478 		.ascii	"LEDx\000"
  25      00
  26 0005 000000   		.section	.text.vStartLEDFlashTasks,"ax",%progbits
  27              		.align	2
  28              		.global	vStartLEDFlashTasks
  29              		.thumb
  30              		.thumb_func
  31              		.type	vStartLEDFlashTasks, %function
  32              	vStartLEDFlashTasks:
  33              	.LFB68:
  34              		.file 1 "..\\..\\Common\\Minimal\\flash.c"
   1:..\..\Common\Minimal/flash.c **** /*
   2:..\..\Common\Minimal/flash.c ****  * FreeRTOS Kernel V10.0.1
   3:..\..\Common\Minimal/flash.c ****  * Copyright (C) 2017 Amazon.com, Inc. or its affiliates.  All Rights Reserved.
   4:..\..\Common\Minimal/flash.c ****  *
   5:..\..\Common\Minimal/flash.c ****  * Permission is hereby granted, free of charge, to any person obtaining a copy of
   6:..\..\Common\Minimal/flash.c ****  * this software and associated documentation files (the "Software"), to deal in
   7:..\..\Common\Minimal/flash.c ****  * the Software without restriction, including without limitation the rights to
   8:..\..\Common\Minimal/flash.c ****  * use, copy, modify, merge, publish, distribute, sublicense, and/or sell copies of
   9:..\..\Common\Minimal/flash.c ****  * the Software, and to permit persons to whom the Software is furnished to do so,
  10:..\..\Common\Minimal/flash.c ****  * subject to the following conditions:
  11:..\..\Common\Minimal/flash.c ****  *
  12:..\..\Common\Minimal/flash.c ****  * The above copyright notice and this permission notice shall be included in all
  13:..\..\Common\Minimal/flash.c ****  * copies or substantial portions of the Software.
  14:..\..\Common\Minimal/flash.c ****  *
  15:..\..\Common\Minimal/flash.c ****  * THE SOFTWARE IS PROVIDED "AS IS", WITHOUT WARRANTY OF ANY KIND, EXPRESS OR
  16:..\..\Common\Minimal/flash.c ****  * IMPLIED, INCLUDING BUT NOT LIMITED TO THE WARRANTIES OF MERCHANTABILITY, FITNESS
  17:..\..\Common\Minimal/flash.c ****  * FOR A PARTICULAR PURPOSE AND NONINFRINGEMENT. IN NO EVENT SHALL THE AUTHORS OR
  18:..\..\Common\Minimal/flash.c ****  * COPYRIGHT HOLDERS BE LIABLE FOR ANY CLAIM, DAMAGES OR OTHER LIABILITY, WHETHER
  19:..\..\Common\Minimal/flash.c ****  * IN AN ACTION OF CONTRACT, TORT OR OTHERWISE, ARISING FROM, OUT OF OR IN
  20:..\..\Common\Minimal/flash.c ****  * CONNECTION WITH THE SOFTWARE OR THE USE OR OTHER DEALINGS IN THE SOFTWARE.
  21:..\..\Common\Minimal/flash.c ****  *
  22:..\..\Common\Minimal/flash.c ****  * http://www.FreeRTOS.org
ARM GAS  C:\Users\Jamie\AppData\Local\Temp\ccM5AyQz.s 			page 2


  23:..\..\Common\Minimal/flash.c ****  * http://aws.amazon.com/freertos
  24:..\..\Common\Minimal/flash.c ****  *
  25:..\..\Common\Minimal/flash.c ****  * 1 tab == 4 spaces!
  26:..\..\Common\Minimal/flash.c ****  */
  27:..\..\Common\Minimal/flash.c **** 
  28:..\..\Common\Minimal/flash.c **** /**
  29:..\..\Common\Minimal/flash.c ****  * This version of flash .c is for use on systems that have limited stack space
  30:..\..\Common\Minimal/flash.c ****  * and no display facilities.  The complete version can be found in the
  31:..\..\Common\Minimal/flash.c ****  * Demo/Common/Full directory.
  32:..\..\Common\Minimal/flash.c ****  *
  33:..\..\Common\Minimal/flash.c ****  * Three tasks are created, each of which flash an LED at a different rate.  The first
  34:..\..\Common\Minimal/flash.c ****  * LED flashes every 200ms, the second every 400ms, the third every 600ms.
  35:..\..\Common\Minimal/flash.c ****  *
  36:..\..\Common\Minimal/flash.c ****  * The LED flash tasks provide instant visual feedback.  They show that the scheduler
  37:..\..\Common\Minimal/flash.c ****  * is still operational.
  38:..\..\Common\Minimal/flash.c ****  *
  39:..\..\Common\Minimal/flash.c ****  */
  40:..\..\Common\Minimal/flash.c **** 
  41:..\..\Common\Minimal/flash.c **** 
  42:..\..\Common\Minimal/flash.c **** #include <stdlib.h>
  43:..\..\Common\Minimal/flash.c **** 
  44:..\..\Common\Minimal/flash.c **** /* Scheduler include files. */
  45:..\..\Common\Minimal/flash.c **** #include "FreeRTOS.h"
  46:..\..\Common\Minimal/flash.c **** #include "task.h"
  47:..\..\Common\Minimal/flash.c **** 
  48:..\..\Common\Minimal/flash.c **** /* Demo program include files. */
  49:..\..\Common\Minimal/flash.c **** #include "partest.h"
  50:..\..\Common\Minimal/flash.c **** #include "flash.h"
  51:..\..\Common\Minimal/flash.c **** 
  52:..\..\Common\Minimal/flash.c **** #define ledSTACK_SIZE		configMINIMAL_STACK_SIZE
  53:..\..\Common\Minimal/flash.c **** #define ledNUMBER_OF_LEDS	( 3 )
  54:..\..\Common\Minimal/flash.c **** #define ledFLASH_RATE_BASE	( ( TickType_t ) 333 )
  55:..\..\Common\Minimal/flash.c **** 
  56:..\..\Common\Minimal/flash.c **** /* Variable used by the created tasks to calculate the LED number to use, and
  57:..\..\Common\Minimal/flash.c **** the rate at which they should flash the LED. */
  58:..\..\Common\Minimal/flash.c **** static volatile UBaseType_t uxFlashTaskNumber = 0;
  59:..\..\Common\Minimal/flash.c **** 
  60:..\..\Common\Minimal/flash.c **** /* The task that is created three times. */
  61:..\..\Common\Minimal/flash.c **** static portTASK_FUNCTION_PROTO( vLEDFlashTask, pvParameters );
  62:..\..\Common\Minimal/flash.c **** 
  63:..\..\Common\Minimal/flash.c **** /*-----------------------------------------------------------*/
  64:..\..\Common\Minimal/flash.c **** 
  65:..\..\Common\Minimal/flash.c **** void vStartLEDFlashTasks( UBaseType_t uxPriority )
  66:..\..\Common\Minimal/flash.c **** {
  35              		.loc 1 66 0
  36              		.cfi_startproc
  37              		@ args = 0, pretend = 0, frame = 16
  38              		@ frame_needed = 1, uses_anonymous_args = 0
  39 0000 80B5     		push	{r7, lr}
  40              		.cfi_def_cfa_offset 8
  41              		.cfi_offset 7, -8
  42              		.cfi_offset 14, -4
  43 0002 86B0     		sub	sp, sp, #24
  44              		.cfi_def_cfa_offset 32
  45 0004 02AF     		add	r7, sp, #8
  46              		.cfi_def_cfa 7, 24
  47 0006 7860     		str	r0, [r7, #4]
ARM GAS  C:\Users\Jamie\AppData\Local\Temp\ccM5AyQz.s 			page 3


  67:..\..\Common\Minimal/flash.c **** BaseType_t xLEDTask;
  68:..\..\Common\Minimal/flash.c **** 
  69:..\..\Common\Minimal/flash.c **** 	/* Create the three tasks. */
  70:..\..\Common\Minimal/flash.c **** 	for( xLEDTask = 0; xLEDTask < ledNUMBER_OF_LEDS; ++xLEDTask )
  48              		.loc 1 70 0
  49 0008 0023     		movs	r3, #0
  50 000a FB60     		str	r3, [r7, #12]
  51 000c 0CE0     		b	.L2
  52              	.L3:
  71:..\..\Common\Minimal/flash.c **** 	{
  72:..\..\Common\Minimal/flash.c **** 		/* Spawn the task. */
  73:..\..\Common\Minimal/flash.c **** 		xTaskCreate( vLEDFlashTask, "LEDx", ledSTACK_SIZE, NULL, uxPriority, ( TaskHandle_t * ) NULL );
  53              		.loc 1 73 0 discriminator 3
  54 000e 7B68     		ldr	r3, [r7, #4]
  55 0010 0093     		str	r3, [sp]
  56 0012 0023     		movs	r3, #0
  57 0014 0193     		str	r3, [sp, #4]
  58 0016 0748     		ldr	r0, .L4
  59 0018 0749     		ldr	r1, .L4+4
  60 001a 6422     		movs	r2, #100
  61 001c 0023     		movs	r3, #0
  62 001e FFF7FEFF 		bl	xTaskCreate
  70:..\..\Common\Minimal/flash.c **** 	{
  63              		.loc 1 70 0 discriminator 3
  64 0022 FB68     		ldr	r3, [r7, #12]
  65 0024 0133     		adds	r3, r3, #1
  66 0026 FB60     		str	r3, [r7, #12]
  67              	.L2:
  70:..\..\Common\Minimal/flash.c **** 	{
  68              		.loc 1 70 0 is_stmt 0 discriminator 1
  69 0028 FB68     		ldr	r3, [r7, #12]
  70 002a 022B     		cmp	r3, #2
  71 002c EFDD     		ble	.L3
  74:..\..\Common\Minimal/flash.c **** 	}
  75:..\..\Common\Minimal/flash.c **** }
  72              		.loc 1 75 0 is_stmt 1
  73 002e 1037     		adds	r7, r7, #16
  74              		.cfi_def_cfa_offset 8
  75 0030 BD46     		mov	sp, r7
  76              		.cfi_def_cfa_register 13
  77              		@ sp needed
  78 0032 80BD     		pop	{r7, pc}
  79              	.L5:
  80              		.align	2
  81              	.L4:
  82 0034 00000000 		.word	vLEDFlashTask
  83 0038 00000000 		.word	.LC0
  84              		.cfi_endproc
  85              	.LFE68:
  86              		.size	vStartLEDFlashTasks, .-vStartLEDFlashTasks
  87              		.section	.text.vLEDFlashTask,"ax",%progbits
  88              		.align	2
  89              		.thumb
  90              		.thumb_func
  91              		.type	vLEDFlashTask, %function
  92              	vLEDFlashTask:
  93              	.LFB69:
ARM GAS  C:\Users\Jamie\AppData\Local\Temp\ccM5AyQz.s 			page 4


  76:..\..\Common\Minimal/flash.c **** /*-----------------------------------------------------------*/
  77:..\..\Common\Minimal/flash.c **** 
  78:..\..\Common\Minimal/flash.c **** static portTASK_FUNCTION( vLEDFlashTask, pvParameters )
  79:..\..\Common\Minimal/flash.c **** {
  94              		.loc 1 79 0
  95              		.cfi_startproc
  96              		@ args = 0, pretend = 0, frame = 24
  97              		@ frame_needed = 1, uses_anonymous_args = 0
  98 0000 80B5     		push	{r7, lr}
  99              		.cfi_def_cfa_offset 8
 100              		.cfi_offset 7, -8
 101              		.cfi_offset 14, -4
 102 0002 86B0     		sub	sp, sp, #24
 103              		.cfi_def_cfa_offset 32
 104 0004 00AF     		add	r7, sp, #0
 105              		.cfi_def_cfa_register 7
 106 0006 7860     		str	r0, [r7, #4]
  80:..\..\Common\Minimal/flash.c **** TickType_t xFlashRate, xLastFlashTime;
  81:..\..\Common\Minimal/flash.c **** UBaseType_t uxLED;
  82:..\..\Common\Minimal/flash.c **** 
  83:..\..\Common\Minimal/flash.c **** 	/* The parameters are not used. */
  84:..\..\Common\Minimal/flash.c **** 	( void ) pvParameters;
  85:..\..\Common\Minimal/flash.c **** 
  86:..\..\Common\Minimal/flash.c **** 	/* Calculate the LED and flash rate. */
  87:..\..\Common\Minimal/flash.c **** 	portENTER_CRITICAL();
 107              		.loc 1 87 0
 108 0008 FFF7FEFF 		bl	vPortEnterCritical
  88:..\..\Common\Minimal/flash.c **** 	{
  89:..\..\Common\Minimal/flash.c **** 		/* See which of the eight LED's we should use. */
  90:..\..\Common\Minimal/flash.c **** 		uxLED = uxFlashTaskNumber;
 109              		.loc 1 90 0
 110 000c 154B     		ldr	r3, .L8
 111 000e 1B68     		ldr	r3, [r3]
 112 0010 7B61     		str	r3, [r7, #20]
  91:..\..\Common\Minimal/flash.c **** 
  92:..\..\Common\Minimal/flash.c **** 		/* Update so the next task uses the next LED. */
  93:..\..\Common\Minimal/flash.c **** 		uxFlashTaskNumber++;
 113              		.loc 1 93 0
 114 0012 144B     		ldr	r3, .L8
 115 0014 1B68     		ldr	r3, [r3]
 116 0016 0133     		adds	r3, r3, #1
 117 0018 124A     		ldr	r2, .L8
 118 001a 1360     		str	r3, [r2]
  94:..\..\Common\Minimal/flash.c **** 	}
  95:..\..\Common\Minimal/flash.c **** 	portEXIT_CRITICAL();
 119              		.loc 1 95 0
 120 001c FFF7FEFF 		bl	vPortExitCritical
  96:..\..\Common\Minimal/flash.c **** 
  97:..\..\Common\Minimal/flash.c **** 	xFlashRate = ledFLASH_RATE_BASE + ( ledFLASH_RATE_BASE * ( TickType_t ) uxLED );
 121              		.loc 1 97 0
 122 0020 7B69     		ldr	r3, [r7, #20]
 123 0022 0133     		adds	r3, r3, #1
 124 0024 40F24D12 		movw	r2, #333
 125 0028 02FB03F3 		mul	r3, r2, r3
 126 002c 3B61     		str	r3, [r7, #16]
  98:..\..\Common\Minimal/flash.c **** 	xFlashRate /= portTICK_PERIOD_MS;
  99:..\..\Common\Minimal/flash.c **** 
ARM GAS  C:\Users\Jamie\AppData\Local\Temp\ccM5AyQz.s 			page 5


 100:..\..\Common\Minimal/flash.c **** 	/* We will turn the LED on and off again in the delay period, so each
 101:..\..\Common\Minimal/flash.c **** 	delay is only half the total period. */
 102:..\..\Common\Minimal/flash.c **** 	xFlashRate /= ( TickType_t ) 2;
 127              		.loc 1 102 0
 128 002e 3B69     		ldr	r3, [r7, #16]
 129 0030 5B08     		lsrs	r3, r3, #1
 130 0032 3B61     		str	r3, [r7, #16]
 103:..\..\Common\Minimal/flash.c **** 
 104:..\..\Common\Minimal/flash.c **** 	/* We need to initialise xLastFlashTime prior to the first call to
 105:..\..\Common\Minimal/flash.c **** 	vTaskDelayUntil(). */
 106:..\..\Common\Minimal/flash.c **** 	xLastFlashTime = xTaskGetTickCount();
 131              		.loc 1 106 0
 132 0034 FFF7FEFF 		bl	xTaskGetTickCount
 133 0038 0346     		mov	r3, r0
 134 003a FB60     		str	r3, [r7, #12]
 135              	.L7:
 107:..\..\Common\Minimal/flash.c **** 
 108:..\..\Common\Minimal/flash.c **** 	for(;;)
 109:..\..\Common\Minimal/flash.c **** 	{
 110:..\..\Common\Minimal/flash.c **** 		/* Delay for half the flash period then turn the LED on. */
 111:..\..\Common\Minimal/flash.c **** 		vTaskDelayUntil( &xLastFlashTime, xFlashRate );
 136              		.loc 1 111 0 discriminator 1
 137 003c 07F10C03 		add	r3, r7, #12
 138 0040 1846     		mov	r0, r3
 139 0042 3969     		ldr	r1, [r7, #16]
 140 0044 FFF7FEFF 		bl	vTaskDelayUntil
 112:..\..\Common\Minimal/flash.c **** 		vParTestToggleLED( uxLED );
 141              		.loc 1 112 0 discriminator 1
 142 0048 7869     		ldr	r0, [r7, #20]
 143 004a FFF7FEFF 		bl	vParTestToggleLED
 113:..\..\Common\Minimal/flash.c **** 
 114:..\..\Common\Minimal/flash.c **** 		/* Delay for half the flash period then turn the LED off. */
 115:..\..\Common\Minimal/flash.c **** 		vTaskDelayUntil( &xLastFlashTime, xFlashRate );
 144              		.loc 1 115 0 discriminator 1
 145 004e 07F10C03 		add	r3, r7, #12
 146 0052 1846     		mov	r0, r3
 147 0054 3969     		ldr	r1, [r7, #16]
 148 0056 FFF7FEFF 		bl	vTaskDelayUntil
 116:..\..\Common\Minimal/flash.c **** 		vParTestToggleLED( uxLED );
 149              		.loc 1 116 0 discriminator 1
 150 005a 7869     		ldr	r0, [r7, #20]
 151 005c FFF7FEFF 		bl	vParTestToggleLED
 117:..\..\Common\Minimal/flash.c **** 	}
 152              		.loc 1 117 0 discriminator 1
 153 0060 ECE7     		b	.L7
 154              	.L9:
 155 0062 00BF     		.align	2
 156              	.L8:
 157 0064 00000000 		.word	uxFlashTaskNumber
 158              		.cfi_endproc
 159              	.LFE69:
 160              		.size	vLEDFlashTask, .-vLEDFlashTask
 161              		.text
 162              	.Letext0:
 163              		.file 2 "c:\\program files (x86)\\cypress\\psoc creator\\4.0\\psoc creator\\import\\gnu\\arm\\4.9.
 164              		.file 3 "c:\\program files (x86)\\cypress\\psoc creator\\4.0\\psoc creator\\import\\gnu\\arm\\4.9.
 165              		.file 4 "../../../Source/portable/GCC/ARM_CM3/portmacro.h"
ARM GAS  C:\Users\Jamie\AppData\Local\Temp\ccM5AyQz.s 			page 6


 166              		.file 5 "../../../Source/include/task.h"
 167              		.file 6 "Generated_Source\\PSoC5/core_cm3.h"