ARM GAS  C:\Users\Jamie\AppData\Local\Temp\ccq0V3VC.s 			page 1


   1              		.syntax unified
   2              		.cpu cortex-m3
   3              		.fpu softvfp
   4              		.eabi_attribute 20, 1
   5              		.eabi_attribute 21, 1
   6              		.eabi_attribute 23, 3
   7              		.eabi_attribute 24, 1
   8              		.eabi_attribute 25, 1
   9              		.eabi_attribute 26, 1
  10              		.eabi_attribute 30, 6
  11              		.eabi_attribute 34, 1
  12              		.eabi_attribute 18, 4
  13              		.thumb
  14              		.file	"flop.c"
  15              		.text
  16              	.Ltext0:
  17              		.cfi_sections	.debug_frame
  18              		.bss
  19              		.align	2
  20              	usTaskCheck:
  21 0000 00000000 		.space	8
  21      00000000 
  22              		.section	.rodata
  23              		.align	2
  24              	.LC0:
  25 0000 4D617468 		.ascii	"Math1\000"
  25      3100
  26 0006 0000     		.align	2
  27              	.LC1:
  28 0008 4D617468 		.ascii	"Math2\000"
  28      3200
  29 000e 0000     		.align	2
  30              	.LC2:
  31 0010 4D617468 		.ascii	"Math3\000"
  31      3300
  32 0016 0000     		.align	2
  33              	.LC3:
  34 0018 4D617468 		.ascii	"Math4\000"
  34      3400
  35 001e 0000     		.section	.text.vStartMathTasks,"ax",%progbits
  36              		.align	2
  37              		.global	vStartMathTasks
  38              		.thumb
  39              		.thumb_func
  40              		.type	vStartMathTasks, %function
  41              	vStartMathTasks:
  42              	.LFB68:
  43              		.file 1 "..\\..\\Common\\Minimal\\flop.c"
   1:..\..\Common\Minimal/flop.c **** /*
   2:..\..\Common\Minimal/flop.c ****  * FreeRTOS Kernel V10.0.1
   3:..\..\Common\Minimal/flop.c ****  * Copyright (C) 2017 Amazon.com, Inc. or its affiliates.  All Rights Reserved.
   4:..\..\Common\Minimal/flop.c ****  *
   5:..\..\Common\Minimal/flop.c ****  * Permission is hereby granted, free of charge, to any person obtaining a copy of
   6:..\..\Common\Minimal/flop.c ****  * this software and associated documentation files (the "Software"), to deal in
   7:..\..\Common\Minimal/flop.c ****  * the Software without restriction, including without limitation the rights to
   8:..\..\Common\Minimal/flop.c ****  * use, copy, modify, merge, publish, distribute, sublicense, and/or sell copies of
   9:..\..\Common\Minimal/flop.c ****  * the Software, and to permit persons to whom the Software is furnished to do so,
ARM GAS  C:\Users\Jamie\AppData\Local\Temp\ccq0V3VC.s 			page 2


  10:..\..\Common\Minimal/flop.c ****  * subject to the following conditions:
  11:..\..\Common\Minimal/flop.c ****  *
  12:..\..\Common\Minimal/flop.c ****  * The above copyright notice and this permission notice shall be included in all
  13:..\..\Common\Minimal/flop.c ****  * copies or substantial portions of the Software.
  14:..\..\Common\Minimal/flop.c ****  *
  15:..\..\Common\Minimal/flop.c ****  * THE SOFTWARE IS PROVIDED "AS IS", WITHOUT WARRANTY OF ANY KIND, EXPRESS OR
  16:..\..\Common\Minimal/flop.c ****  * IMPLIED, INCLUDING BUT NOT LIMITED TO THE WARRANTIES OF MERCHANTABILITY, FITNESS
  17:..\..\Common\Minimal/flop.c ****  * FOR A PARTICULAR PURPOSE AND NONINFRINGEMENT. IN NO EVENT SHALL THE AUTHORS OR
  18:..\..\Common\Minimal/flop.c ****  * COPYRIGHT HOLDERS BE LIABLE FOR ANY CLAIM, DAMAGES OR OTHER LIABILITY, WHETHER
  19:..\..\Common\Minimal/flop.c ****  * IN AN ACTION OF CONTRACT, TORT OR OTHERWISE, ARISING FROM, OUT OF OR IN
  20:..\..\Common\Minimal/flop.c ****  * CONNECTION WITH THE SOFTWARE OR THE USE OR OTHER DEALINGS IN THE SOFTWARE.
  21:..\..\Common\Minimal/flop.c ****  *
  22:..\..\Common\Minimal/flop.c ****  * http://www.FreeRTOS.org
  23:..\..\Common\Minimal/flop.c ****  * http://aws.amazon.com/freertos
  24:..\..\Common\Minimal/flop.c ****  *
  25:..\..\Common\Minimal/flop.c ****  * 1 tab == 4 spaces!
  26:..\..\Common\Minimal/flop.c ****  */
  27:..\..\Common\Minimal/flop.c **** 
  28:..\..\Common\Minimal/flop.c **** /*
  29:..\..\Common\Minimal/flop.c ****  * Creates eight tasks, each of which loops continuously performing a floating
  30:..\..\Common\Minimal/flop.c ****  * point calculation.
  31:..\..\Common\Minimal/flop.c ****  *
  32:..\..\Common\Minimal/flop.c ****  * All the tasks run at the idle priority and never block or yield.  This causes
  33:..\..\Common\Minimal/flop.c ****  * all eight tasks to time slice with the idle task.  Running at the idle
  34:..\..\Common\Minimal/flop.c ****  * priority means that these tasks will get pre-empted any time another task is
  35:..\..\Common\Minimal/flop.c ****  * ready to run or a time slice occurs.  More often than not the pre-emption
  36:..\..\Common\Minimal/flop.c ****  * will occur mid calculation, creating a good test of the schedulers context
  37:..\..\Common\Minimal/flop.c ****  * switch mechanism - a calculation producing an unexpected result could be a
  38:..\..\Common\Minimal/flop.c ****  * symptom of a corruption in the context of a task.
  39:..\..\Common\Minimal/flop.c ****  */
  40:..\..\Common\Minimal/flop.c **** 
  41:..\..\Common\Minimal/flop.c **** /* Standard includes. */
  42:..\..\Common\Minimal/flop.c **** #include <stdlib.h>
  43:..\..\Common\Minimal/flop.c **** #include <math.h>
  44:..\..\Common\Minimal/flop.c **** 
  45:..\..\Common\Minimal/flop.c **** /* Scheduler include files. */
  46:..\..\Common\Minimal/flop.c **** #include "FreeRTOS.h"
  47:..\..\Common\Minimal/flop.c **** #include "task.h"
  48:..\..\Common\Minimal/flop.c **** 
  49:..\..\Common\Minimal/flop.c **** /* Demo program include files. */
  50:..\..\Common\Minimal/flop.c **** #include "flop.h"
  51:..\..\Common\Minimal/flop.c **** 
  52:..\..\Common\Minimal/flop.c **** #ifndef mathSTACK_SIZE
  53:..\..\Common\Minimal/flop.c **** 	#define mathSTACK_SIZE		configMINIMAL_STACK_SIZE
  54:..\..\Common\Minimal/flop.c **** #endif
  55:..\..\Common\Minimal/flop.c **** 
  56:..\..\Common\Minimal/flop.c **** #define mathNUMBER_OF_TASKS  ( 4 )
  57:..\..\Common\Minimal/flop.c **** 
  58:..\..\Common\Minimal/flop.c **** /* Four tasks, each of which performs a different floating point calculation.
  59:..\..\Common\Minimal/flop.c **** Each of the four is created twice. */
  60:..\..\Common\Minimal/flop.c **** static portTASK_FUNCTION_PROTO( vCompetingMathTask1, pvParameters );
  61:..\..\Common\Minimal/flop.c **** static portTASK_FUNCTION_PROTO( vCompetingMathTask2, pvParameters );
  62:..\..\Common\Minimal/flop.c **** static portTASK_FUNCTION_PROTO( vCompetingMathTask3, pvParameters );
  63:..\..\Common\Minimal/flop.c **** static portTASK_FUNCTION_PROTO( vCompetingMathTask4, pvParameters );
  64:..\..\Common\Minimal/flop.c **** 
  65:..\..\Common\Minimal/flop.c **** /* These variables are used to check that all the tasks are still running.  If a
  66:..\..\Common\Minimal/flop.c **** task gets a calculation wrong it will stop setting its check variable. */
ARM GAS  C:\Users\Jamie\AppData\Local\Temp\ccq0V3VC.s 			page 3


  67:..\..\Common\Minimal/flop.c **** static uint16_t usTaskCheck[ mathNUMBER_OF_TASKS ] = { ( uint16_t ) 0 };
  68:..\..\Common\Minimal/flop.c **** 
  69:..\..\Common\Minimal/flop.c **** /*-----------------------------------------------------------*/
  70:..\..\Common\Minimal/flop.c **** 
  71:..\..\Common\Minimal/flop.c **** void vStartMathTasks( UBaseType_t uxPriority )
  72:..\..\Common\Minimal/flop.c **** {
  44              		.loc 1 72 0
  45              		.cfi_startproc
  46              		@ args = 0, pretend = 0, frame = 8
  47              		@ frame_needed = 1, uses_anonymous_args = 0
  48 0000 80B5     		push	{r7, lr}
  49              		.cfi_def_cfa_offset 8
  50              		.cfi_offset 7, -8
  51              		.cfi_offset 14, -4
  52 0002 84B0     		sub	sp, sp, #16
  53              		.cfi_def_cfa_offset 24
  54 0004 02AF     		add	r7, sp, #8
  55              		.cfi_def_cfa 7, 16
  56 0006 7860     		str	r0, [r7, #4]
  73:..\..\Common\Minimal/flop.c **** 	xTaskCreate( vCompetingMathTask1, "Math1", mathSTACK_SIZE, ( void * ) &( usTaskCheck[ 0 ] ), uxPri
  57              		.loc 1 73 0
  58 0008 7B68     		ldr	r3, [r7, #4]
  59 000a 0093     		str	r3, [sp]
  60 000c 0023     		movs	r3, #0
  61 000e 0193     		str	r3, [sp, #4]
  62 0010 1348     		ldr	r0, .L2
  63 0012 1449     		ldr	r1, .L2+4
  64 0014 6422     		movs	r2, #100
  65 0016 144B     		ldr	r3, .L2+8
  66 0018 FFF7FEFF 		bl	xTaskCreate
  74:..\..\Common\Minimal/flop.c **** 	xTaskCreate( vCompetingMathTask2, "Math2", mathSTACK_SIZE, ( void * ) &( usTaskCheck[ 1 ] ), uxPri
  67              		.loc 1 74 0
  68 001c 7B68     		ldr	r3, [r7, #4]
  69 001e 0093     		str	r3, [sp]
  70 0020 0023     		movs	r3, #0
  71 0022 0193     		str	r3, [sp, #4]
  72 0024 1148     		ldr	r0, .L2+12
  73 0026 1249     		ldr	r1, .L2+16
  74 0028 6422     		movs	r2, #100
  75 002a 124B     		ldr	r3, .L2+20
  76 002c FFF7FEFF 		bl	xTaskCreate
  75:..\..\Common\Minimal/flop.c **** 	xTaskCreate( vCompetingMathTask3, "Math3", mathSTACK_SIZE, ( void * ) &( usTaskCheck[ 2 ] ), uxPri
  77              		.loc 1 75 0
  78 0030 7B68     		ldr	r3, [r7, #4]
  79 0032 0093     		str	r3, [sp]
  80 0034 0023     		movs	r3, #0
  81 0036 0193     		str	r3, [sp, #4]
  82 0038 0F48     		ldr	r0, .L2+24
  83 003a 1049     		ldr	r1, .L2+28
  84 003c 6422     		movs	r2, #100
  85 003e 104B     		ldr	r3, .L2+32
  86 0040 FFF7FEFF 		bl	xTaskCreate
  76:..\..\Common\Minimal/flop.c **** 	xTaskCreate( vCompetingMathTask4, "Math4", mathSTACK_SIZE, ( void * ) &( usTaskCheck[ 3 ] ), uxPri
  87              		.loc 1 76 0
  88 0044 7B68     		ldr	r3, [r7, #4]
  89 0046 0093     		str	r3, [sp]
  90 0048 0023     		movs	r3, #0
ARM GAS  C:\Users\Jamie\AppData\Local\Temp\ccq0V3VC.s 			page 4


  91 004a 0193     		str	r3, [sp, #4]
  92 004c 0D48     		ldr	r0, .L2+36
  93 004e 0E49     		ldr	r1, .L2+40
  94 0050 6422     		movs	r2, #100
  95 0052 0E4B     		ldr	r3, .L2+44
  96 0054 FFF7FEFF 		bl	xTaskCreate
  77:..\..\Common\Minimal/flop.c **** }
  97              		.loc 1 77 0
  98 0058 0837     		adds	r7, r7, #8
  99              		.cfi_def_cfa_offset 8
 100 005a BD46     		mov	sp, r7
 101              		.cfi_def_cfa_register 13
 102              		@ sp needed
 103 005c 80BD     		pop	{r7, pc}
 104              	.L3:
 105 005e 00BF     		.align	2
 106              	.L2:
 107 0060 00000000 		.word	vCompetingMathTask1
 108 0064 00000000 		.word	.LC0
 109 0068 00000000 		.word	usTaskCheck
 110 006c 00000000 		.word	vCompetingMathTask2
 111 0070 08000000 		.word	.LC1
 112 0074 02000000 		.word	usTaskCheck+2
 113 0078 00000000 		.word	vCompetingMathTask3
 114 007c 10000000 		.word	.LC2
 115 0080 04000000 		.word	usTaskCheck+4
 116 0084 00000000 		.word	vCompetingMathTask4
 117 0088 18000000 		.word	.LC3
 118 008c 06000000 		.word	usTaskCheck+6
 119              		.cfi_endproc
 120              	.LFE68:
 121              		.size	vStartMathTasks, .-vStartMathTasks
 122              		.global	__aeabi_dadd
 123              		.global	__aeabi_dmul
 124              		.global	__aeabi_dsub
 125              		.global	__aeabi_dcmpgt
 126              		.section	.text.vCompetingMathTask1,"ax",%progbits
 127              		.align	2
 128              		.thumb
 129              		.thumb_func
 130              		.type	vCompetingMathTask1, %function
 131              	vCompetingMathTask1:
 132              	.LFB69:
  78:..\..\Common\Minimal/flop.c **** /*-----------------------------------------------------------*/
  79:..\..\Common\Minimal/flop.c **** 
  80:..\..\Common\Minimal/flop.c **** static portTASK_FUNCTION( vCompetingMathTask1, pvParameters )
  81:..\..\Common\Minimal/flop.c **** {
 133              		.loc 1 81 0
 134              		.cfi_startproc
 135              		@ args = 0, pretend = 0, frame = 56
 136              		@ frame_needed = 1, uses_anonymous_args = 0
 137 0000 B0B5     		push	{r4, r5, r7, lr}
 138              		.cfi_def_cfa_offset 16
 139              		.cfi_offset 4, -16
 140              		.cfi_offset 5, -12
 141              		.cfi_offset 7, -8
 142              		.cfi_offset 14, -4
ARM GAS  C:\Users\Jamie\AppData\Local\Temp\ccq0V3VC.s 			page 5


 143 0002 8EB0     		sub	sp, sp, #56
 144              		.cfi_def_cfa_offset 72
 145 0004 00AF     		add	r7, sp, #0
 146              		.cfi_def_cfa_register 7
 147 0006 7860     		str	r0, [r7, #4]
  82:..\..\Common\Minimal/flop.c **** volatile portDOUBLE d1, d2, d3, d4;
  83:..\..\Common\Minimal/flop.c **** volatile uint16_t *pusTaskCheckVariable;
  84:..\..\Common\Minimal/flop.c **** volatile portDOUBLE dAnswer;
  85:..\..\Common\Minimal/flop.c **** short sError = pdFALSE;
 148              		.loc 1 85 0
 149 0008 0023     		movs	r3, #0
 150 000a FB86     		strh	r3, [r7, #54]	@ movhi
  86:..\..\Common\Minimal/flop.c **** 
  87:..\..\Common\Minimal/flop.c **** 	/* Some ports require that tasks that use a hardware floating point unit
  88:..\..\Common\Minimal/flop.c **** 	tell the kernel that they require a floating point context before any
  89:..\..\Common\Minimal/flop.c **** 	floating point instructions are executed. */
  90:..\..\Common\Minimal/flop.c **** 	portTASK_USES_FLOATING_POINT();
  91:..\..\Common\Minimal/flop.c **** 
  92:..\..\Common\Minimal/flop.c **** 	d1 = 123.4567;
 151              		.loc 1 92 0
 152 000c 32A3     		adr	r3, .L10
 153 000e D3E90023 		ldrd	r2, [r3]
 154 0012 C7E90A23 		strd	r2, [r7, #40]
  93:..\..\Common\Minimal/flop.c **** 	d2 = 2345.6789;
 155              		.loc 1 93 0
 156 0016 32A3     		adr	r3, .L10+8
 157 0018 D3E90023 		ldrd	r2, [r3]
 158 001c C7E90823 		strd	r2, [r7, #32]
  94:..\..\Common\Minimal/flop.c **** 	d3 = -918.222;
 159              		.loc 1 94 0
 160 0020 31A3     		adr	r3, .L10+16
 161 0022 D3E90023 		ldrd	r2, [r3]
 162 0026 C7E90623 		strd	r2, [r7, #24]
  95:..\..\Common\Minimal/flop.c **** 
  96:..\..\Common\Minimal/flop.c **** 	dAnswer = ( d1 + d2 ) * d3;
 163              		.loc 1 96 0
 164 002a D7E90A01 		ldrd	r0, [r7, #40]
 165 002e D7E90823 		ldrd	r2, [r7, #32]
 166 0032 FFF7FEFF 		bl	__aeabi_dadd
 167 0036 0246     		mov	r2, r0
 168 0038 0B46     		mov	r3, r1
 169 003a 1046     		mov	r0, r2
 170 003c 1946     		mov	r1, r3
 171 003e D7E90623 		ldrd	r2, [r7, #24]
 172 0042 FFF7FEFF 		bl	__aeabi_dmul
 173 0046 0246     		mov	r2, r0
 174 0048 0B46     		mov	r3, r1
 175 004a C7E90223 		strd	r2, [r7, #8]
  97:..\..\Common\Minimal/flop.c **** 
  98:..\..\Common\Minimal/flop.c **** 	/* The variable this task increments to show it is still running is passed in
  99:..\..\Common\Minimal/flop.c **** 	as the parameter. */
 100:..\..\Common\Minimal/flop.c **** 	pusTaskCheckVariable = ( volatile uint16_t * ) pvParameters;
 176              		.loc 1 100 0
 177 004e 7B68     		ldr	r3, [r7, #4]
 178 0050 3B63     		str	r3, [r7, #48]
 179              	.L8:
 101:..\..\Common\Minimal/flop.c **** 
ARM GAS  C:\Users\Jamie\AppData\Local\Temp\ccq0V3VC.s 			page 6


 102:..\..\Common\Minimal/flop.c **** 	/* Keep performing a calculation and checking the result against a constant. */
 103:..\..\Common\Minimal/flop.c **** 	for(;;)
 104:..\..\Common\Minimal/flop.c **** 	{
 105:..\..\Common\Minimal/flop.c **** 		d1 = 123.4567;
 180              		.loc 1 105 0
 181 0052 21A3     		adr	r3, .L10
 182 0054 D3E90023 		ldrd	r2, [r3]
 183 0058 C7E90A23 		strd	r2, [r7, #40]
 106:..\..\Common\Minimal/flop.c **** 		d2 = 2345.6789;
 184              		.loc 1 106 0
 185 005c 20A3     		adr	r3, .L10+8
 186 005e D3E90023 		ldrd	r2, [r3]
 187 0062 C7E90823 		strd	r2, [r7, #32]
 107:..\..\Common\Minimal/flop.c **** 		d3 = -918.222;
 188              		.loc 1 107 0
 189 0066 20A3     		adr	r3, .L10+16
 190 0068 D3E90023 		ldrd	r2, [r3]
 191 006c C7E90623 		strd	r2, [r7, #24]
 108:..\..\Common\Minimal/flop.c **** 
 109:..\..\Common\Minimal/flop.c **** 		d4 = ( d1 + d2 ) * d3;
 192              		.loc 1 109 0
 193 0070 D7E90A01 		ldrd	r0, [r7, #40]
 194 0074 D7E90823 		ldrd	r2, [r7, #32]
 195 0078 FFF7FEFF 		bl	__aeabi_dadd
 196 007c 0246     		mov	r2, r0
 197 007e 0B46     		mov	r3, r1
 198 0080 1046     		mov	r0, r2
 199 0082 1946     		mov	r1, r3
 200 0084 D7E90623 		ldrd	r2, [r7, #24]
 201 0088 FFF7FEFF 		bl	__aeabi_dmul
 202 008c 0246     		mov	r2, r0
 203 008e 0B46     		mov	r3, r1
 204 0090 C7E90423 		strd	r2, [r7, #16]
 110:..\..\Common\Minimal/flop.c **** 
 111:..\..\Common\Minimal/flop.c **** 		#if configUSE_PREEMPTION == 0
 112:..\..\Common\Minimal/flop.c **** 			taskYIELD();
 113:..\..\Common\Minimal/flop.c **** 		#endif
 114:..\..\Common\Minimal/flop.c **** 
 115:..\..\Common\Minimal/flop.c **** 		/* If the calculation does not match the expected constant, stop the
 116:..\..\Common\Minimal/flop.c **** 		increment of the check variable. */
 117:..\..\Common\Minimal/flop.c **** 		if( fabs( d4 - dAnswer ) > 0.001 )
 205              		.loc 1 117 0
 206 0094 D7E90401 		ldrd	r0, [r7, #16]
 207 0098 D7E90223 		ldrd	r2, [r7, #8]
 208 009c FFF7FEFF 		bl	__aeabi_dsub
 209 00a0 0246     		mov	r2, r0
 210 00a2 0B46     		mov	r3, r1
 211 00a4 1446     		mov	r4, r2
 212 00a6 23F00045 		bic	r5, r3, #-2147483648
 213 00aa 2046     		mov	r0, r4
 214 00ac 2946     		mov	r1, r5
 215 00ae 10A3     		adr	r3, .L10+24
 216 00b0 D3E90023 		ldrd	r2, [r3]
 217 00b4 FFF7FEFF 		bl	__aeabi_dcmpgt
 218 00b8 0346     		mov	r3, r0
 219 00ba 002B     		cmp	r3, #0
 220 00bc 01D0     		beq	.L5
ARM GAS  C:\Users\Jamie\AppData\Local\Temp\ccq0V3VC.s 			page 7


 118:..\..\Common\Minimal/flop.c **** 		{
 119:..\..\Common\Minimal/flop.c **** 			sError = pdTRUE;
 221              		.loc 1 119 0
 222 00be 0123     		movs	r3, #1
 223 00c0 FB86     		strh	r3, [r7, #54]	@ movhi
 224              	.L5:
 120:..\..\Common\Minimal/flop.c **** 		}
 121:..\..\Common\Minimal/flop.c **** 
 122:..\..\Common\Minimal/flop.c **** 		if( sError == pdFALSE )
 225              		.loc 1 122 0
 226 00c2 B7F93630 		ldrsh	r3, [r7, #54]
 227 00c6 002B     		cmp	r3, #0
 228 00c8 02D1     		bne	.L7
 123:..\..\Common\Minimal/flop.c **** 		{
 124:..\..\Common\Minimal/flop.c **** 			/* If the calculation has always been correct then set set the check
 125:..\..\Common\Minimal/flop.c **** 			variable.  The check variable will get set to pdFALSE each time
 126:..\..\Common\Minimal/flop.c **** 			xAreMathsTaskStillRunning() is executed. */
 127:..\..\Common\Minimal/flop.c **** 			( *pusTaskCheckVariable ) = pdTRUE;
 229              		.loc 1 127 0
 230 00ca 3B6B     		ldr	r3, [r7, #48]
 231 00cc 0122     		movs	r2, #1
 232 00ce 1A80     		strh	r2, [r3]	@ movhi
 233              	.L7:
 128:..\..\Common\Minimal/flop.c **** 		}
 129:..\..\Common\Minimal/flop.c **** 
 130:..\..\Common\Minimal/flop.c **** 		#if configUSE_PREEMPTION == 0
 131:..\..\Common\Minimal/flop.c **** 			taskYIELD();
 132:..\..\Common\Minimal/flop.c **** 		#endif
 133:..\..\Common\Minimal/flop.c **** 
 134:..\..\Common\Minimal/flop.c **** 	}
 234              		.loc 1 134 0
 235 00d0 BFE7     		b	.L8
 236              	.L11:
 237 00d2 00BFAFF3 		.align	3
 237      0080
 238              	.L10:
 239 00d8 5305A392 		.word	-1834810029
 240 00dc 3ADD5E40 		.word	1079958842
 241 00e0 82E2C798 		.word	-1731730814
 242 00e4 5B53A240 		.word	1084379995
 243 00e8 B29DEFA7 		.word	-1477468750
 244 00ec C6B18CC0 		.word	-1064521274
 245 00f0 FCA9F1D2 		.word	-755914244
 246 00f4 4D62503F 		.word	1062232653
 247              		.cfi_endproc
 248              	.LFE69:
 249              		.size	vCompetingMathTask1, .-vCompetingMathTask1
 250              		.global	__aeabi_ddiv
 251              		.section	.text.vCompetingMathTask2,"ax",%progbits
 252              		.align	2
 253              		.thumb
 254              		.thumb_func
 255              		.type	vCompetingMathTask2, %function
 256              	vCompetingMathTask2:
 257              	.LFB70:
 135:..\..\Common\Minimal/flop.c **** }
 136:..\..\Common\Minimal/flop.c **** /*-----------------------------------------------------------*/
ARM GAS  C:\Users\Jamie\AppData\Local\Temp\ccq0V3VC.s 			page 8


 137:..\..\Common\Minimal/flop.c **** 
 138:..\..\Common\Minimal/flop.c **** static portTASK_FUNCTION( vCompetingMathTask2, pvParameters )
 139:..\..\Common\Minimal/flop.c **** {
 258              		.loc 1 139 0
 259              		.cfi_startproc
 260              		@ args = 0, pretend = 0, frame = 56
 261              		@ frame_needed = 1, uses_anonymous_args = 0
 262 0000 B0B5     		push	{r4, r5, r7, lr}
 263              		.cfi_def_cfa_offset 16
 264              		.cfi_offset 4, -16
 265              		.cfi_offset 5, -12
 266              		.cfi_offset 7, -8
 267              		.cfi_offset 14, -4
 268 0002 8EB0     		sub	sp, sp, #56
 269              		.cfi_def_cfa_offset 72
 270 0004 00AF     		add	r7, sp, #0
 271              		.cfi_def_cfa_register 7
 272 0006 7860     		str	r0, [r7, #4]
 140:..\..\Common\Minimal/flop.c **** volatile portDOUBLE d1, d2, d3, d4;
 141:..\..\Common\Minimal/flop.c **** volatile uint16_t *pusTaskCheckVariable;
 142:..\..\Common\Minimal/flop.c **** volatile portDOUBLE dAnswer;
 143:..\..\Common\Minimal/flop.c **** short sError = pdFALSE;
 273              		.loc 1 143 0
 274 0008 0023     		movs	r3, #0
 275 000a FB86     		strh	r3, [r7, #54]	@ movhi
 144:..\..\Common\Minimal/flop.c **** 
 145:..\..\Common\Minimal/flop.c **** 	/* Some ports require that tasks that use a hardware floating point unit
 146:..\..\Common\Minimal/flop.c **** 	tell the kernel that they require a floating point context before any
 147:..\..\Common\Minimal/flop.c **** 	floating point instructions are executed. */
 148:..\..\Common\Minimal/flop.c **** 	portTASK_USES_FLOATING_POINT();
 149:..\..\Common\Minimal/flop.c **** 
 150:..\..\Common\Minimal/flop.c **** 	d1 = -389.38;
 276              		.loc 1 150 0
 277 000c 32A3     		adr	r3, .L18
 278 000e D3E90023 		ldrd	r2, [r3]
 279 0012 C7E90A23 		strd	r2, [r7, #40]
 151:..\..\Common\Minimal/flop.c **** 	d2 = 32498.2;
 280              		.loc 1 151 0
 281 0016 32A3     		adr	r3, .L18+8
 282 0018 D3E90023 		ldrd	r2, [r3]
 283 001c C7E90823 		strd	r2, [r7, #32]
 152:..\..\Common\Minimal/flop.c **** 	d3 = -2.0001;
 284              		.loc 1 152 0
 285 0020 31A3     		adr	r3, .L18+16
 286 0022 D3E90023 		ldrd	r2, [r3]
 287 0026 C7E90623 		strd	r2, [r7, #24]
 153:..\..\Common\Minimal/flop.c **** 
 154:..\..\Common\Minimal/flop.c **** 	dAnswer = ( d1 / d2 ) * d3;
 288              		.loc 1 154 0
 289 002a D7E90A01 		ldrd	r0, [r7, #40]
 290 002e D7E90823 		ldrd	r2, [r7, #32]
 291 0032 FFF7FEFF 		bl	__aeabi_ddiv
 292 0036 0246     		mov	r2, r0
 293 0038 0B46     		mov	r3, r1
 294 003a 1046     		mov	r0, r2
 295 003c 1946     		mov	r1, r3
 296 003e D7E90623 		ldrd	r2, [r7, #24]
ARM GAS  C:\Users\Jamie\AppData\Local\Temp\ccq0V3VC.s 			page 9


 297 0042 FFF7FEFF 		bl	__aeabi_dmul
 298 0046 0246     		mov	r2, r0
 299 0048 0B46     		mov	r3, r1
 300 004a C7E90223 		strd	r2, [r7, #8]
 155:..\..\Common\Minimal/flop.c **** 
 156:..\..\Common\Minimal/flop.c **** 
 157:..\..\Common\Minimal/flop.c **** 	/* The variable this task increments to show it is still running is passed in
 158:..\..\Common\Minimal/flop.c **** 	as the parameter. */
 159:..\..\Common\Minimal/flop.c **** 	pusTaskCheckVariable = ( volatile uint16_t * ) pvParameters;
 301              		.loc 1 159 0
 302 004e 7B68     		ldr	r3, [r7, #4]
 303 0050 3B63     		str	r3, [r7, #48]
 304              	.L16:
 160:..\..\Common\Minimal/flop.c **** 
 161:..\..\Common\Minimal/flop.c **** 	/* Keep performing a calculation and checking the result against a constant. */
 162:..\..\Common\Minimal/flop.c **** 	for( ;; )
 163:..\..\Common\Minimal/flop.c **** 	{
 164:..\..\Common\Minimal/flop.c **** 		d1 = -389.38;
 305              		.loc 1 164 0
 306 0052 21A3     		adr	r3, .L18
 307 0054 D3E90023 		ldrd	r2, [r3]
 308 0058 C7E90A23 		strd	r2, [r7, #40]
 165:..\..\Common\Minimal/flop.c **** 		d2 = 32498.2;
 309              		.loc 1 165 0
 310 005c 20A3     		adr	r3, .L18+8
 311 005e D3E90023 		ldrd	r2, [r3]
 312 0062 C7E90823 		strd	r2, [r7, #32]
 166:..\..\Common\Minimal/flop.c **** 		d3 = -2.0001;
 313              		.loc 1 166 0
 314 0066 20A3     		adr	r3, .L18+16
 315 0068 D3E90023 		ldrd	r2, [r3]
 316 006c C7E90623 		strd	r2, [r7, #24]
 167:..\..\Common\Minimal/flop.c **** 
 168:..\..\Common\Minimal/flop.c **** 		d4 = ( d1 / d2 ) * d3;
 317              		.loc 1 168 0
 318 0070 D7E90A01 		ldrd	r0, [r7, #40]
 319 0074 D7E90823 		ldrd	r2, [r7, #32]
 320 0078 FFF7FEFF 		bl	__aeabi_ddiv
 321 007c 0246     		mov	r2, r0
 322 007e 0B46     		mov	r3, r1
 323 0080 1046     		mov	r0, r2
 324 0082 1946     		mov	r1, r3
 325 0084 D7E90623 		ldrd	r2, [r7, #24]
 326 0088 FFF7FEFF 		bl	__aeabi_dmul
 327 008c 0246     		mov	r2, r0
 328 008e 0B46     		mov	r3, r1
 329 0090 C7E90423 		strd	r2, [r7, #16]
 169:..\..\Common\Minimal/flop.c **** 
 170:..\..\Common\Minimal/flop.c **** 		#if configUSE_PREEMPTION == 0
 171:..\..\Common\Minimal/flop.c **** 			taskYIELD();
 172:..\..\Common\Minimal/flop.c **** 		#endif
 173:..\..\Common\Minimal/flop.c **** 
 174:..\..\Common\Minimal/flop.c **** 		/* If the calculation does not match the expected constant, stop the
 175:..\..\Common\Minimal/flop.c **** 		increment of the check variable. */
 176:..\..\Common\Minimal/flop.c **** 		if( fabs( d4 - dAnswer ) > 0.001 )
 330              		.loc 1 176 0
 331 0094 D7E90401 		ldrd	r0, [r7, #16]
ARM GAS  C:\Users\Jamie\AppData\Local\Temp\ccq0V3VC.s 			page 10


 332 0098 D7E90223 		ldrd	r2, [r7, #8]
 333 009c FFF7FEFF 		bl	__aeabi_dsub
 334 00a0 0246     		mov	r2, r0
 335 00a2 0B46     		mov	r3, r1
 336 00a4 1446     		mov	r4, r2
 337 00a6 23F00045 		bic	r5, r3, #-2147483648
 338 00aa 2046     		mov	r0, r4
 339 00ac 2946     		mov	r1, r5
 340 00ae 10A3     		adr	r3, .L18+24
 341 00b0 D3E90023 		ldrd	r2, [r3]
 342 00b4 FFF7FEFF 		bl	__aeabi_dcmpgt
 343 00b8 0346     		mov	r3, r0
 344 00ba 002B     		cmp	r3, #0
 345 00bc 01D0     		beq	.L13
 177:..\..\Common\Minimal/flop.c **** 		{
 178:..\..\Common\Minimal/flop.c **** 			sError = pdTRUE;
 346              		.loc 1 178 0
 347 00be 0123     		movs	r3, #1
 348 00c0 FB86     		strh	r3, [r7, #54]	@ movhi
 349              	.L13:
 179:..\..\Common\Minimal/flop.c **** 		}
 180:..\..\Common\Minimal/flop.c **** 
 181:..\..\Common\Minimal/flop.c **** 		if( sError == pdFALSE )
 350              		.loc 1 181 0
 351 00c2 B7F93630 		ldrsh	r3, [r7, #54]
 352 00c6 002B     		cmp	r3, #0
 353 00c8 02D1     		bne	.L15
 182:..\..\Common\Minimal/flop.c **** 		{
 183:..\..\Common\Minimal/flop.c **** 			/* If the calculation has always been correct then set set the check
 184:..\..\Common\Minimal/flop.c **** 			variable.  The check variable will get set to pdFALSE each time
 185:..\..\Common\Minimal/flop.c **** 			xAreMathsTaskStillRunning() is executed. */
 186:..\..\Common\Minimal/flop.c **** 			( *pusTaskCheckVariable ) = pdTRUE;
 354              		.loc 1 186 0
 355 00ca 3B6B     		ldr	r3, [r7, #48]
 356 00cc 0122     		movs	r2, #1
 357 00ce 1A80     		strh	r2, [r3]	@ movhi
 358              	.L15:
 187:..\..\Common\Minimal/flop.c **** 		}
 188:..\..\Common\Minimal/flop.c **** 
 189:..\..\Common\Minimal/flop.c **** 		#if configUSE_PREEMPTION == 0
 190:..\..\Common\Minimal/flop.c **** 			taskYIELD();
 191:..\..\Common\Minimal/flop.c **** 		#endif
 192:..\..\Common\Minimal/flop.c **** 	}
 359              		.loc 1 192 0
 360 00d0 BFE7     		b	.L16
 361              	.L19:
 362 00d2 00BFAFF3 		.align	3
 362      0080
 363              	.L18:
 364 00d8 AE47E17A 		.word	2061584302
 365 00dc 145678C0 		.word	-1065855468
 366 00e0 CDCCCCCC 		.word	-858993459
 367 00e4 8CBCDF40 		.word	1088404620
 368 00e8 39D6C56D 		.word	1841681977
 369 00ec 340000C0 		.word	-1073741772
 370 00f0 FCA9F1D2 		.word	-755914244
 371 00f4 4D62503F 		.word	1062232653
ARM GAS  C:\Users\Jamie\AppData\Local\Temp\ccq0V3VC.s 			page 11


 372              		.cfi_endproc
 373              	.LFE70:
 374              		.size	vCompetingMathTask2, .-vCompetingMathTask2
 375              		.global	__aeabi_ui2d
 376              		.section	.text.vCompetingMathTask3,"ax",%progbits
 377              		.align	2
 378              		.thumb
 379              		.thumb_func
 380              		.type	vCompetingMathTask3, %function
 381              	vCompetingMathTask3:
 382              	.LFB71:
 193:..\..\Common\Minimal/flop.c **** }
 194:..\..\Common\Minimal/flop.c **** /*-----------------------------------------------------------*/
 195:..\..\Common\Minimal/flop.c **** 
 196:..\..\Common\Minimal/flop.c **** static portTASK_FUNCTION( vCompetingMathTask3, pvParameters )
 197:..\..\Common\Minimal/flop.c **** {
 383              		.loc 1 197 0
 384              		.cfi_startproc
 385              		@ args = 0, pretend = 0, frame = 56
 386              		@ frame_needed = 1, uses_anonymous_args = 0
 387 0000 F0B5     		push	{r4, r5, r6, r7, lr}
 388              		.cfi_def_cfa_offset 20
 389              		.cfi_offset 4, -20
 390              		.cfi_offset 5, -16
 391              		.cfi_offset 6, -12
 392              		.cfi_offset 7, -8
 393              		.cfi_offset 14, -4
 394 0002 8FB0     		sub	sp, sp, #60
 395              		.cfi_def_cfa_offset 80
 396 0004 00AF     		add	r7, sp, #0
 397              		.cfi_def_cfa_register 7
 398 0006 7860     		str	r0, [r7, #4]
 198:..\..\Common\Minimal/flop.c **** volatile portDOUBLE *pdArray, dTotal1, dTotal2, dDifference;
 199:..\..\Common\Minimal/flop.c **** volatile uint16_t *pusTaskCheckVariable;
 200:..\..\Common\Minimal/flop.c **** const size_t xArraySize = 10;
 399              		.loc 1 200 0
 400 0008 0A23     		movs	r3, #10
 401 000a FB62     		str	r3, [r7, #44]
 201:..\..\Common\Minimal/flop.c **** size_t xPosition;
 202:..\..\Common\Minimal/flop.c **** short sError = pdFALSE;
 402              		.loc 1 202 0
 403 000c 0023     		movs	r3, #0
 404 000e 7B86     		strh	r3, [r7, #50]	@ movhi
 203:..\..\Common\Minimal/flop.c **** 
 204:..\..\Common\Minimal/flop.c **** 	/* Some ports require that tasks that use a hardware floating point unit
 205:..\..\Common\Minimal/flop.c **** 	tell the kernel that they require a floating point context before any
 206:..\..\Common\Minimal/flop.c **** 	floating point instructions are executed. */
 207:..\..\Common\Minimal/flop.c **** 	portTASK_USES_FLOATING_POINT();
 208:..\..\Common\Minimal/flop.c **** 
 209:..\..\Common\Minimal/flop.c **** 	/* The variable this task increments to show it is still running is passed in
 210:..\..\Common\Minimal/flop.c **** 	as the parameter. */
 211:..\..\Common\Minimal/flop.c **** 	pusTaskCheckVariable = ( volatile uint16_t * ) pvParameters;
 405              		.loc 1 211 0
 406 0010 7B68     		ldr	r3, [r7, #4]
 407 0012 BB62     		str	r3, [r7, #40]
 212:..\..\Common\Minimal/flop.c **** 
 213:..\..\Common\Minimal/flop.c **** 	pdArray = ( portDOUBLE * ) pvPortMalloc( xArraySize * sizeof( portDOUBLE ) );
ARM GAS  C:\Users\Jamie\AppData\Local\Temp\ccq0V3VC.s 			page 12


 408              		.loc 1 213 0
 409 0014 FB6A     		ldr	r3, [r7, #44]
 410 0016 DB00     		lsls	r3, r3, #3
 411 0018 1846     		mov	r0, r3
 412 001a FFF7FEFF 		bl	pvPortMalloc
 413 001e 7862     		str	r0, [r7, #36]
 414              	.L28:
 214:..\..\Common\Minimal/flop.c **** 
 215:..\..\Common\Minimal/flop.c **** 	/* Keep filling an array, keeping a running total of the values placed in the
 216:..\..\Common\Minimal/flop.c **** 	array.  Then run through the array adding up all the values.  If the two totals
 217:..\..\Common\Minimal/flop.c **** 	do not match, stop the check variable from incrementing. */
 218:..\..\Common\Minimal/flop.c **** 	for( ;; )
 219:..\..\Common\Minimal/flop.c **** 	{
 220:..\..\Common\Minimal/flop.c **** 		dTotal1 = 0.0;
 415              		.loc 1 220 0
 416 0020 4FF00002 		mov	r2, #0
 417 0024 4FF00003 		mov	r3, #0
 418 0028 C7E90623 		strd	r2, [r7, #24]
 221:..\..\Common\Minimal/flop.c **** 		dTotal2 = 0.0;
 419              		.loc 1 221 0
 420 002c 4FF00002 		mov	r2, #0
 421 0030 4FF00003 		mov	r3, #0
 422 0034 C7E90423 		strd	r2, [r7, #16]
 222:..\..\Common\Minimal/flop.c **** 
 223:..\..\Common\Minimal/flop.c **** 		for( xPosition = 0; xPosition < xArraySize; xPosition++ )
 423              		.loc 1 223 0
 424 0038 0023     		movs	r3, #0
 425 003a 7B63     		str	r3, [r7, #52]
 426 003c 2EE0     		b	.L21
 427              	.L22:
 224:..\..\Common\Minimal/flop.c **** 		{
 225:..\..\Common\Minimal/flop.c **** 			pdArray[ xPosition ] = ( portDOUBLE ) xPosition + 5.5;
 428              		.loc 1 225 0 discriminator 3
 429 003e 7B6B     		ldr	r3, [r7, #52]
 430 0040 DB00     		lsls	r3, r3, #3
 431 0042 7A6A     		ldr	r2, [r7, #36]
 432 0044 D618     		adds	r6, r2, r3
 433 0046 786B     		ldr	r0, [r7, #52]
 434 0048 FFF7FEFF 		bl	__aeabi_ui2d
 435 004c 0246     		mov	r2, r0
 436 004e 0B46     		mov	r3, r1
 437 0050 1046     		mov	r0, r2
 438 0052 1946     		mov	r1, r3
 439 0054 4FF00002 		mov	r2, #0
 440 0058 334B     		ldr	r3, .L30+8
 441 005a FFF7FEFF 		bl	__aeabi_dadd
 442 005e 0246     		mov	r2, r0
 443 0060 0B46     		mov	r3, r1
 444 0062 C6E90023 		strd	r2, [r6]
 226:..\..\Common\Minimal/flop.c **** 			dTotal1 += ( portDOUBLE ) xPosition + 5.5;
 445              		.loc 1 226 0 discriminator 3
 446 0066 786B     		ldr	r0, [r7, #52]
 447 0068 FFF7FEFF 		bl	__aeabi_ui2d
 448 006c 0246     		mov	r2, r0
 449 006e 0B46     		mov	r3, r1
 450 0070 1046     		mov	r0, r2
 451 0072 1946     		mov	r1, r3
ARM GAS  C:\Users\Jamie\AppData\Local\Temp\ccq0V3VC.s 			page 13


 452 0074 4FF00002 		mov	r2, #0
 453 0078 2B4B     		ldr	r3, .L30+8
 454 007a FFF7FEFF 		bl	__aeabi_dadd
 455 007e 0246     		mov	r2, r0
 456 0080 0B46     		mov	r3, r1
 457 0082 1046     		mov	r0, r2
 458 0084 1946     		mov	r1, r3
 459 0086 D7E90623 		ldrd	r2, [r7, #24]
 460 008a FFF7FEFF 		bl	__aeabi_dadd
 461 008e 0246     		mov	r2, r0
 462 0090 0B46     		mov	r3, r1
 463 0092 C7E90623 		strd	r2, [r7, #24]
 223:..\..\Common\Minimal/flop.c **** 		{
 464              		.loc 1 223 0 discriminator 3
 465 0096 7B6B     		ldr	r3, [r7, #52]
 466 0098 0133     		adds	r3, r3, #1
 467 009a 7B63     		str	r3, [r7, #52]
 468              	.L21:
 223:..\..\Common\Minimal/flop.c **** 		{
 469              		.loc 1 223 0 is_stmt 0 discriminator 1
 470 009c 7A6B     		ldr	r2, [r7, #52]
 471 009e FB6A     		ldr	r3, [r7, #44]
 472 00a0 9A42     		cmp	r2, r3
 473 00a2 CCD3     		bcc	.L22
 227:..\..\Common\Minimal/flop.c **** 		}
 228:..\..\Common\Minimal/flop.c **** 
 229:..\..\Common\Minimal/flop.c **** 		#if configUSE_PREEMPTION == 0
 230:..\..\Common\Minimal/flop.c **** 			taskYIELD();
 231:..\..\Common\Minimal/flop.c **** 		#endif
 232:..\..\Common\Minimal/flop.c **** 
 233:..\..\Common\Minimal/flop.c **** 		for( xPosition = 0; xPosition < xArraySize; xPosition++ )
 474              		.loc 1 233 0 is_stmt 1
 475 00a4 0023     		movs	r3, #0
 476 00a6 7B63     		str	r3, [r7, #52]
 477 00a8 10E0     		b	.L23
 478              	.L24:
 234:..\..\Common\Minimal/flop.c **** 		{
 235:..\..\Common\Minimal/flop.c **** 			dTotal2 += pdArray[ xPosition ];
 479              		.loc 1 235 0 discriminator 3
 480 00aa 7B6B     		ldr	r3, [r7, #52]
 481 00ac DB00     		lsls	r3, r3, #3
 482 00ae 7A6A     		ldr	r2, [r7, #36]
 483 00b0 1344     		add	r3, r3, r2
 484 00b2 D3E90001 		ldrd	r0, [r3]
 485 00b6 D7E90423 		ldrd	r2, [r7, #16]
 486 00ba FFF7FEFF 		bl	__aeabi_dadd
 487 00be 0246     		mov	r2, r0
 488 00c0 0B46     		mov	r3, r1
 489 00c2 C7E90423 		strd	r2, [r7, #16]
 233:..\..\Common\Minimal/flop.c **** 		{
 490              		.loc 1 233 0 discriminator 3
 491 00c6 7B6B     		ldr	r3, [r7, #52]
 492 00c8 0133     		adds	r3, r3, #1
 493 00ca 7B63     		str	r3, [r7, #52]
 494              	.L23:
 233:..\..\Common\Minimal/flop.c **** 		{
 495              		.loc 1 233 0 is_stmt 0 discriminator 1
ARM GAS  C:\Users\Jamie\AppData\Local\Temp\ccq0V3VC.s 			page 14


 496 00cc 7A6B     		ldr	r2, [r7, #52]
 497 00ce FB6A     		ldr	r3, [r7, #44]
 498 00d0 9A42     		cmp	r2, r3
 499 00d2 EAD3     		bcc	.L24
 236:..\..\Common\Minimal/flop.c **** 		}
 237:..\..\Common\Minimal/flop.c **** 
 238:..\..\Common\Minimal/flop.c **** 		dDifference = dTotal1 - dTotal2;
 500              		.loc 1 238 0 is_stmt 1
 501 00d4 D7E90601 		ldrd	r0, [r7, #24]
 502 00d8 D7E90423 		ldrd	r2, [r7, #16]
 503 00dc FFF7FEFF 		bl	__aeabi_dsub
 504 00e0 0246     		mov	r2, r0
 505 00e2 0B46     		mov	r3, r1
 506 00e4 C7E90223 		strd	r2, [r7, #8]
 239:..\..\Common\Minimal/flop.c **** 		if( fabs( dDifference ) > 0.001 )
 507              		.loc 1 239 0
 508 00e8 D7E90223 		ldrd	r2, [r7, #8]
 509 00ec 1446     		mov	r4, r2
 510 00ee 23F00045 		bic	r5, r3, #-2147483648
 511 00f2 2046     		mov	r0, r4
 512 00f4 2946     		mov	r1, r5
 513 00f6 0AA3     		adr	r3, .L30
 514 00f8 D3E90023 		ldrd	r2, [r3]
 515 00fc FFF7FEFF 		bl	__aeabi_dcmpgt
 516 0100 0346     		mov	r3, r0
 517 0102 002B     		cmp	r3, #0
 518 0104 01D0     		beq	.L25
 240:..\..\Common\Minimal/flop.c **** 		{
 241:..\..\Common\Minimal/flop.c **** 			sError = pdTRUE;
 519              		.loc 1 241 0
 520 0106 0123     		movs	r3, #1
 521 0108 7B86     		strh	r3, [r7, #50]	@ movhi
 522              	.L25:
 242:..\..\Common\Minimal/flop.c **** 		}
 243:..\..\Common\Minimal/flop.c **** 
 244:..\..\Common\Minimal/flop.c **** 		#if configUSE_PREEMPTION == 0
 245:..\..\Common\Minimal/flop.c **** 			taskYIELD();
 246:..\..\Common\Minimal/flop.c **** 		#endif
 247:..\..\Common\Minimal/flop.c **** 
 248:..\..\Common\Minimal/flop.c **** 		if( sError == pdFALSE )
 523              		.loc 1 248 0
 524 010a B7F93230 		ldrsh	r3, [r7, #50]
 525 010e 002B     		cmp	r3, #0
 526 0110 02D1     		bne	.L27
 249:..\..\Common\Minimal/flop.c **** 		{
 250:..\..\Common\Minimal/flop.c **** 			/* If the calculation has always been correct then set set the check
 251:..\..\Common\Minimal/flop.c **** 			variable.  The check variable will get set to pdFALSE each time
 252:..\..\Common\Minimal/flop.c **** 			xAreMathsTaskStillRunning() is executed. */
 253:..\..\Common\Minimal/flop.c **** 			( *pusTaskCheckVariable ) = pdTRUE;
 527              		.loc 1 253 0
 528 0112 BB6A     		ldr	r3, [r7, #40]
 529 0114 0122     		movs	r2, #1
 530 0116 1A80     		strh	r2, [r3]	@ movhi
 531              	.L27:
 254:..\..\Common\Minimal/flop.c **** 		}
 255:..\..\Common\Minimal/flop.c **** 	}
 532              		.loc 1 255 0
ARM GAS  C:\Users\Jamie\AppData\Local\Temp\ccq0V3VC.s 			page 15


 533 0118 82E7     		b	.L28
 534              	.L31:
 535 011a 00BFAFF3 		.align	3
 535      0080
 536              	.L30:
 537 0120 FCA9F1D2 		.word	-755914244
 538 0124 4D62503F 		.word	1062232653
 539 0128 00001640 		.word	1075183616
 540              		.cfi_endproc
 541              	.LFE71:
 542              		.size	vCompetingMathTask3, .-vCompetingMathTask3
 543 012c AFF30080 		.section	.text.vCompetingMathTask4,"ax",%progbits
 544              		.align	2
 545              		.thumb
 546              		.thumb_func
 547              		.type	vCompetingMathTask4, %function
 548              	vCompetingMathTask4:
 549              	.LFB72:
 256:..\..\Common\Minimal/flop.c **** }
 257:..\..\Common\Minimal/flop.c **** /*-----------------------------------------------------------*/
 258:..\..\Common\Minimal/flop.c **** 
 259:..\..\Common\Minimal/flop.c **** static portTASK_FUNCTION( vCompetingMathTask4, pvParameters )
 260:..\..\Common\Minimal/flop.c **** {
 550              		.loc 1 260 0
 551              		.cfi_startproc
 552              		@ args = 0, pretend = 0, frame = 56
 553              		@ frame_needed = 1, uses_anonymous_args = 0
 554 0000 F0B5     		push	{r4, r5, r6, r7, lr}
 555              		.cfi_def_cfa_offset 20
 556              		.cfi_offset 4, -20
 557              		.cfi_offset 5, -16
 558              		.cfi_offset 6, -12
 559              		.cfi_offset 7, -8
 560              		.cfi_offset 14, -4
 561 0002 8FB0     		sub	sp, sp, #60
 562              		.cfi_def_cfa_offset 80
 563 0004 00AF     		add	r7, sp, #0
 564              		.cfi_def_cfa_register 7
 565 0006 7860     		str	r0, [r7, #4]
 261:..\..\Common\Minimal/flop.c **** volatile portDOUBLE *pdArray, dTotal1, dTotal2, dDifference;
 262:..\..\Common\Minimal/flop.c **** volatile uint16_t *pusTaskCheckVariable;
 263:..\..\Common\Minimal/flop.c **** const size_t xArraySize = 10;
 566              		.loc 1 263 0
 567 0008 0A23     		movs	r3, #10
 568 000a FB62     		str	r3, [r7, #44]
 264:..\..\Common\Minimal/flop.c **** size_t xPosition;
 265:..\..\Common\Minimal/flop.c **** short sError = pdFALSE;
 569              		.loc 1 265 0
 570 000c 0023     		movs	r3, #0
 571 000e 7B86     		strh	r3, [r7, #50]	@ movhi
 266:..\..\Common\Minimal/flop.c **** 
 267:..\..\Common\Minimal/flop.c **** 	/* Some ports require that tasks that use a hardware floating point unit
 268:..\..\Common\Minimal/flop.c **** 	tell the kernel that they require a floating point context before any
 269:..\..\Common\Minimal/flop.c **** 	floating point instructions are executed. */
 270:..\..\Common\Minimal/flop.c **** 	portTASK_USES_FLOATING_POINT();
 271:..\..\Common\Minimal/flop.c **** 
 272:..\..\Common\Minimal/flop.c **** 	/* The variable this task increments to show it is still running is passed in
ARM GAS  C:\Users\Jamie\AppData\Local\Temp\ccq0V3VC.s 			page 16


 273:..\..\Common\Minimal/flop.c **** 	as the parameter. */
 274:..\..\Common\Minimal/flop.c **** 	pusTaskCheckVariable = ( volatile uint16_t * ) pvParameters;
 572              		.loc 1 274 0
 573 0010 7B68     		ldr	r3, [r7, #4]
 574 0012 BB62     		str	r3, [r7, #40]
 275:..\..\Common\Minimal/flop.c **** 
 276:..\..\Common\Minimal/flop.c **** 	pdArray = ( portDOUBLE * ) pvPortMalloc( xArraySize * sizeof( portDOUBLE ) );
 575              		.loc 1 276 0
 576 0014 FB6A     		ldr	r3, [r7, #44]
 577 0016 DB00     		lsls	r3, r3, #3
 578 0018 1846     		mov	r0, r3
 579 001a FFF7FEFF 		bl	pvPortMalloc
 580 001e 7862     		str	r0, [r7, #36]
 581              	.L40:
 277:..\..\Common\Minimal/flop.c **** 
 278:..\..\Common\Minimal/flop.c **** 	/* Keep filling an array, keeping a running total of the values placed in the
 279:..\..\Common\Minimal/flop.c **** 	array.  Then run through the array adding up all the values.  If the two totals
 280:..\..\Common\Minimal/flop.c **** 	do not match, stop the check variable from incrementing. */
 281:..\..\Common\Minimal/flop.c **** 	for( ;; )
 282:..\..\Common\Minimal/flop.c **** 	{
 283:..\..\Common\Minimal/flop.c **** 		dTotal1 = 0.0;
 582              		.loc 1 283 0
 583 0020 4FF00002 		mov	r2, #0
 584 0024 4FF00003 		mov	r3, #0
 585 0028 C7E90623 		strd	r2, [r7, #24]
 284:..\..\Common\Minimal/flop.c **** 		dTotal2 = 0.0;
 586              		.loc 1 284 0
 587 002c 4FF00002 		mov	r2, #0
 588 0030 4FF00003 		mov	r3, #0
 589 0034 C7E90423 		strd	r2, [r7, #16]
 285:..\..\Common\Minimal/flop.c **** 
 286:..\..\Common\Minimal/flop.c **** 		for( xPosition = 0; xPosition < xArraySize; xPosition++ )
 590              		.loc 1 286 0
 591 0038 0023     		movs	r3, #0
 592 003a 7B63     		str	r3, [r7, #52]
 593 003c 2EE0     		b	.L33
 594              	.L34:
 287:..\..\Common\Minimal/flop.c **** 		{
 288:..\..\Common\Minimal/flop.c **** 			pdArray[ xPosition ] = ( portDOUBLE ) xPosition * 12.123;
 595              		.loc 1 288 0 discriminator 3
 596 003e 7B6B     		ldr	r3, [r7, #52]
 597 0040 DB00     		lsls	r3, r3, #3
 598 0042 7A6A     		ldr	r2, [r7, #36]
 599 0044 D618     		adds	r6, r2, r3
 600 0046 786B     		ldr	r0, [r7, #52]
 601 0048 FFF7FEFF 		bl	__aeabi_ui2d
 602 004c 0246     		mov	r2, r0
 603 004e 0B46     		mov	r3, r1
 604 0050 1046     		mov	r0, r2
 605 0052 1946     		mov	r1, r3
 606 0054 32A3     		adr	r3, .L42
 607 0056 D3E90023 		ldrd	r2, [r3]
 608 005a FFF7FEFF 		bl	__aeabi_dmul
 609 005e 0246     		mov	r2, r0
 610 0060 0B46     		mov	r3, r1
 611 0062 C6E90023 		strd	r2, [r6]
 289:..\..\Common\Minimal/flop.c **** 			dTotal1 += ( portDOUBLE ) xPosition * 12.123;
ARM GAS  C:\Users\Jamie\AppData\Local\Temp\ccq0V3VC.s 			page 17


 612              		.loc 1 289 0 discriminator 3
 613 0066 786B     		ldr	r0, [r7, #52]
 614 0068 FFF7FEFF 		bl	__aeabi_ui2d
 615 006c 0246     		mov	r2, r0
 616 006e 0B46     		mov	r3, r1
 617 0070 1046     		mov	r0, r2
 618 0072 1946     		mov	r1, r3
 619 0074 2AA3     		adr	r3, .L42
 620 0076 D3E90023 		ldrd	r2, [r3]
 621 007a FFF7FEFF 		bl	__aeabi_dmul
 622 007e 0246     		mov	r2, r0
 623 0080 0B46     		mov	r3, r1
 624 0082 1046     		mov	r0, r2
 625 0084 1946     		mov	r1, r3
 626 0086 D7E90623 		ldrd	r2, [r7, #24]
 627 008a FFF7FEFF 		bl	__aeabi_dadd
 628 008e 0246     		mov	r2, r0
 629 0090 0B46     		mov	r3, r1
 630 0092 C7E90623 		strd	r2, [r7, #24]
 286:..\..\Common\Minimal/flop.c **** 		{
 631              		.loc 1 286 0 discriminator 3
 632 0096 7B6B     		ldr	r3, [r7, #52]
 633 0098 0133     		adds	r3, r3, #1
 634 009a 7B63     		str	r3, [r7, #52]
 635              	.L33:
 286:..\..\Common\Minimal/flop.c **** 		{
 636              		.loc 1 286 0 is_stmt 0 discriminator 1
 637 009c 7A6B     		ldr	r2, [r7, #52]
 638 009e FB6A     		ldr	r3, [r7, #44]
 639 00a0 9A42     		cmp	r2, r3
 640 00a2 CCD3     		bcc	.L34
 290:..\..\Common\Minimal/flop.c **** 		}
 291:..\..\Common\Minimal/flop.c **** 
 292:..\..\Common\Minimal/flop.c **** 		#if configUSE_PREEMPTION == 0
 293:..\..\Common\Minimal/flop.c **** 			taskYIELD();
 294:..\..\Common\Minimal/flop.c **** 		#endif
 295:..\..\Common\Minimal/flop.c **** 
 296:..\..\Common\Minimal/flop.c **** 		for( xPosition = 0; xPosition < xArraySize; xPosition++ )
 641              		.loc 1 296 0 is_stmt 1
 642 00a4 0023     		movs	r3, #0
 643 00a6 7B63     		str	r3, [r7, #52]
 644 00a8 10E0     		b	.L35
 645              	.L36:
 297:..\..\Common\Minimal/flop.c **** 		{
 298:..\..\Common\Minimal/flop.c **** 			dTotal2 += pdArray[ xPosition ];
 646              		.loc 1 298 0 discriminator 3
 647 00aa 7B6B     		ldr	r3, [r7, #52]
 648 00ac DB00     		lsls	r3, r3, #3
 649 00ae 7A6A     		ldr	r2, [r7, #36]
 650 00b0 1344     		add	r3, r3, r2
 651 00b2 D3E90001 		ldrd	r0, [r3]
 652 00b6 D7E90423 		ldrd	r2, [r7, #16]
 653 00ba FFF7FEFF 		bl	__aeabi_dadd
 654 00be 0246     		mov	r2, r0
 655 00c0 0B46     		mov	r3, r1
 656 00c2 C7E90423 		strd	r2, [r7, #16]
 296:..\..\Common\Minimal/flop.c **** 		{
ARM GAS  C:\Users\Jamie\AppData\Local\Temp\ccq0V3VC.s 			page 18


 657              		.loc 1 296 0 discriminator 3
 658 00c6 7B6B     		ldr	r3, [r7, #52]
 659 00c8 0133     		adds	r3, r3, #1
 660 00ca 7B63     		str	r3, [r7, #52]
 661              	.L35:
 296:..\..\Common\Minimal/flop.c **** 		{
 662              		.loc 1 296 0 is_stmt 0 discriminator 1
 663 00cc 7A6B     		ldr	r2, [r7, #52]
 664 00ce FB6A     		ldr	r3, [r7, #44]
 665 00d0 9A42     		cmp	r2, r3
 666 00d2 EAD3     		bcc	.L36
 299:..\..\Common\Minimal/flop.c **** 		}
 300:..\..\Common\Minimal/flop.c **** 
 301:..\..\Common\Minimal/flop.c **** 		dDifference = dTotal1 - dTotal2;
 667              		.loc 1 301 0 is_stmt 1
 668 00d4 D7E90601 		ldrd	r0, [r7, #24]
 669 00d8 D7E90423 		ldrd	r2, [r7, #16]
 670 00dc FFF7FEFF 		bl	__aeabi_dsub
 671 00e0 0246     		mov	r2, r0
 672 00e2 0B46     		mov	r3, r1
 673 00e4 C7E90223 		strd	r2, [r7, #8]
 302:..\..\Common\Minimal/flop.c **** 		if( fabs( dDifference ) > 0.001 )
 674              		.loc 1 302 0
 675 00e8 D7E90223 		ldrd	r2, [r7, #8]
 676 00ec 1446     		mov	r4, r2
 677 00ee 23F00045 		bic	r5, r3, #-2147483648
 678 00f2 2046     		mov	r0, r4
 679 00f4 2946     		mov	r1, r5
 680 00f6 0CA3     		adr	r3, .L42+8
 681 00f8 D3E90023 		ldrd	r2, [r3]
 682 00fc FFF7FEFF 		bl	__aeabi_dcmpgt
 683 0100 0346     		mov	r3, r0
 684 0102 002B     		cmp	r3, #0
 685 0104 01D0     		beq	.L37
 303:..\..\Common\Minimal/flop.c **** 		{
 304:..\..\Common\Minimal/flop.c **** 			sError = pdTRUE;
 686              		.loc 1 304 0
 687 0106 0123     		movs	r3, #1
 688 0108 7B86     		strh	r3, [r7, #50]	@ movhi
 689              	.L37:
 305:..\..\Common\Minimal/flop.c **** 		}
 306:..\..\Common\Minimal/flop.c **** 
 307:..\..\Common\Minimal/flop.c **** 		#if configUSE_PREEMPTION == 0
 308:..\..\Common\Minimal/flop.c **** 			taskYIELD();
 309:..\..\Common\Minimal/flop.c **** 		#endif
 310:..\..\Common\Minimal/flop.c **** 
 311:..\..\Common\Minimal/flop.c **** 		if( sError == pdFALSE )
 690              		.loc 1 311 0
 691 010a B7F93230 		ldrsh	r3, [r7, #50]
 692 010e 002B     		cmp	r3, #0
 693 0110 02D1     		bne	.L39
 312:..\..\Common\Minimal/flop.c **** 		{
 313:..\..\Common\Minimal/flop.c **** 			/* If the calculation has always been correct then set set the check
 314:..\..\Common\Minimal/flop.c **** 			variable.  The check variable will get set to pdFALSE each time
 315:..\..\Common\Minimal/flop.c **** 			xAreMathsTaskStillRunning() is executed. */
 316:..\..\Common\Minimal/flop.c **** 			( *pusTaskCheckVariable ) = pdTRUE;
 694              		.loc 1 316 0
ARM GAS  C:\Users\Jamie\AppData\Local\Temp\ccq0V3VC.s 			page 19


 695 0112 BB6A     		ldr	r3, [r7, #40]
 696 0114 0122     		movs	r2, #1
 697 0116 1A80     		strh	r2, [r3]	@ movhi
 698              	.L39:
 317:..\..\Common\Minimal/flop.c **** 		}
 318:..\..\Common\Minimal/flop.c **** 	}
 699              		.loc 1 318 0
 700 0118 82E7     		b	.L40
 701              	.L43:
 702 011a 00BFAFF3 		.align	3
 702      0080
 703              	.L42:
 704 0120 E5D022DB 		.word	-618475291
 705 0124 F93E2840 		.word	1076379385
 706 0128 FCA9F1D2 		.word	-755914244
 707 012c 4D62503F 		.word	1062232653
 708              		.cfi_endproc
 709              	.LFE72:
 710              		.size	vCompetingMathTask4, .-vCompetingMathTask4
 711              		.section	.text.xAreMathsTaskStillRunning,"ax",%progbits
 712              		.align	2
 713              		.global	xAreMathsTaskStillRunning
 714              		.thumb
 715              		.thumb_func
 716              		.type	xAreMathsTaskStillRunning, %function
 717              	xAreMathsTaskStillRunning:
 718              	.LFB73:
 319:..\..\Common\Minimal/flop.c **** }
 320:..\..\Common\Minimal/flop.c **** /*-----------------------------------------------------------*/
 321:..\..\Common\Minimal/flop.c **** 
 322:..\..\Common\Minimal/flop.c **** /* This is called to check that all the created tasks are still running. */
 323:..\..\Common\Minimal/flop.c **** BaseType_t xAreMathsTaskStillRunning( void )
 324:..\..\Common\Minimal/flop.c **** {
 719              		.loc 1 324 0
 720              		.cfi_startproc
 721              		@ args = 0, pretend = 0, frame = 8
 722              		@ frame_needed = 1, uses_anonymous_args = 0
 723              		@ link register save eliminated.
 724 0000 80B4     		push	{r7}
 725              		.cfi_def_cfa_offset 4
 726              		.cfi_offset 7, -4
 727 0002 83B0     		sub	sp, sp, #12
 728              		.cfi_def_cfa_offset 16
 729 0004 00AF     		add	r7, sp, #0
 730              		.cfi_def_cfa_register 7
 325:..\..\Common\Minimal/flop.c **** BaseType_t xReturn = pdPASS, xTask;
 731              		.loc 1 325 0
 732 0006 0123     		movs	r3, #1
 733 0008 7B60     		str	r3, [r7, #4]
 326:..\..\Common\Minimal/flop.c **** 
 327:..\..\Common\Minimal/flop.c **** 	/* Check the maths tasks are still running by ensuring their check variables
 328:..\..\Common\Minimal/flop.c **** 	have been set to pdPASS. */
 329:..\..\Common\Minimal/flop.c **** 	for( xTask = 0; xTask < mathNUMBER_OF_TASKS; xTask++ )
 734              		.loc 1 329 0
 735 000a 0023     		movs	r3, #0
 736 000c 3B60     		str	r3, [r7]
 737 000e 10E0     		b	.L45
ARM GAS  C:\Users\Jamie\AppData\Local\Temp\ccq0V3VC.s 			page 20


 738              	.L48:
 330:..\..\Common\Minimal/flop.c **** 	{
 331:..\..\Common\Minimal/flop.c **** 		if( usTaskCheck[ xTask ] != pdTRUE )
 739              		.loc 1 331 0
 740 0010 0D4A     		ldr	r2, .L50
 741 0012 3B68     		ldr	r3, [r7]
 742 0014 32F81330 		ldrh	r3, [r2, r3, lsl #1]
 743 0018 012B     		cmp	r3, #1
 744 001a 02D0     		beq	.L46
 332:..\..\Common\Minimal/flop.c **** 		{
 333:..\..\Common\Minimal/flop.c **** 			/* The check has not been set so the associated task has either
 334:..\..\Common\Minimal/flop.c **** 			stalled or detected an error. */
 335:..\..\Common\Minimal/flop.c **** 			xReturn = pdFAIL;
 745              		.loc 1 335 0
 746 001c 0023     		movs	r3, #0
 747 001e 7B60     		str	r3, [r7, #4]
 748 0020 04E0     		b	.L47
 749              	.L46:
 336:..\..\Common\Minimal/flop.c **** 		}
 337:..\..\Common\Minimal/flop.c **** 		else
 338:..\..\Common\Minimal/flop.c **** 		{
 339:..\..\Common\Minimal/flop.c **** 			/* Reset the variable so it can be checked again the next time this
 340:..\..\Common\Minimal/flop.c **** 			function is executed. */
 341:..\..\Common\Minimal/flop.c **** 			usTaskCheck[ xTask ] = pdFALSE;
 750              		.loc 1 341 0
 751 0022 094A     		ldr	r2, .L50
 752 0024 3B68     		ldr	r3, [r7]
 753 0026 0021     		movs	r1, #0
 754 0028 22F81310 		strh	r1, [r2, r3, lsl #1]	@ movhi
 755              	.L47:
 329:..\..\Common\Minimal/flop.c **** 	{
 756              		.loc 1 329 0 discriminator 2
 757 002c 3B68     		ldr	r3, [r7]
 758 002e 0133     		adds	r3, r3, #1
 759 0030 3B60     		str	r3, [r7]
 760              	.L45:
 329:..\..\Common\Minimal/flop.c **** 	{
 761              		.loc 1 329 0 is_stmt 0 discriminator 1
 762 0032 3B68     		ldr	r3, [r7]
 763 0034 032B     		cmp	r3, #3
 764 0036 EBDD     		ble	.L48
 342:..\..\Common\Minimal/flop.c **** 		}
 343:..\..\Common\Minimal/flop.c **** 	}
 344:..\..\Common\Minimal/flop.c **** 
 345:..\..\Common\Minimal/flop.c **** 	return xReturn;
 765              		.loc 1 345 0 is_stmt 1
 766 0038 7B68     		ldr	r3, [r7, #4]
 346:..\..\Common\Minimal/flop.c **** }
 767              		.loc 1 346 0
 768 003a 1846     		mov	r0, r3
 769 003c 0C37     		adds	r7, r7, #12
 770              		.cfi_def_cfa_offset 4
 771 003e BD46     		mov	sp, r7
 772              		.cfi_def_cfa_register 13
 773              		@ sp needed
 774 0040 5DF8047B 		ldr	r7, [sp], #4
 775              		.cfi_restore 7
ARM GAS  C:\Users\Jamie\AppData\Local\Temp\ccq0V3VC.s 			page 21


 776              		.cfi_def_cfa_offset 0
 777 0044 7047     		bx	lr
 778              	.L51:
 779 0046 00BF     		.align	2
 780              	.L50:
 781 0048 00000000 		.word	usTaskCheck
 782              		.cfi_endproc
 783              	.LFE73:
 784              		.size	xAreMathsTaskStillRunning, .-xAreMathsTaskStillRunning
 785              		.text
 786              	.Letext0:
 787              		.file 2 "c:\\program files (x86)\\cypress\\psoc creator\\4.0\\psoc creator\\import\\gnu\\arm\\4.9.
 788              		.file 3 "c:\\program files (x86)\\cypress\\psoc creator\\4.0\\psoc creator\\import\\gnu\\arm\\4.9.
 789              		.file 4 "c:\\program files (x86)\\cypress\\psoc creator\\4.0\\psoc creator\\import\\gnu\\arm\\4.9.
 790              		.file 5 "../../../Source/portable/GCC/ARM_CM3/portmacro.h"
 791              		.file 6 "Generated_Source\\PSoC5/core_cm3.h"