ARM GAS  C:\Users\Jamie\AppData\Local\Temp\ccs193eX.s 			page 1


   1              		.syntax unified
   2              		.cpu cortex-m3
   3              		.fpu softvfp
   4              		.eabi_attribute 20, 1
   5              		.eabi_attribute 21, 1
   6              		.eabi_attribute 23, 3
   7              		.eabi_attribute 24, 1
   8              		.eabi_attribute 25, 1
   9              		.eabi_attribute 26, 1
  10              		.eabi_attribute 30, 6
  11              		.eabi_attribute 34, 1
  12              		.eabi_attribute 18, 4
  13              		.thumb
  14              		.file	"integer.c"
  15              		.text
  16              	.Ltext0:
  17              		.cfi_sections	.debug_frame
  18              		.bss
  19              		.align	2
  20              	xTaskCheck:
  21 0000 00000000 		.space	4
  22              		.section	.rodata
  23              		.align	2
  24              	.LC0:
  25 0000 496E744D 		.ascii	"IntMath\000"
  25      61746800 
  26              		.section	.text.vStartIntegerMathTasks,"ax",%progbits
  27              		.align	2
  28              		.global	vStartIntegerMathTasks
  29              		.thumb
  30              		.thumb_func
  31              		.type	vStartIntegerMathTasks, %function
  32              	vStartIntegerMathTasks:
  33              	.LFB68:
  34              		.file 1 "..\\..\\Common\\Minimal\\integer.c"
   1:..\..\Common\Minimal/integer.c **** /*
   2:..\..\Common\Minimal/integer.c ****  * FreeRTOS Kernel V10.0.1
   3:..\..\Common\Minimal/integer.c ****  * Copyright (C) 2017 Amazon.com, Inc. or its affiliates.  All Rights Reserved.
   4:..\..\Common\Minimal/integer.c ****  *
   5:..\..\Common\Minimal/integer.c ****  * Permission is hereby granted, free of charge, to any person obtaining a copy of
   6:..\..\Common\Minimal/integer.c ****  * this software and associated documentation files (the "Software"), to deal in
   7:..\..\Common\Minimal/integer.c ****  * the Software without restriction, including without limitation the rights to
   8:..\..\Common\Minimal/integer.c ****  * use, copy, modify, merge, publish, distribute, sublicense, and/or sell copies of
   9:..\..\Common\Minimal/integer.c ****  * the Software, and to permit persons to whom the Software is furnished to do so,
  10:..\..\Common\Minimal/integer.c ****  * subject to the following conditions:
  11:..\..\Common\Minimal/integer.c ****  *
  12:..\..\Common\Minimal/integer.c ****  * The above copyright notice and this permission notice shall be included in all
  13:..\..\Common\Minimal/integer.c ****  * copies or substantial portions of the Software.
  14:..\..\Common\Minimal/integer.c ****  *
  15:..\..\Common\Minimal/integer.c ****  * THE SOFTWARE IS PROVIDED "AS IS", WITHOUT WARRANTY OF ANY KIND, EXPRESS OR
  16:..\..\Common\Minimal/integer.c ****  * IMPLIED, INCLUDING BUT NOT LIMITED TO THE WARRANTIES OF MERCHANTABILITY, FITNESS
  17:..\..\Common\Minimal/integer.c ****  * FOR A PARTICULAR PURPOSE AND NONINFRINGEMENT. IN NO EVENT SHALL THE AUTHORS OR
  18:..\..\Common\Minimal/integer.c ****  * COPYRIGHT HOLDERS BE LIABLE FOR ANY CLAIM, DAMAGES OR OTHER LIABILITY, WHETHER
  19:..\..\Common\Minimal/integer.c ****  * IN AN ACTION OF CONTRACT, TORT OR OTHERWISE, ARISING FROM, OUT OF OR IN
  20:..\..\Common\Minimal/integer.c ****  * CONNECTION WITH THE SOFTWARE OR THE USE OR OTHER DEALINGS IN THE SOFTWARE.
  21:..\..\Common\Minimal/integer.c ****  *
  22:..\..\Common\Minimal/integer.c ****  * http://www.FreeRTOS.org
ARM GAS  C:\Users\Jamie\AppData\Local\Temp\ccs193eX.s 			page 2


  23:..\..\Common\Minimal/integer.c ****  * http://aws.amazon.com/freertos
  24:..\..\Common\Minimal/integer.c ****  *
  25:..\..\Common\Minimal/integer.c ****  * 1 tab == 4 spaces!
  26:..\..\Common\Minimal/integer.c ****  */
  27:..\..\Common\Minimal/integer.c **** 
  28:..\..\Common\Minimal/integer.c **** /*
  29:..\..\Common\Minimal/integer.c ****  * Creates one or more tasks that repeatedly perform a set of integer
  30:..\..\Common\Minimal/integer.c ****  * calculations.  The result of each run-time calculation is compared to the
  31:..\..\Common\Minimal/integer.c ****  * known expected result - with a mismatch being indicative of an error in the
  32:..\..\Common\Minimal/integer.c ****  * context switch mechanism.
  33:..\..\Common\Minimal/integer.c ****  */
  34:..\..\Common\Minimal/integer.c **** 
  35:..\..\Common\Minimal/integer.c **** #include <stdlib.h>
  36:..\..\Common\Minimal/integer.c **** 
  37:..\..\Common\Minimal/integer.c **** /* Scheduler include files. */
  38:..\..\Common\Minimal/integer.c **** #include "FreeRTOS.h"
  39:..\..\Common\Minimal/integer.c **** #include "task.h"
  40:..\..\Common\Minimal/integer.c **** 
  41:..\..\Common\Minimal/integer.c **** /* Demo program include files. */
  42:..\..\Common\Minimal/integer.c **** #include "integer.h"
  43:..\..\Common\Minimal/integer.c **** 
  44:..\..\Common\Minimal/integer.c **** /* The constants used in the calculation. */
  45:..\..\Common\Minimal/integer.c **** #define intgCONST1				( ( long ) 123 )
  46:..\..\Common\Minimal/integer.c **** #define intgCONST2				( ( long ) 234567 )
  47:..\..\Common\Minimal/integer.c **** #define intgCONST3				( ( long ) -3 )
  48:..\..\Common\Minimal/integer.c **** #define intgCONST4				( ( long ) 7 )
  49:..\..\Common\Minimal/integer.c **** #define intgEXPECTED_ANSWER		( ( ( intgCONST1 + intgCONST2 ) * intgCONST3 ) / intgCONST4 )
  50:..\..\Common\Minimal/integer.c **** 
  51:..\..\Common\Minimal/integer.c **** #define intgSTACK_SIZE			configMINIMAL_STACK_SIZE
  52:..\..\Common\Minimal/integer.c **** 
  53:..\..\Common\Minimal/integer.c **** /* As this is the minimal version, we will only create one task. */
  54:..\..\Common\Minimal/integer.c **** #define intgNUMBER_OF_TASKS		( 1 )
  55:..\..\Common\Minimal/integer.c **** 
  56:..\..\Common\Minimal/integer.c **** /* The task function.  Repeatedly performs a 32 bit calculation, checking the
  57:..\..\Common\Minimal/integer.c **** result against the expected result.  If the result is incorrect then the
  58:..\..\Common\Minimal/integer.c **** context switch must have caused some corruption. */
  59:..\..\Common\Minimal/integer.c **** static portTASK_FUNCTION_PROTO( vCompeteingIntMathTask, pvParameters );
  60:..\..\Common\Minimal/integer.c **** 
  61:..\..\Common\Minimal/integer.c **** /* Variables that are set to true within the calculation task to indicate
  62:..\..\Common\Minimal/integer.c **** that the task is still executing.  The check task sets the variable back to
  63:..\..\Common\Minimal/integer.c **** false, flagging an error if the variable is still false the next time it
  64:..\..\Common\Minimal/integer.c **** is called. */
  65:..\..\Common\Minimal/integer.c **** static BaseType_t xTaskCheck[ intgNUMBER_OF_TASKS ] = { ( BaseType_t ) pdFALSE };
  66:..\..\Common\Minimal/integer.c **** 
  67:..\..\Common\Minimal/integer.c **** /*-----------------------------------------------------------*/
  68:..\..\Common\Minimal/integer.c **** 
  69:..\..\Common\Minimal/integer.c **** void vStartIntegerMathTasks( UBaseType_t uxPriority )
  70:..\..\Common\Minimal/integer.c **** {
  35              		.loc 1 70 0
  36              		.cfi_startproc
  37              		@ args = 0, pretend = 0, frame = 16
  38              		@ frame_needed = 1, uses_anonymous_args = 0
  39 0000 90B5     		push	{r4, r7, lr}
  40              		.cfi_def_cfa_offset 12
  41              		.cfi_offset 4, -12
  42              		.cfi_offset 7, -8
  43              		.cfi_offset 14, -4
ARM GAS  C:\Users\Jamie\AppData\Local\Temp\ccs193eX.s 			page 3


  44 0002 87B0     		sub	sp, sp, #28
  45              		.cfi_def_cfa_offset 40
  46 0004 02AF     		add	r7, sp, #8
  47              		.cfi_def_cfa 7, 32
  48 0006 7860     		str	r0, [r7, #4]
  71:..\..\Common\Minimal/integer.c **** short sTask;
  72:..\..\Common\Minimal/integer.c **** 
  73:..\..\Common\Minimal/integer.c **** 	for( sTask = 0; sTask < intgNUMBER_OF_TASKS; sTask++ )
  49              		.loc 1 73 0
  50 0008 0023     		movs	r3, #0
  51 000a FB81     		strh	r3, [r7, #14]	@ movhi
  52 000c 13E0     		b	.L2
  53              	.L3:
  74:..\..\Common\Minimal/integer.c **** 	{
  75:..\..\Common\Minimal/integer.c **** 		xTaskCreate( vCompeteingIntMathTask, "IntMath", intgSTACK_SIZE, ( void * ) &( xTaskCheck[ sTask ]
  54              		.loc 1 75 0 discriminator 3
  55 000e B7F90E30 		ldrsh	r3, [r7, #14]
  56 0012 9B00     		lsls	r3, r3, #2
  57 0014 0B4A     		ldr	r2, .L4
  58 0016 9C18     		adds	r4, r3, r2
  59 0018 7B68     		ldr	r3, [r7, #4]
  60 001a 0093     		str	r3, [sp]
  61 001c 0023     		movs	r3, #0
  62 001e 0193     		str	r3, [sp, #4]
  63 0020 0948     		ldr	r0, .L4+4
  64 0022 0A49     		ldr	r1, .L4+8
  65 0024 6422     		movs	r2, #100
  66 0026 2346     		mov	r3, r4
  67 0028 FFF7FEFF 		bl	xTaskCreate
  73:..\..\Common\Minimal/integer.c **** 	{
  68              		.loc 1 73 0 discriminator 3
  69 002c FB89     		ldrh	r3, [r7, #14]
  70 002e 9BB2     		uxth	r3, r3
  71 0030 0133     		adds	r3, r3, #1
  72 0032 9BB2     		uxth	r3, r3
  73 0034 FB81     		strh	r3, [r7, #14]	@ movhi
  74              	.L2:
  73:..\..\Common\Minimal/integer.c **** 	{
  75              		.loc 1 73 0 is_stmt 0 discriminator 1
  76 0036 B7F90E30 		ldrsh	r3, [r7, #14]
  77 003a 002B     		cmp	r3, #0
  78 003c E7DD     		ble	.L3
  76:..\..\Common\Minimal/integer.c **** 	}
  77:..\..\Common\Minimal/integer.c **** }
  79              		.loc 1 77 0 is_stmt 1
  80 003e 1437     		adds	r7, r7, #20
  81              		.cfi_def_cfa_offset 12
  82 0040 BD46     		mov	sp, r7
  83              		.cfi_def_cfa_register 13
  84              		@ sp needed
  85 0042 90BD     		pop	{r4, r7, pc}
  86              	.L5:
  87              		.align	2
  88              	.L4:
  89 0044 00000000 		.word	xTaskCheck
  90 0048 00000000 		.word	vCompeteingIntMathTask
  91 004c 00000000 		.word	.LC0
ARM GAS  C:\Users\Jamie\AppData\Local\Temp\ccs193eX.s 			page 4


  92              		.cfi_endproc
  93              	.LFE68:
  94              		.size	vStartIntegerMathTasks, .-vStartIntegerMathTasks
  95              		.section	.text.vCompeteingIntMathTask,"ax",%progbits
  96              		.align	2
  97              		.thumb
  98              		.thumb_func
  99              		.type	vCompeteingIntMathTask, %function
 100              	vCompeteingIntMathTask:
 101              	.LFB69:
  78:..\..\Common\Minimal/integer.c **** /*-----------------------------------------------------------*/
  79:..\..\Common\Minimal/integer.c **** 
  80:..\..\Common\Minimal/integer.c **** static portTASK_FUNCTION( vCompeteingIntMathTask, pvParameters )
  81:..\..\Common\Minimal/integer.c **** {
 102              		.loc 1 81 0
 103              		.cfi_startproc
 104              		@ args = 0, pretend = 0, frame = 24
 105              		@ frame_needed = 1, uses_anonymous_args = 0
 106 0000 80B5     		push	{r7, lr}
 107              		.cfi_def_cfa_offset 8
 108              		.cfi_offset 7, -8
 109              		.cfi_offset 14, -4
 110 0002 86B0     		sub	sp, sp, #24
 111              		.cfi_def_cfa_offset 32
 112 0004 00AF     		add	r7, sp, #0
 113              		.cfi_def_cfa_register 7
 114 0006 7860     		str	r0, [r7, #4]
  82:..\..\Common\Minimal/integer.c **** /* These variables are all effectively set to constants so they are volatile to
  83:..\..\Common\Minimal/integer.c **** ensure the compiler does not just get rid of them. */
  84:..\..\Common\Minimal/integer.c **** volatile long lValue;
  85:..\..\Common\Minimal/integer.c **** short sError = pdFALSE;
 115              		.loc 1 85 0
 116 0008 0023     		movs	r3, #0
 117 000a FB82     		strh	r3, [r7, #22]	@ movhi
  86:..\..\Common\Minimal/integer.c **** volatile BaseType_t *pxTaskHasExecuted;
  87:..\..\Common\Minimal/integer.c **** 
  88:..\..\Common\Minimal/integer.c **** 	/* Set a pointer to the variable we are going to set to true each
  89:..\..\Common\Minimal/integer.c **** 	iteration.  This is also a good test of the parameter passing mechanism
  90:..\..\Common\Minimal/integer.c **** 	within each port. */
  91:..\..\Common\Minimal/integer.c **** 	pxTaskHasExecuted = ( volatile BaseType_t * ) pvParameters;
 118              		.loc 1 91 0
 119 000c 7B68     		ldr	r3, [r7, #4]
 120 000e 3B61     		str	r3, [r7, #16]
 121              	.L9:
  92:..\..\Common\Minimal/integer.c **** 
  93:..\..\Common\Minimal/integer.c **** 	/* Keep performing a calculation and checking the result against a constant. */
  94:..\..\Common\Minimal/integer.c **** 	for( ;; )
  95:..\..\Common\Minimal/integer.c **** 	{
  96:..\..\Common\Minimal/integer.c **** 		/* Perform the calculation.  This will store partial value in
  97:..\..\Common\Minimal/integer.c **** 		registers, resulting in a good test of the context switch mechanism. */
  98:..\..\Common\Minimal/integer.c **** 		lValue = intgCONST1;
 122              		.loc 1 98 0
 123 0010 7B23     		movs	r3, #123
 124 0012 FB60     		str	r3, [r7, #12]
  99:..\..\Common\Minimal/integer.c **** 		lValue += intgCONST2;
 125              		.loc 1 99 0
 126 0014 FB68     		ldr	r3, [r7, #12]
ARM GAS  C:\Users\Jamie\AppData\Local\Temp\ccs193eX.s 			page 5


 127 0016 03F56533 		add	r3, r3, #234496
 128 001a 4733     		adds	r3, r3, #71
 129 001c FB60     		str	r3, [r7, #12]
 100:..\..\Common\Minimal/integer.c **** 
 101:..\..\Common\Minimal/integer.c **** 		/* Yield in case cooperative scheduling is being used. */
 102:..\..\Common\Minimal/integer.c **** 		#if configUSE_PREEMPTION == 0
 103:..\..\Common\Minimal/integer.c **** 		{
 104:..\..\Common\Minimal/integer.c **** 			taskYIELD();
 105:..\..\Common\Minimal/integer.c **** 		}
 106:..\..\Common\Minimal/integer.c **** 		#endif
 107:..\..\Common\Minimal/integer.c **** 
 108:..\..\Common\Minimal/integer.c **** 		/* Finish off the calculation. */
 109:..\..\Common\Minimal/integer.c **** 		lValue *= intgCONST3;
 130              		.loc 1 109 0
 131 001e FB68     		ldr	r3, [r7, #12]
 132 0020 1A46     		mov	r2, r3
 133 0022 9B00     		lsls	r3, r3, #2
 134 0024 D31A     		subs	r3, r2, r3
 135 0026 FB60     		str	r3, [r7, #12]
 110:..\..\Common\Minimal/integer.c **** 		lValue /= intgCONST4;
 136              		.loc 1 110 0
 137 0028 FB68     		ldr	r3, [r7, #12]
 138 002a 0D4A     		ldr	r2, .L10
 139 002c 82FB0312 		smull	r1, r2, r2, r3
 140 0030 1A44     		add	r2, r2, r3
 141 0032 9210     		asrs	r2, r2, #2
 142 0034 DB17     		asrs	r3, r3, #31
 143 0036 D31A     		subs	r3, r2, r3
 144 0038 FB60     		str	r3, [r7, #12]
 111:..\..\Common\Minimal/integer.c **** 
 112:..\..\Common\Minimal/integer.c **** 		/* If the calculation is found to be incorrect we stop setting the
 113:..\..\Common\Minimal/integer.c **** 		TaskHasExecuted variable so the check task can see an error has
 114:..\..\Common\Minimal/integer.c **** 		occurred. */
 115:..\..\Common\Minimal/integer.c **** 		if( lValue != intgEXPECTED_ANSWER ) /*lint !e774 volatile used to prevent this being optimised ou
 145              		.loc 1 115 0
 146 003a FB68     		ldr	r3, [r7, #12]
 147 003c 094A     		ldr	r2, .L10+4
 148 003e 9342     		cmp	r3, r2
 149 0040 01D0     		beq	.L7
 116:..\..\Common\Minimal/integer.c **** 		{
 117:..\..\Common\Minimal/integer.c **** 			sError = pdTRUE;
 150              		.loc 1 117 0
 151 0042 0123     		movs	r3, #1
 152 0044 FB82     		strh	r3, [r7, #22]	@ movhi
 153              	.L7:
 118:..\..\Common\Minimal/integer.c **** 		}
 119:..\..\Common\Minimal/integer.c **** 
 120:..\..\Common\Minimal/integer.c **** 		if( sError == pdFALSE )
 154              		.loc 1 120 0
 155 0046 B7F91630 		ldrsh	r3, [r7, #22]
 156 004a 002B     		cmp	r3, #0
 157 004c 06D1     		bne	.L8
 121:..\..\Common\Minimal/integer.c **** 		{
 122:..\..\Common\Minimal/integer.c **** 			/* We have not encountered any errors, so set the flag that show
 123:..\..\Common\Minimal/integer.c **** 			we are still executing.  This will be periodically cleared by
 124:..\..\Common\Minimal/integer.c **** 			the check task. */
 125:..\..\Common\Minimal/integer.c **** 			portENTER_CRITICAL();
ARM GAS  C:\Users\Jamie\AppData\Local\Temp\ccs193eX.s 			page 6


 158              		.loc 1 125 0
 159 004e FFF7FEFF 		bl	vPortEnterCritical
 126:..\..\Common\Minimal/integer.c **** 				*pxTaskHasExecuted = pdTRUE;
 160              		.loc 1 126 0
 161 0052 3B69     		ldr	r3, [r7, #16]
 162 0054 0122     		movs	r2, #1
 163 0056 1A60     		str	r2, [r3]
 127:..\..\Common\Minimal/integer.c **** 			portEXIT_CRITICAL();
 164              		.loc 1 127 0
 165 0058 FFF7FEFF 		bl	vPortExitCritical
 166              	.L8:
 128:..\..\Common\Minimal/integer.c **** 		}
 129:..\..\Common\Minimal/integer.c **** 
 130:..\..\Common\Minimal/integer.c **** 		/* Yield in case cooperative scheduling is being used. */
 131:..\..\Common\Minimal/integer.c **** 		#if configUSE_PREEMPTION == 0
 132:..\..\Common\Minimal/integer.c **** 		{
 133:..\..\Common\Minimal/integer.c **** 			taskYIELD();
 134:..\..\Common\Minimal/integer.c **** 		}
 135:..\..\Common\Minimal/integer.c **** 		#endif
 136:..\..\Common\Minimal/integer.c **** 	}
 167              		.loc 1 136 0
 168 005c D8E7     		b	.L9
 169              	.L11:
 170 005e 00BF     		.align	2
 171              	.L10:
 172 0060 93244992 		.word	-1840700269
 173 0064 1B77FEFF 		.word	-100581
 174              		.cfi_endproc
 175              	.LFE69:
 176              		.size	vCompeteingIntMathTask, .-vCompeteingIntMathTask
 177              		.section	.text.xAreIntegerMathsTaskStillRunning,"ax",%progbits
 178              		.align	2
 179              		.global	xAreIntegerMathsTaskStillRunning
 180              		.thumb
 181              		.thumb_func
 182              		.type	xAreIntegerMathsTaskStillRunning, %function
 183              	xAreIntegerMathsTaskStillRunning:
 184              	.LFB70:
 137:..\..\Common\Minimal/integer.c **** }
 138:..\..\Common\Minimal/integer.c **** /*-----------------------------------------------------------*/
 139:..\..\Common\Minimal/integer.c **** 
 140:..\..\Common\Minimal/integer.c **** /* This is called to check that all the created tasks are still running. */
 141:..\..\Common\Minimal/integer.c **** BaseType_t xAreIntegerMathsTaskStillRunning( void )
 142:..\..\Common\Minimal/integer.c **** {
 185              		.loc 1 142 0
 186              		.cfi_startproc
 187              		@ args = 0, pretend = 0, frame = 8
 188              		@ frame_needed = 1, uses_anonymous_args = 0
 189              		@ link register save eliminated.
 190 0000 80B4     		push	{r7}
 191              		.cfi_def_cfa_offset 4
 192              		.cfi_offset 7, -4
 193 0002 83B0     		sub	sp, sp, #12
 194              		.cfi_def_cfa_offset 16
 195 0004 00AF     		add	r7, sp, #0
 196              		.cfi_def_cfa_register 7
 143:..\..\Common\Minimal/integer.c **** BaseType_t xReturn = pdTRUE;
ARM GAS  C:\Users\Jamie\AppData\Local\Temp\ccs193eX.s 			page 7


 197              		.loc 1 143 0
 198 0006 0123     		movs	r3, #1
 199 0008 7B60     		str	r3, [r7, #4]
 144:..\..\Common\Minimal/integer.c **** short sTask;
 145:..\..\Common\Minimal/integer.c **** 
 146:..\..\Common\Minimal/integer.c **** 	/* Check the maths tasks are still running by ensuring their check variables
 147:..\..\Common\Minimal/integer.c **** 	are still being set to true. */
 148:..\..\Common\Minimal/integer.c **** 	for( sTask = 0; sTask < intgNUMBER_OF_TASKS; sTask++ )
 200              		.loc 1 148 0
 201 000a 0023     		movs	r3, #0
 202 000c 7B80     		strh	r3, [r7, #2]	@ movhi
 203 000e 13E0     		b	.L13
 204              	.L15:
 149:..\..\Common\Minimal/integer.c **** 	{
 150:..\..\Common\Minimal/integer.c **** 		if( xTaskCheck[ sTask ] == pdFALSE )
 205              		.loc 1 150 0
 206 0010 B7F90230 		ldrsh	r3, [r7, #2]
 207 0014 0E4A     		ldr	r2, .L17
 208 0016 52F82330 		ldr	r3, [r2, r3, lsl #2]
 209 001a 002B     		cmp	r3, #0
 210 001c 01D1     		bne	.L14
 151:..\..\Common\Minimal/integer.c **** 		{
 152:..\..\Common\Minimal/integer.c **** 			/* The check has not incremented so an error exists. */
 153:..\..\Common\Minimal/integer.c **** 			xReturn = pdFALSE;
 211              		.loc 1 153 0
 212 001e 0023     		movs	r3, #0
 213 0020 7B60     		str	r3, [r7, #4]
 214              	.L14:
 154:..\..\Common\Minimal/integer.c **** 		}
 155:..\..\Common\Minimal/integer.c **** 
 156:..\..\Common\Minimal/integer.c **** 		/* Reset the check variable so we can tell if it has been set by
 157:..\..\Common\Minimal/integer.c **** 		the next time around. */
 158:..\..\Common\Minimal/integer.c **** 		xTaskCheck[ sTask ] = pdFALSE;
 215              		.loc 1 158 0 discriminator 2
 216 0022 B7F90230 		ldrsh	r3, [r7, #2]
 217 0026 0A4A     		ldr	r2, .L17
 218 0028 0021     		movs	r1, #0
 219 002a 42F82310 		str	r1, [r2, r3, lsl #2]
 148:..\..\Common\Minimal/integer.c **** 	{
 220              		.loc 1 148 0 discriminator 2
 221 002e 7B88     		ldrh	r3, [r7, #2]
 222 0030 9BB2     		uxth	r3, r3
 223 0032 0133     		adds	r3, r3, #1
 224 0034 9BB2     		uxth	r3, r3
 225 0036 7B80     		strh	r3, [r7, #2]	@ movhi
 226              	.L13:
 148:..\..\Common\Minimal/integer.c **** 	{
 227              		.loc 1 148 0 is_stmt 0 discriminator 1
 228 0038 B7F90230 		ldrsh	r3, [r7, #2]
 229 003c 002B     		cmp	r3, #0
 230 003e E7DD     		ble	.L15
 159:..\..\Common\Minimal/integer.c **** 	}
 160:..\..\Common\Minimal/integer.c **** 
 161:..\..\Common\Minimal/integer.c **** 	return xReturn;
 231              		.loc 1 161 0 is_stmt 1
 232 0040 7B68     		ldr	r3, [r7, #4]
 162:..\..\Common\Minimal/integer.c **** }
ARM GAS  C:\Users\Jamie\AppData\Local\Temp\ccs193eX.s 			page 8


 233              		.loc 1 162 0
 234 0042 1846     		mov	r0, r3
 235 0044 0C37     		adds	r7, r7, #12
 236              		.cfi_def_cfa_offset 4
 237 0046 BD46     		mov	sp, r7
 238              		.cfi_def_cfa_register 13
 239              		@ sp needed
 240 0048 5DF8047B 		ldr	r7, [sp], #4
 241              		.cfi_restore 7
 242              		.cfi_def_cfa_offset 0
 243 004c 7047     		bx	lr
 244              	.L18:
 245 004e 00BF     		.align	2
 246              	.L17:
 247 0050 00000000 		.word	xTaskCheck
 248              		.cfi_endproc
 249              	.LFE70:
 250              		.size	xAreIntegerMathsTaskStillRunning, .-xAreIntegerMathsTaskStillRunning
 251              		.text
 252              	.Letext0:
 253              		.file 2 "c:\\program files (x86)\\cypress\\psoc creator\\4.0\\psoc creator\\import\\gnu\\arm\\4.9.
 254              		.file 3 "c:\\program files (x86)\\cypress\\psoc creator\\4.0\\psoc creator\\import\\gnu\\arm\\4.9.
 255              		.file 4 "../../../Source/portable/GCC/ARM_CM3/portmacro.h"
 256              		.file 5 "../../../Source/include/task.h"
 257              		.file 6 "Generated_Source\\PSoC5/core_cm3.h"