ARM GAS  C:\Users\Jamie\AppData\Local\Temp\ccpt8Lt0.s 			page 1


   1              		.syntax unified
   2              		.cpu cortex-m3
   3              		.fpu softvfp
   4              		.eabi_attribute 20, 1
   5              		.eabi_attribute 21, 1
   6              		.eabi_attribute 23, 3
   7              		.eabi_attribute 24, 1
   8              		.eabi_attribute 25, 1
   9              		.eabi_attribute 26, 1
  10              		.eabi_attribute 30, 6
  11              		.eabi_attribute 34, 1
  12              		.eabi_attribute 18, 4
  13              		.thumb
  14              		.file	"list.c"
  15              		.text
  16              	.Ltext0:
  17              		.cfi_sections	.debug_frame
  18              		.section	.text.vListInitialise,"ax",%progbits
  19              		.align	2
  20              		.global	vListInitialise
  21              		.thumb
  22              		.thumb_func
  23              		.type	vListInitialise, %function
  24              	vListInitialise:
  25              	.LFB68:
  26              		.file 1 "..\\..\\FreeRTOS_Source\\list.c"
   1:..\..\FreeRTOS_Source/list.c **** /*
   2:..\..\FreeRTOS_Source/list.c ****  * FreeRTOS Kernel V10.0.1
   3:..\..\FreeRTOS_Source/list.c ****  * Copyright (C) 2017 Amazon.com, Inc. or its affiliates.  All Rights Reserved.
   4:..\..\FreeRTOS_Source/list.c ****  *
   5:..\..\FreeRTOS_Source/list.c ****  * Permission is hereby granted, free of charge, to any person obtaining a copy of
   6:..\..\FreeRTOS_Source/list.c ****  * this software and associated documentation files (the "Software"), to deal in
   7:..\..\FreeRTOS_Source/list.c ****  * the Software without restriction, including without limitation the rights to
   8:..\..\FreeRTOS_Source/list.c ****  * use, copy, modify, merge, publish, distribute, sublicense, and/or sell copies of
   9:..\..\FreeRTOS_Source/list.c ****  * the Software, and to permit persons to whom the Software is furnished to do so,
  10:..\..\FreeRTOS_Source/list.c ****  * subject to the following conditions:
  11:..\..\FreeRTOS_Source/list.c ****  *
  12:..\..\FreeRTOS_Source/list.c ****  * The above copyright notice and this permission notice shall be included in all
  13:..\..\FreeRTOS_Source/list.c ****  * copies or substantial portions of the Software.
  14:..\..\FreeRTOS_Source/list.c ****  *
  15:..\..\FreeRTOS_Source/list.c ****  * THE SOFTWARE IS PROVIDED "AS IS", WITHOUT WARRANTY OF ANY KIND, EXPRESS OR
  16:..\..\FreeRTOS_Source/list.c ****  * IMPLIED, INCLUDING BUT NOT LIMITED TO THE WARRANTIES OF MERCHANTABILITY, FITNESS
  17:..\..\FreeRTOS_Source/list.c ****  * FOR A PARTICULAR PURPOSE AND NONINFRINGEMENT. IN NO EVENT SHALL THE AUTHORS OR
  18:..\..\FreeRTOS_Source/list.c ****  * COPYRIGHT HOLDERS BE LIABLE FOR ANY CLAIM, DAMAGES OR OTHER LIABILITY, WHETHER
  19:..\..\FreeRTOS_Source/list.c ****  * IN AN ACTION OF CONTRACT, TORT OR OTHERWISE, ARISING FROM, OUT OF OR IN
  20:..\..\FreeRTOS_Source/list.c ****  * CONNECTION WITH THE SOFTWARE OR THE USE OR OTHER DEALINGS IN THE SOFTWARE.
  21:..\..\FreeRTOS_Source/list.c ****  *
  22:..\..\FreeRTOS_Source/list.c ****  * http://www.FreeRTOS.org
  23:..\..\FreeRTOS_Source/list.c ****  * http://aws.amazon.com/freertos
  24:..\..\FreeRTOS_Source/list.c ****  *
  25:..\..\FreeRTOS_Source/list.c ****  * 1 tab == 4 spaces!
  26:..\..\FreeRTOS_Source/list.c ****  */
  27:..\..\FreeRTOS_Source/list.c **** 
  28:..\..\FreeRTOS_Source/list.c **** 
  29:..\..\FreeRTOS_Source/list.c **** #include <stdlib.h>
  30:..\..\FreeRTOS_Source/list.c **** #include "FreeRTOS.h"
  31:..\..\FreeRTOS_Source/list.c **** #include "list.h"
ARM GAS  C:\Users\Jamie\AppData\Local\Temp\ccpt8Lt0.s 			page 2


  32:..\..\FreeRTOS_Source/list.c **** 
  33:..\..\FreeRTOS_Source/list.c **** /*-----------------------------------------------------------
  34:..\..\FreeRTOS_Source/list.c ****  * PUBLIC LIST API documented in list.h
  35:..\..\FreeRTOS_Source/list.c ****  *----------------------------------------------------------*/
  36:..\..\FreeRTOS_Source/list.c **** 
  37:..\..\FreeRTOS_Source/list.c **** void vListInitialise( List_t * const pxList )
  38:..\..\FreeRTOS_Source/list.c **** {
  27              		.loc 1 38 0
  28              		.cfi_startproc
  29              		@ args = 0, pretend = 0, frame = 8
  30              		@ frame_needed = 1, uses_anonymous_args = 0
  31              		@ link register save eliminated.
  32 0000 80B4     		push	{r7}
  33              		.cfi_def_cfa_offset 4
  34              		.cfi_offset 7, -4
  35 0002 83B0     		sub	sp, sp, #12
  36              		.cfi_def_cfa_offset 16
  37 0004 00AF     		add	r7, sp, #0
  38              		.cfi_def_cfa_register 7
  39 0006 7860     		str	r0, [r7, #4]
  39:..\..\FreeRTOS_Source/list.c **** 	/* The list structure contains a list item which is used to mark the
  40:..\..\FreeRTOS_Source/list.c **** 	end of the list.  To initialise the list the list end is inserted
  41:..\..\FreeRTOS_Source/list.c **** 	as the only list entry. */
  42:..\..\FreeRTOS_Source/list.c **** 	pxList->pxIndex = ( ListItem_t * ) &( pxList->xListEnd );			/*lint !e826 !e740 !e9087 The mini lis
  40              		.loc 1 42 0
  41 0008 7B68     		ldr	r3, [r7, #4]
  42 000a 03F10802 		add	r2, r3, #8
  43 000e 7B68     		ldr	r3, [r7, #4]
  44 0010 5A60     		str	r2, [r3, #4]
  43:..\..\FreeRTOS_Source/list.c **** 
  44:..\..\FreeRTOS_Source/list.c **** 	/* The list end value is the highest possible value in the list to
  45:..\..\FreeRTOS_Source/list.c **** 	ensure it remains at the end of the list. */
  46:..\..\FreeRTOS_Source/list.c **** 	pxList->xListEnd.xItemValue = portMAX_DELAY;
  45              		.loc 1 46 0
  46 0012 7B68     		ldr	r3, [r7, #4]
  47 0014 4FF0FF32 		mov	r2, #-1
  48 0018 9A60     		str	r2, [r3, #8]
  47:..\..\FreeRTOS_Source/list.c **** 
  48:..\..\FreeRTOS_Source/list.c **** 	/* The list end next and previous pointers point to itself so we know
  49:..\..\FreeRTOS_Source/list.c **** 	when the list is empty. */
  50:..\..\FreeRTOS_Source/list.c **** 	pxList->xListEnd.pxNext = ( ListItem_t * ) &( pxList->xListEnd );	/*lint !e826 !e740 !e9087 The mi
  49              		.loc 1 50 0
  50 001a 7B68     		ldr	r3, [r7, #4]
  51 001c 03F10802 		add	r2, r3, #8
  52 0020 7B68     		ldr	r3, [r7, #4]
  53 0022 DA60     		str	r2, [r3, #12]
  51:..\..\FreeRTOS_Source/list.c **** 	pxList->xListEnd.pxPrevious = ( ListItem_t * ) &( pxList->xListEnd );/*lint !e826 !e740 !e9087 The
  54              		.loc 1 51 0
  55 0024 7B68     		ldr	r3, [r7, #4]
  56 0026 03F10802 		add	r2, r3, #8
  57 002a 7B68     		ldr	r3, [r7, #4]
  58 002c 1A61     		str	r2, [r3, #16]
  52:..\..\FreeRTOS_Source/list.c **** 
  53:..\..\FreeRTOS_Source/list.c **** 	pxList->uxNumberOfItems = ( UBaseType_t ) 0U;
  59              		.loc 1 53 0
  60 002e 7B68     		ldr	r3, [r7, #4]
  61 0030 0022     		movs	r2, #0
ARM GAS  C:\Users\Jamie\AppData\Local\Temp\ccpt8Lt0.s 			page 3


  62 0032 1A60     		str	r2, [r3]
  54:..\..\FreeRTOS_Source/list.c **** 
  55:..\..\FreeRTOS_Source/list.c **** 	/* Write known values into the list if
  56:..\..\FreeRTOS_Source/list.c **** 	configUSE_LIST_DATA_INTEGRITY_CHECK_BYTES is set to 1. */
  57:..\..\FreeRTOS_Source/list.c **** 	listSET_LIST_INTEGRITY_CHECK_1_VALUE( pxList );
  58:..\..\FreeRTOS_Source/list.c **** 	listSET_LIST_INTEGRITY_CHECK_2_VALUE( pxList );
  59:..\..\FreeRTOS_Source/list.c **** }
  63              		.loc 1 59 0
  64 0034 0C37     		adds	r7, r7, #12
  65              		.cfi_def_cfa_offset 4
  66 0036 BD46     		mov	sp, r7
  67              		.cfi_def_cfa_register 13
  68              		@ sp needed
  69 0038 5DF8047B 		ldr	r7, [sp], #4
  70              		.cfi_restore 7
  71              		.cfi_def_cfa_offset 0
  72 003c 7047     		bx	lr
  73              		.cfi_endproc
  74              	.LFE68:
  75              		.size	vListInitialise, .-vListInitialise
  76 003e 00BF     		.section	.text.vListInitialiseItem,"ax",%progbits
  77              		.align	2
  78              		.global	vListInitialiseItem
  79              		.thumb
  80              		.thumb_func
  81              		.type	vListInitialiseItem, %function
  82              	vListInitialiseItem:
  83              	.LFB69:
  60:..\..\FreeRTOS_Source/list.c **** /*-----------------------------------------------------------*/
  61:..\..\FreeRTOS_Source/list.c **** 
  62:..\..\FreeRTOS_Source/list.c **** void vListInitialiseItem( ListItem_t * const pxItem )
  63:..\..\FreeRTOS_Source/list.c **** {
  84              		.loc 1 63 0
  85              		.cfi_startproc
  86              		@ args = 0, pretend = 0, frame = 8
  87              		@ frame_needed = 1, uses_anonymous_args = 0
  88              		@ link register save eliminated.
  89 0000 80B4     		push	{r7}
  90              		.cfi_def_cfa_offset 4
  91              		.cfi_offset 7, -4
  92 0002 83B0     		sub	sp, sp, #12
  93              		.cfi_def_cfa_offset 16
  94 0004 00AF     		add	r7, sp, #0
  95              		.cfi_def_cfa_register 7
  96 0006 7860     		str	r0, [r7, #4]
  64:..\..\FreeRTOS_Source/list.c **** 	/* Make sure the list item is not recorded as being on a list. */
  65:..\..\FreeRTOS_Source/list.c **** 	pxItem->pxContainer = NULL;
  97              		.loc 1 65 0
  98 0008 7B68     		ldr	r3, [r7, #4]
  99 000a 0022     		movs	r2, #0
 100 000c 1A61     		str	r2, [r3, #16]
  66:..\..\FreeRTOS_Source/list.c **** 
  67:..\..\FreeRTOS_Source/list.c **** 	/* Write known values into the list item if
  68:..\..\FreeRTOS_Source/list.c **** 	configUSE_LIST_DATA_INTEGRITY_CHECK_BYTES is set to 1. */
  69:..\..\FreeRTOS_Source/list.c **** 	listSET_FIRST_LIST_ITEM_INTEGRITY_CHECK_VALUE( pxItem );
  70:..\..\FreeRTOS_Source/list.c **** 	listSET_SECOND_LIST_ITEM_INTEGRITY_CHECK_VALUE( pxItem );
  71:..\..\FreeRTOS_Source/list.c **** }
ARM GAS  C:\Users\Jamie\AppData\Local\Temp\ccpt8Lt0.s 			page 4


 101              		.loc 1 71 0
 102 000e 0C37     		adds	r7, r7, #12
 103              		.cfi_def_cfa_offset 4
 104 0010 BD46     		mov	sp, r7
 105              		.cfi_def_cfa_register 13
 106              		@ sp needed
 107 0012 5DF8047B 		ldr	r7, [sp], #4
 108              		.cfi_restore 7
 109              		.cfi_def_cfa_offset 0
 110 0016 7047     		bx	lr
 111              		.cfi_endproc
 112              	.LFE69:
 113              		.size	vListInitialiseItem, .-vListInitialiseItem
 114              		.section	.text.vListInsertEnd,"ax",%progbits
 115              		.align	2
 116              		.global	vListInsertEnd
 117              		.thumb
 118              		.thumb_func
 119              		.type	vListInsertEnd, %function
 120              	vListInsertEnd:
 121              	.LFB70:
  72:..\..\FreeRTOS_Source/list.c **** /*-----------------------------------------------------------*/
  73:..\..\FreeRTOS_Source/list.c **** 
  74:..\..\FreeRTOS_Source/list.c **** void vListInsertEnd( List_t * const pxList, ListItem_t * const pxNewListItem )
  75:..\..\FreeRTOS_Source/list.c **** {
 122              		.loc 1 75 0
 123              		.cfi_startproc
 124              		@ args = 0, pretend = 0, frame = 16
 125              		@ frame_needed = 1, uses_anonymous_args = 0
 126              		@ link register save eliminated.
 127 0000 80B4     		push	{r7}
 128              		.cfi_def_cfa_offset 4
 129              		.cfi_offset 7, -4
 130 0002 85B0     		sub	sp, sp, #20
 131              		.cfi_def_cfa_offset 24
 132 0004 00AF     		add	r7, sp, #0
 133              		.cfi_def_cfa_register 7
 134 0006 7860     		str	r0, [r7, #4]
 135 0008 3960     		str	r1, [r7]
  76:..\..\FreeRTOS_Source/list.c **** ListItem_t * const pxIndex = pxList->pxIndex;
 136              		.loc 1 76 0
 137 000a 7B68     		ldr	r3, [r7, #4]
 138 000c 5B68     		ldr	r3, [r3, #4]
 139 000e FB60     		str	r3, [r7, #12]
  77:..\..\FreeRTOS_Source/list.c **** 
  78:..\..\FreeRTOS_Source/list.c **** 	/* Only effective when configASSERT() is also defined, these tests may catch
  79:..\..\FreeRTOS_Source/list.c **** 	the list data structures being overwritten in memory.  They will not catch
  80:..\..\FreeRTOS_Source/list.c **** 	data errors caused by incorrect configuration or use of FreeRTOS. */
  81:..\..\FreeRTOS_Source/list.c **** 	listTEST_LIST_INTEGRITY( pxList );
  82:..\..\FreeRTOS_Source/list.c **** 	listTEST_LIST_ITEM_INTEGRITY( pxNewListItem );
  83:..\..\FreeRTOS_Source/list.c **** 
  84:..\..\FreeRTOS_Source/list.c **** 	/* Insert a new list item into pxList, but rather than sort the list,
  85:..\..\FreeRTOS_Source/list.c **** 	makes the new list item the last item to be removed by a call to
  86:..\..\FreeRTOS_Source/list.c **** 	listGET_OWNER_OF_NEXT_ENTRY(). */
  87:..\..\FreeRTOS_Source/list.c **** 	pxNewListItem->pxNext = pxIndex;
 140              		.loc 1 87 0
 141 0010 3B68     		ldr	r3, [r7]
ARM GAS  C:\Users\Jamie\AppData\Local\Temp\ccpt8Lt0.s 			page 5


 142 0012 FA68     		ldr	r2, [r7, #12]
 143 0014 5A60     		str	r2, [r3, #4]
  88:..\..\FreeRTOS_Source/list.c **** 	pxNewListItem->pxPrevious = pxIndex->pxPrevious;
 144              		.loc 1 88 0
 145 0016 FB68     		ldr	r3, [r7, #12]
 146 0018 9A68     		ldr	r2, [r3, #8]
 147 001a 3B68     		ldr	r3, [r7]
 148 001c 9A60     		str	r2, [r3, #8]
  89:..\..\FreeRTOS_Source/list.c **** 
  90:..\..\FreeRTOS_Source/list.c **** 	/* Only used during decision coverage testing. */
  91:..\..\FreeRTOS_Source/list.c **** 	mtCOVERAGE_TEST_DELAY();
  92:..\..\FreeRTOS_Source/list.c **** 
  93:..\..\FreeRTOS_Source/list.c **** 	pxIndex->pxPrevious->pxNext = pxNewListItem;
 149              		.loc 1 93 0
 150 001e FB68     		ldr	r3, [r7, #12]
 151 0020 9B68     		ldr	r3, [r3, #8]
 152 0022 3A68     		ldr	r2, [r7]
 153 0024 5A60     		str	r2, [r3, #4]
  94:..\..\FreeRTOS_Source/list.c **** 	pxIndex->pxPrevious = pxNewListItem;
 154              		.loc 1 94 0
 155 0026 FB68     		ldr	r3, [r7, #12]
 156 0028 3A68     		ldr	r2, [r7]
 157 002a 9A60     		str	r2, [r3, #8]
  95:..\..\FreeRTOS_Source/list.c **** 
  96:..\..\FreeRTOS_Source/list.c **** 	/* Remember which list the item is in. */
  97:..\..\FreeRTOS_Source/list.c **** 	pxNewListItem->pxContainer = pxList;
 158              		.loc 1 97 0
 159 002c 3B68     		ldr	r3, [r7]
 160 002e 7A68     		ldr	r2, [r7, #4]
 161 0030 1A61     		str	r2, [r3, #16]
  98:..\..\FreeRTOS_Source/list.c **** 
  99:..\..\FreeRTOS_Source/list.c **** 	( pxList->uxNumberOfItems )++;
 162              		.loc 1 99 0
 163 0032 7B68     		ldr	r3, [r7, #4]
 164 0034 1B68     		ldr	r3, [r3]
 165 0036 5A1C     		adds	r2, r3, #1
 166 0038 7B68     		ldr	r3, [r7, #4]
 167 003a 1A60     		str	r2, [r3]
 100:..\..\FreeRTOS_Source/list.c **** }
 168              		.loc 1 100 0
 169 003c 1437     		adds	r7, r7, #20
 170              		.cfi_def_cfa_offset 4
 171 003e BD46     		mov	sp, r7
 172              		.cfi_def_cfa_register 13
 173              		@ sp needed
 174 0040 5DF8047B 		ldr	r7, [sp], #4
 175              		.cfi_restore 7
 176              		.cfi_def_cfa_offset 0
 177 0044 7047     		bx	lr
 178              		.cfi_endproc
 179              	.LFE70:
 180              		.size	vListInsertEnd, .-vListInsertEnd
 181 0046 00BF     		.section	.text.vListInsert,"ax",%progbits
 182              		.align	2
 183              		.global	vListInsert
 184              		.thumb
 185              		.thumb_func
ARM GAS  C:\Users\Jamie\AppData\Local\Temp\ccpt8Lt0.s 			page 6


 186              		.type	vListInsert, %function
 187              	vListInsert:
 188              	.LFB71:
 101:..\..\FreeRTOS_Source/list.c **** /*-----------------------------------------------------------*/
 102:..\..\FreeRTOS_Source/list.c **** 
 103:..\..\FreeRTOS_Source/list.c **** void vListInsert( List_t * const pxList, ListItem_t * const pxNewListItem )
 104:..\..\FreeRTOS_Source/list.c **** {
 189              		.loc 1 104 0
 190              		.cfi_startproc
 191              		@ args = 0, pretend = 0, frame = 16
 192              		@ frame_needed = 1, uses_anonymous_args = 0
 193              		@ link register save eliminated.
 194 0000 80B4     		push	{r7}
 195              		.cfi_def_cfa_offset 4
 196              		.cfi_offset 7, -4
 197 0002 85B0     		sub	sp, sp, #20
 198              		.cfi_def_cfa_offset 24
 199 0004 00AF     		add	r7, sp, #0
 200              		.cfi_def_cfa_register 7
 201 0006 7860     		str	r0, [r7, #4]
 202 0008 3960     		str	r1, [r7]
 105:..\..\FreeRTOS_Source/list.c **** ListItem_t *pxIterator;
 106:..\..\FreeRTOS_Source/list.c **** const TickType_t xValueOfInsertion = pxNewListItem->xItemValue;
 203              		.loc 1 106 0
 204 000a 3B68     		ldr	r3, [r7]
 205 000c 1B68     		ldr	r3, [r3]
 206 000e BB60     		str	r3, [r7, #8]
 107:..\..\FreeRTOS_Source/list.c **** 
 108:..\..\FreeRTOS_Source/list.c **** 	/* Only effective when configASSERT() is also defined, these tests may catch
 109:..\..\FreeRTOS_Source/list.c **** 	the list data structures being overwritten in memory.  They will not catch
 110:..\..\FreeRTOS_Source/list.c **** 	data errors caused by incorrect configuration or use of FreeRTOS. */
 111:..\..\FreeRTOS_Source/list.c **** 	listTEST_LIST_INTEGRITY( pxList );
 112:..\..\FreeRTOS_Source/list.c **** 	listTEST_LIST_ITEM_INTEGRITY( pxNewListItem );
 113:..\..\FreeRTOS_Source/list.c **** 
 114:..\..\FreeRTOS_Source/list.c **** 	/* Insert the new list item into the list, sorted in xItemValue order.
 115:..\..\FreeRTOS_Source/list.c **** 
 116:..\..\FreeRTOS_Source/list.c **** 	If the list already contains a list item with the same item value then the
 117:..\..\FreeRTOS_Source/list.c **** 	new list item should be placed after it.  This ensures that TCBs which are
 118:..\..\FreeRTOS_Source/list.c **** 	stored in ready lists (all of which have the same xItemValue value) get a
 119:..\..\FreeRTOS_Source/list.c **** 	share of the CPU.  However, if the xItemValue is the same as the back marker
 120:..\..\FreeRTOS_Source/list.c **** 	the iteration loop below will not end.  Therefore the value is checked
 121:..\..\FreeRTOS_Source/list.c **** 	first, and the algorithm slightly modified if necessary. */
 122:..\..\FreeRTOS_Source/list.c **** 	if( xValueOfInsertion == portMAX_DELAY )
 207              		.loc 1 122 0
 208 0010 BB68     		ldr	r3, [r7, #8]
 209 0012 B3F1FF3F 		cmp	r3, #-1
 210 0016 03D1     		bne	.L5
 123:..\..\FreeRTOS_Source/list.c **** 	{
 124:..\..\FreeRTOS_Source/list.c **** 		pxIterator = pxList->xListEnd.pxPrevious;
 211              		.loc 1 124 0
 212 0018 7B68     		ldr	r3, [r7, #4]
 213 001a 1B69     		ldr	r3, [r3, #16]
 214 001c FB60     		str	r3, [r7, #12]
 215 001e 0CE0     		b	.L6
 216              	.L5:
 125:..\..\FreeRTOS_Source/list.c **** 	}
 126:..\..\FreeRTOS_Source/list.c **** 	else
ARM GAS  C:\Users\Jamie\AppData\Local\Temp\ccpt8Lt0.s 			page 7


 127:..\..\FreeRTOS_Source/list.c **** 	{
 128:..\..\FreeRTOS_Source/list.c **** 		/* *** NOTE ***********************************************************
 129:..\..\FreeRTOS_Source/list.c **** 		If you find your application is crashing here then likely causes are
 130:..\..\FreeRTOS_Source/list.c **** 		listed below.  In addition see https://www.freertos.org/FAQHelp.html for
 131:..\..\FreeRTOS_Source/list.c **** 		more tips, and ensure configASSERT() is defined!
 132:..\..\FreeRTOS_Source/list.c **** 		https://www.freertos.org/a00110.html#configASSERT
 133:..\..\FreeRTOS_Source/list.c **** 
 134:..\..\FreeRTOS_Source/list.c **** 			1) Stack overflow -
 135:..\..\FreeRTOS_Source/list.c **** 			   see https://www.freertos.org/Stacks-and-stack-overflow-checking.html
 136:..\..\FreeRTOS_Source/list.c **** 			2) Incorrect interrupt priority assignment, especially on Cortex-M
 137:..\..\FreeRTOS_Source/list.c **** 			   parts where numerically high priority values denote low actual
 138:..\..\FreeRTOS_Source/list.c **** 			   interrupt priorities, which can seem counter intuitive.  See
 139:..\..\FreeRTOS_Source/list.c **** 			   https://www.freertos.org/RTOS-Cortex-M3-M4.html and the definition
 140:..\..\FreeRTOS_Source/list.c **** 			   of configMAX_SYSCALL_INTERRUPT_PRIORITY on
 141:..\..\FreeRTOS_Source/list.c **** 			   https://www.freertos.org/a00110.html
 142:..\..\FreeRTOS_Source/list.c **** 			3) Calling an API function from within a critical section or when
 143:..\..\FreeRTOS_Source/list.c **** 			   the scheduler is suspended, or calling an API function that does
 144:..\..\FreeRTOS_Source/list.c **** 			   not end in "FromISR" from an interrupt.
 145:..\..\FreeRTOS_Source/list.c **** 			4) Using a queue or semaphore before it has been initialised or
 146:..\..\FreeRTOS_Source/list.c **** 			   before the scheduler has been started (are interrupts firing
 147:..\..\FreeRTOS_Source/list.c **** 			   before vTaskStartScheduler() has been called?).
 148:..\..\FreeRTOS_Source/list.c **** 		**********************************************************************/
 149:..\..\FreeRTOS_Source/list.c **** 
 150:..\..\FreeRTOS_Source/list.c **** 		for( pxIterator = ( ListItem_t * ) &( pxList->xListEnd ); pxIterator->pxNext->xItemValue <= xValu
 217              		.loc 1 150 0
 218 0020 7B68     		ldr	r3, [r7, #4]
 219 0022 0833     		adds	r3, r3, #8
 220 0024 FB60     		str	r3, [r7, #12]
 221 0026 02E0     		b	.L7
 222              	.L8:
 223              		.loc 1 150 0 is_stmt 0 discriminator 3
 224 0028 FB68     		ldr	r3, [r7, #12]
 225 002a 5B68     		ldr	r3, [r3, #4]
 226 002c FB60     		str	r3, [r7, #12]
 227              	.L7:
 228              		.loc 1 150 0 discriminator 1
 229 002e FB68     		ldr	r3, [r7, #12]
 230 0030 5B68     		ldr	r3, [r3, #4]
 231 0032 1A68     		ldr	r2, [r3]
 232 0034 BB68     		ldr	r3, [r7, #8]
 233 0036 9A42     		cmp	r2, r3
 234 0038 F6D9     		bls	.L8
 235              	.L6:
 151:..\..\FreeRTOS_Source/list.c **** 		{
 152:..\..\FreeRTOS_Source/list.c **** 			/* There is nothing to do here, just iterating to the wanted
 153:..\..\FreeRTOS_Source/list.c **** 			insertion position. */
 154:..\..\FreeRTOS_Source/list.c **** 		}
 155:..\..\FreeRTOS_Source/list.c **** 	}
 156:..\..\FreeRTOS_Source/list.c **** 
 157:..\..\FreeRTOS_Source/list.c **** 	pxNewListItem->pxNext = pxIterator->pxNext;
 236              		.loc 1 157 0 is_stmt 1
 237 003a FB68     		ldr	r3, [r7, #12]
 238 003c 5A68     		ldr	r2, [r3, #4]
 239 003e 3B68     		ldr	r3, [r7]
 240 0040 5A60     		str	r2, [r3, #4]
 158:..\..\FreeRTOS_Source/list.c **** 	pxNewListItem->pxNext->pxPrevious = pxNewListItem;
 241              		.loc 1 158 0
ARM GAS  C:\Users\Jamie\AppData\Local\Temp\ccpt8Lt0.s 			page 8


 242 0042 3B68     		ldr	r3, [r7]
 243 0044 5B68     		ldr	r3, [r3, #4]
 244 0046 3A68     		ldr	r2, [r7]
 245 0048 9A60     		str	r2, [r3, #8]
 159:..\..\FreeRTOS_Source/list.c **** 	pxNewListItem->pxPrevious = pxIterator;
 246              		.loc 1 159 0
 247 004a 3B68     		ldr	r3, [r7]
 248 004c FA68     		ldr	r2, [r7, #12]
 249 004e 9A60     		str	r2, [r3, #8]
 160:..\..\FreeRTOS_Source/list.c **** 	pxIterator->pxNext = pxNewListItem;
 250              		.loc 1 160 0
 251 0050 FB68     		ldr	r3, [r7, #12]
 252 0052 3A68     		ldr	r2, [r7]
 253 0054 5A60     		str	r2, [r3, #4]
 161:..\..\FreeRTOS_Source/list.c **** 
 162:..\..\FreeRTOS_Source/list.c **** 	/* Remember which list the item is in.  This allows fast removal of the
 163:..\..\FreeRTOS_Source/list.c **** 	item later. */
 164:..\..\FreeRTOS_Source/list.c **** 	pxNewListItem->pxContainer = pxList;
 254              		.loc 1 164 0
 255 0056 3B68     		ldr	r3, [r7]
 256 0058 7A68     		ldr	r2, [r7, #4]
 257 005a 1A61     		str	r2, [r3, #16]
 165:..\..\FreeRTOS_Source/list.c **** 
 166:..\..\FreeRTOS_Source/list.c **** 	( pxList->uxNumberOfItems )++;
 258              		.loc 1 166 0
 259 005c 7B68     		ldr	r3, [r7, #4]
 260 005e 1B68     		ldr	r3, [r3]
 261 0060 5A1C     		adds	r2, r3, #1
 262 0062 7B68     		ldr	r3, [r7, #4]
 263 0064 1A60     		str	r2, [r3]
 167:..\..\FreeRTOS_Source/list.c **** }
 264              		.loc 1 167 0
 265 0066 1437     		adds	r7, r7, #20
 266              		.cfi_def_cfa_offset 4
 267 0068 BD46     		mov	sp, r7
 268              		.cfi_def_cfa_register 13
 269              		@ sp needed
 270 006a 5DF8047B 		ldr	r7, [sp], #4
 271              		.cfi_restore 7
 272              		.cfi_def_cfa_offset 0
 273 006e 7047     		bx	lr
 274              		.cfi_endproc
 275              	.LFE71:
 276              		.size	vListInsert, .-vListInsert
 277              		.section	.text.uxListRemove,"ax",%progbits
 278              		.align	2
 279              		.global	uxListRemove
 280              		.thumb
 281              		.thumb_func
 282              		.type	uxListRemove, %function
 283              	uxListRemove:
 284              	.LFB72:
 168:..\..\FreeRTOS_Source/list.c **** /*-----------------------------------------------------------*/
 169:..\..\FreeRTOS_Source/list.c **** 
 170:..\..\FreeRTOS_Source/list.c **** UBaseType_t uxListRemove( ListItem_t * const pxItemToRemove )
 171:..\..\FreeRTOS_Source/list.c **** {
 285              		.loc 1 171 0
ARM GAS  C:\Users\Jamie\AppData\Local\Temp\ccpt8Lt0.s 			page 9


 286              		.cfi_startproc
 287              		@ args = 0, pretend = 0, frame = 16
 288              		@ frame_needed = 1, uses_anonymous_args = 0
 289              		@ link register save eliminated.
 290 0000 80B4     		push	{r7}
 291              		.cfi_def_cfa_offset 4
 292              		.cfi_offset 7, -4
 293 0002 85B0     		sub	sp, sp, #20
 294              		.cfi_def_cfa_offset 24
 295 0004 00AF     		add	r7, sp, #0
 296              		.cfi_def_cfa_register 7
 297 0006 7860     		str	r0, [r7, #4]
 172:..\..\FreeRTOS_Source/list.c **** /* The list item knows which list it is in.  Obtain the list from the list
 173:..\..\FreeRTOS_Source/list.c **** item. */
 174:..\..\FreeRTOS_Source/list.c **** List_t * const pxList = pxItemToRemove->pxContainer;
 298              		.loc 1 174 0
 299 0008 7B68     		ldr	r3, [r7, #4]
 300 000a 1B69     		ldr	r3, [r3, #16]
 301 000c FB60     		str	r3, [r7, #12]
 175:..\..\FreeRTOS_Source/list.c **** 
 176:..\..\FreeRTOS_Source/list.c **** 	pxItemToRemove->pxNext->pxPrevious = pxItemToRemove->pxPrevious;
 302              		.loc 1 176 0
 303 000e 7B68     		ldr	r3, [r7, #4]
 304 0010 5B68     		ldr	r3, [r3, #4]
 305 0012 7A68     		ldr	r2, [r7, #4]
 306 0014 9268     		ldr	r2, [r2, #8]
 307 0016 9A60     		str	r2, [r3, #8]
 177:..\..\FreeRTOS_Source/list.c **** 	pxItemToRemove->pxPrevious->pxNext = pxItemToRemove->pxNext;
 308              		.loc 1 177 0
 309 0018 7B68     		ldr	r3, [r7, #4]
 310 001a 9B68     		ldr	r3, [r3, #8]
 311 001c 7A68     		ldr	r2, [r7, #4]
 312 001e 5268     		ldr	r2, [r2, #4]
 313 0020 5A60     		str	r2, [r3, #4]
 178:..\..\FreeRTOS_Source/list.c **** 
 179:..\..\FreeRTOS_Source/list.c **** 	/* Only used during decision coverage testing. */
 180:..\..\FreeRTOS_Source/list.c **** 	mtCOVERAGE_TEST_DELAY();
 181:..\..\FreeRTOS_Source/list.c **** 
 182:..\..\FreeRTOS_Source/list.c **** 	/* Make sure the index is left pointing to a valid item. */
 183:..\..\FreeRTOS_Source/list.c **** 	if( pxList->pxIndex == pxItemToRemove )
 314              		.loc 1 183 0
 315 0022 FB68     		ldr	r3, [r7, #12]
 316 0024 5A68     		ldr	r2, [r3, #4]
 317 0026 7B68     		ldr	r3, [r7, #4]
 318 0028 9A42     		cmp	r2, r3
 319 002a 03D1     		bne	.L10
 184:..\..\FreeRTOS_Source/list.c **** 	{
 185:..\..\FreeRTOS_Source/list.c **** 		pxList->pxIndex = pxItemToRemove->pxPrevious;
 320              		.loc 1 185 0
 321 002c 7B68     		ldr	r3, [r7, #4]
 322 002e 9A68     		ldr	r2, [r3, #8]
 323 0030 FB68     		ldr	r3, [r7, #12]
 324 0032 5A60     		str	r2, [r3, #4]
 325              	.L10:
 186:..\..\FreeRTOS_Source/list.c **** 	}
 187:..\..\FreeRTOS_Source/list.c **** 	else
 188:..\..\FreeRTOS_Source/list.c **** 	{
ARM GAS  C:\Users\Jamie\AppData\Local\Temp\ccpt8Lt0.s 			page 10


 189:..\..\FreeRTOS_Source/list.c **** 		mtCOVERAGE_TEST_MARKER();
 190:..\..\FreeRTOS_Source/list.c **** 	}
 191:..\..\FreeRTOS_Source/list.c **** 
 192:..\..\FreeRTOS_Source/list.c **** 	pxItemToRemove->pxContainer = NULL;
 326              		.loc 1 192 0
 327 0034 7B68     		ldr	r3, [r7, #4]
 328 0036 0022     		movs	r2, #0
 329 0038 1A61     		str	r2, [r3, #16]
 193:..\..\FreeRTOS_Source/list.c **** 	( pxList->uxNumberOfItems )--;
 330              		.loc 1 193 0
 331 003a FB68     		ldr	r3, [r7, #12]
 332 003c 1B68     		ldr	r3, [r3]
 333 003e 5A1E     		subs	r2, r3, #1
 334 0040 FB68     		ldr	r3, [r7, #12]
 335 0042 1A60     		str	r2, [r3]
 194:..\..\FreeRTOS_Source/list.c **** 
 195:..\..\FreeRTOS_Source/list.c **** 	return pxList->uxNumberOfItems;
 336              		.loc 1 195 0
 337 0044 FB68     		ldr	r3, [r7, #12]
 338 0046 1B68     		ldr	r3, [r3]
 196:..\..\FreeRTOS_Source/list.c **** }
 339              		.loc 1 196 0
 340 0048 1846     		mov	r0, r3
 341 004a 1437     		adds	r7, r7, #20
 342              		.cfi_def_cfa_offset 4
 343 004c BD46     		mov	sp, r7
 344              		.cfi_def_cfa_register 13
 345              		@ sp needed
 346 004e 5DF8047B 		ldr	r7, [sp], #4
 347              		.cfi_restore 7
 348              		.cfi_def_cfa_offset 0
 349 0052 7047     		bx	lr
 350              		.cfi_endproc
 351              	.LFE72:
 352              		.size	uxListRemove, .-uxListRemove
 353              		.text
 354              	.Letext0:
 355              		.file 2 "c:\\program files (x86)\\cypress\\psoc creator\\4.0\\psoc creator\\import\\gnu\\arm\\4.9.
 356              		.file 3 "c:\\program files (x86)\\cypress\\psoc creator\\4.0\\psoc creator\\import\\gnu\\arm\\4.9.
 357              		.file 4 "..\\..\\FreeRTOS_Source\\portable\\GCC\\ARM_CM3/portmacro.h"
 358              		.file 5 "..\\..\\FreeRTOS_Source\\include/list.h"
 359              		.file 6 "Generated_Source\\PSoC5/core_cm3.h"