ARM GAS  C:\Users\shevi\AppData\Local\Temp\ccG7hixb.s 			page 1


   1              		.syntax unified
   2              		.cpu cortex-m3
   3              		.fpu softvfp
   4              		.eabi_attribute 20, 1
   5              		.eabi_attribute 21, 1
   6              		.eabi_attribute 23, 3
   7              		.eabi_attribute 24, 1
   8              		.eabi_attribute 25, 1
   9              		.eabi_attribute 26, 1
  10              		.eabi_attribute 30, 6
  11              		.eabi_attribute 34, 1
  12              		.eabi_attribute 18, 4
  13              		.thumb
  14              		.file	"main.c"
  15              		.text
  16              	.Ltext0:
  17              		.cfi_sections	.debug_frame
  18              		.bss
  19              		.align	2
  20              	pxPort:
  21 0000 00000000 		.space	4
  22              		.global	gatekeeper
  23              		.align	2
  24              		.type	gatekeeper, %object
  25              		.size	gatekeeper, 4
  26              	gatekeeper:
  27 0004 00000000 		.space	4
  28              		.global	queue_handle
  29              		.align	2
  30              		.type	queue_handle, %object
  31              		.size	queue_handle, 4
  32              	queue_handle:
  33 0008 00000000 		.space	4
  34              		.comm	rx_receive,1,1
  35              		.comm	buffer,64,4
  36              		.comm	left_wheel,36,4
  37              		.comm	right_wheel,36,4
  38              		.comm	k,24,8
  39              		.section	.rodata
  40              		.align	2
  41              	.LC0:
  42 0000 0A3D3D3D 		.ascii	"\012=== NEW RUN ===\012\012\000"
  42      204E4557 
  42      2052554E 
  42      203D3D3D 
  42      0A0A00
  43 0013 00       		.align	2
  44              	.LC1:
  45 0014 696E6974 		.ascii	"initialise the PID\000"
  45      69616C69 
  45      73652074 
  45      68652050 
  45      494400
  46 0027 00       		.align	2
  47              	.LC2:
  48 0028 77616974 		.ascii	"waiting for a serial bus to come in\000"
  48      696E6720 
ARM GAS  C:\Users\shevi\AppData\Local\Temp\ccG7hixb.s 			page 2


  48      666F7220 
  48      61207365 
  48      7269616C 
  49              		.section	.text.main,"ax",%progbits
  50              		.align	2
  51              		.global	main
  52              		.thumb
  53              		.thumb_func
  54              		.type	main, %function
  55              	main:
  56              	.LFB68:
  57              		.file 1 "main.c"
   1:main.c        **** /*
   2:main.c        ****  * FreeRTOS Kernel V10.0.1
   3:main.c        ****  * Copyright (C) 2017 Amazon.com, Inc. or its affiliates.  All Rights Reserved.
   4:main.c        ****  *
   5:main.c        ****  * Permission is hereby granted, free of charge, to any person obtaining a copy of
   6:main.c        ****  * this software and associated documentation files (the "Software"), to deal in
   7:main.c        ****  * the Software without restriction, including without limitation the rights to
   8:main.c        ****  * use, copy, modify, merge, publish, distribute, sublicense, and/or sell copies of
   9:main.c        ****  * the Software, and to permit persons to whom the Software is furnished to do so,
  10:main.c        ****  * subject to the following conditions:
  11:main.c        ****  *
  12:main.c        ****  * The above copyright notice and this permission notice shall be included in all
  13:main.c        ****  * copies or substantial portions of the Software.
  14:main.c        ****  *
  15:main.c        ****  * THE SOFTWARE IS PROVIDED "AS IS", WITHOUT WARRANTY OF ANY KIND, EXPRESS OR
  16:main.c        ****  * IMPLIED, INCLUDING BUT NOT LIMITED TO THE WARRANTIES OF MERCHANTABILITY, FITNESS
  17:main.c        ****  * FOR A PARTICULAR PURPOSE AND NONINFRINGEMENT. IN NO EVENT SHALL THE AUTHORS OR
  18:main.c        ****  * COPYRIGHT HOLDERS BE LIABLE FOR ANY CLAIM, DAMAGES OR OTHER LIABILITY, WHETHER
  19:main.c        ****  * IN AN ACTION OF CONTRACT, TORT OR OTHERWISE, ARISING FROM, OUT OF OR IN
  20:main.c        ****  * CONNECTION WITH THE SOFTWARE OR THE USE OR OTHER DEALINGS IN THE SOFTWARE.
  21:main.c        ****  *
  22:main.c        ****  * http://www.FreeRTOS.org
  23:main.c        ****  * http://aws.amazon.com/freertos
  24:main.c        ****  *
  25:main.c        ****  * 1 tab == 4 spaces!
  26:main.c        ****  */
  27:main.c        **** 
  28:main.c        **** /* Standard includes */
  29:main.c        **** #include <device.h>
  30:main.c        **** #include <stdio.h>
  31:main.c        **** #include <stdint.h>
  32:main.c        **** #include <stdio.h>
  33:main.c        **** #include <stdint.h>
  34:main.c        **** #include <stdlib.h>
  35:main.c        **** #include <string.h>
  36:main.c        ****  
  37:main.c        **** 
  38:main.c        **** /* FreeRTOS includes */
  39:main.c        **** #include "FreeRTOS.h"
  40:main.c        **** #include "task.h"
  41:main.c        **** #include "semphr.h"
  42:main.c        **** #include "serial.h"
  43:main.c        **** 
  44:main.c        **** /* My headers */
  45:main.c        **** #include "movement.h"
ARM GAS  C:\Users\shevi\AppData\Local\Temp\ccG7hixb.s 			page 3


  46:main.c        **** 
  47:main.c        **** /* The time between cycles of the 'check' functionality (defined within the
  48:main.c        **** tick hook. */
  49:main.c        **** #define mainCHECK_DELAY						( ( TickType_t ) 5000 / portTICK_PERIOD_MS )
  50:main.c        **** #define mainCOM_LED							( 3 )
  51:main.c        **** 
  52:main.c        **** /* The number of nano seconds between each processor clock. */
  53:main.c        **** #define mainNS_PER_CLOCK ( ( unsigned long ) ( ( 1.0 / ( double ) configCPU_CLOCK_HZ ) * 1000000000
  54:main.c        **** 
  55:main.c        **** /* Task priorities. */
  56:main.c        **** #define mainSENDER_PRIORITY       			( tskIDLE_PRIORITY )
  57:main.c        **** #define mainRECEIVER_PRIORITY        		( tskIDLE_PRIORITY )
  58:main.c        **** 
  59:main.c        **** #define comRX_BLOCK_TIME			( ( TickType_t ) 0xffff )
  60:main.c        **** 
  61:main.c        **** 
  62:main.c        **** void PID_initialise( void *p );
  63:main.c        **** void receive_data( void *p );
  64:main.c        **** static void prvHardwareSetup( void );
  65:main.c        **** 
  66:main.c        **** 
  67:main.c        **** static xComPortHandle pxPort = NULL;
  68:main.c        **** xSemaphoreHandle gatekeeper = 0;
  69:main.c        **** xQueueHandle queue_handle = NULL;
  70:main.c        **** 
  71:main.c        **** 
  72:main.c        **** /* global variables */
  73:main.c        **** signed char rx_receive;
  74:main.c        **** unsigned char buffer[64];
  75:main.c        **** 
  76:main.c        **** 
  77:main.c        **** wheel_data left_wheel;
  78:main.c        **** wheel_data right_wheel;
  79:main.c        **** PID_data k;
  80:main.c        **** 
  81:main.c        **** // START OF FUNCTIONS
  82:main.c        **** int main( void ) {
  58              		.loc 1 82 0
  59              		.cfi_startproc
  60              		@ args = 0, pretend = 0, frame = 256
  61              		@ frame_needed = 1, uses_anonymous_args = 0
  62 0000 B0B5     		push	{r4, r5, r7, lr}
  63              		.cfi_def_cfa_offset 16
  64              		.cfi_offset 4, -16
  65              		.cfi_offset 5, -12
  66              		.cfi_offset 7, -8
  67              		.cfi_offset 14, -4
  68 0002 C2B0     		sub	sp, sp, #264
  69              		.cfi_def_cfa_offset 280
  70 0004 02AF     		add	r7, sp, #8
  71              		.cfi_def_cfa 7, 272
  83:main.c        **** 	
  84:main.c        ****     prvHardwareSetup(); 
  72              		.loc 1 84 0
  73 0006 FFF7FEFF 		bl	prvHardwareSetup
  85:main.c        ****     LED_Write(1);
  74              		.loc 1 85 0
ARM GAS  C:\Users\shevi\AppData\Local\Temp\ccG7hixb.s 			page 4


  75 000a 0120     		movs	r0, #1
  76 000c FFF7FEFF 		bl	LED_Write
  86:main.c        ****     const signed char * run[64];
  87:main.c        ****     sprintf((char *) run, "\n=== NEW RUN ===\n\n");
  77              		.loc 1 87 0
  78 0010 3B46     		mov	r3, r7
  79 0012 154A     		ldr	r2, .L3
  80 0014 1C46     		mov	r4, r3
  81 0016 1546     		mov	r5, r2
  82 0018 0FCD     		ldmia	r5!, {r0, r1, r2, r3}
  83 001a 0FC4     		stmia	r4!, {r0, r1, r2, r3}
  84 001c 2B68     		ldr	r3, [r5]
  85 001e 1A46     		mov	r2, r3	@ movhi
  86 0020 2280     		strh	r2, [r4]	@ movhi
  87 0022 0234     		adds	r4, r4, #2
  88 0024 1B0C     		lsrs	r3, r3, #16
  89 0026 2370     		strb	r3, [r4]
  88:main.c        ****     //vSerialPutString(pxPort, (const signed char *) run, 64);
  89:main.c        ****     
  90:main.c        ****     gatekeeper = xSemaphoreCreateMutex();
  90              		.loc 1 90 0
  91 0028 0120     		movs	r0, #1
  92 002a FFF7FEFF 		bl	xQueueCreateMutex
  93 002e 0246     		mov	r2, r0
  94 0030 0E4B     		ldr	r3, .L3+4
  95 0032 1A60     		str	r2, [r3]
  91:main.c        ****     
  92:main.c        ****     xTaskCreate( PID_initialise, (const char*) "initialise the PID", 1024, NULL, 2, NULL );
  96              		.loc 1 92 0
  97 0034 0223     		movs	r3, #2
  98 0036 0093     		str	r3, [sp]
  99 0038 0023     		movs	r3, #0
 100 003a 0193     		str	r3, [sp, #4]
 101 003c 0C48     		ldr	r0, .L3+8
 102 003e 0D49     		ldr	r1, .L3+12
 103 0040 4FF48062 		mov	r2, #1024
 104 0044 0023     		movs	r3, #0
 105 0046 FFF7FEFF 		bl	xTaskCreate
  93:main.c        ****     xTaskCreate( receive_data, (const char*) "waiting for a serial bus to come in", 1024, NULL, 1, 
 106              		.loc 1 93 0
 107 004a 0123     		movs	r3, #1
 108 004c 0093     		str	r3, [sp]
 109 004e 0023     		movs	r3, #0
 110 0050 0193     		str	r3, [sp, #4]
 111 0052 0948     		ldr	r0, .L3+16
 112 0054 0949     		ldr	r1, .L3+20
 113 0056 4FF48062 		mov	r2, #1024
 114 005a 0023     		movs	r3, #0
 115 005c FFF7FEFF 		bl	xTaskCreate
  94:main.c        ****     
  95:main.c        **** 	vTaskStartScheduler();
 116              		.loc 1 95 0
 117 0060 FFF7FEFF 		bl	vTaskStartScheduler
 118              	.L2:
  96:main.c        **** 
  97:main.c        **** 	for( ;; );  // You won't actually reach this for loop.
 119              		.loc 1 97 0 discriminator 1
ARM GAS  C:\Users\shevi\AppData\Local\Temp\ccG7hixb.s 			page 5


 120 0064 FEE7     		b	.L2
 121              	.L4:
 122 0066 00BF     		.align	2
 123              	.L3:
 124 0068 00000000 		.word	.LC0
 125 006c 00000000 		.word	gatekeeper
 126 0070 00000000 		.word	PID_initialise
 127 0074 14000000 		.word	.LC1
 128 0078 00000000 		.word	receive_data
 129 007c 28000000 		.word	.LC2
 130              		.cfi_endproc
 131              	.LFE68:
 132              		.size	main, .-main
 133              		.section	.rodata
 134              		.align	2
 135              	.LC3:
 136 004c 62756666 		.ascii	"buffer read as %s\012\000"
 136      65722072 
 136      65616420 
 136      61732025 
 136      730A00
 137 005f 00       		.align	2
 138              	.LC4:
 139 0060 6C656674 		.ascii	"left dest: %li\012right dest: %li\012\000"
 139      20646573 
 139      743A2025 
 139      6C690A72 
 139      69676874 
 140              		.section	.text.receive_data,"ax",%progbits
 141              		.align	2
 142              		.global	receive_data
 143              		.thumb
 144              		.thumb_func
 145              		.type	receive_data, %function
 146              	receive_data:
 147              	.LFB69:
  98:main.c        **** }
  99:main.c        **** 
 100:main.c        **** /*void receive_data( void *p ) {
 101:main.c        ****     
 102:main.c        ****     p = NULL;
 103:main.c        ****     
 104:main.c        ****     const signed char * local_write[64];
 105:main.c        ****     int i = 0;
 106:main.c        ****     int go = 0;
 107:main.c        ****     signed char type = 0;
 108:main.c        ****     
 109:main.c        ****     while(1) {
 110:main.c        ****         if (pdTRUE == xSerialGetChar(pxPort, &rx_receive, comRX_BLOCK_TIME)) {
 111:main.c        ****             go = 1;
 112:main.c        ****             if(xSemaphoreTake(gatekeeper, 50000)) {
 113:main.c        ****                 type = rx_receive;
 114:main.c        ****                 while (go) { 
 115:main.c        ****                     xSerialGetChar(pxPort, &rx_receive, comRX_BLOCK_TIME);
 116:main.c        ****                     if ( i<8  && type == '1') {
 117:main.c        ****                         buffer[i] = rx_receive;
 118:main.c        ****                         i++;     
ARM GAS  C:\Users\shevi\AppData\Local\Temp\ccG7hixb.s 			page 6


 119:main.c        ****                     }
 120:main.c        ****                     else if( i<0 && type == '2') {
 121:main.c        ****                         buffer[i] = rx_receive;
 122:main.c        ****                         i++;    
 123:main.c        ****                     }
 124:main.c        ****                     else {
 125:main.c        ****                         go=0;
 126:main.c        ****                         sprintf((char *) local_write, "buffer read as %s\n", buffer);
 127:main.c        ****                         vSerialPutString(pxPort, (const signed char *) local_write, 64);
 128:main.c        ****                         if (type == '1'){
 129:main.c        ****                             update_inc( &left_wheel, &right_wheel, buffer);
 130:main.c        ****                             sprintf((char *) local_write, "left inc: %i\nright inc: %i\n", left_whe
 131:main.c        ****                             vSerialPutString(pxPort, (const signed char *) local_write, 64);
 132:main.c        ****                             
 133:main.c        ****                         }
 134:main.c        ****                         else if (type =='2') {
 135:main.c        ****                             
 136:main.c        ****                             CySoftwareReset();
 137:main.c        ****                         }
 138:main.c        ****                         
 139:main.c        ****                         for (i=0; i<65; i++) {
 140:main.c        ****                             buffer[i] = '\0';
 141:main.c        ****                         }
 142:main.c        ****                         go = 0;
 143:main.c        ****                         i = 0;                       
 144:main.c        ****                         type=0;
 145:main.c        ****                     }
 146:main.c        ****                 }
 147:main.c        ****                 xSemaphoreGive(gatekeeper);
 148:main.c        ****                 
 149:main.c        ****             }
 150:main.c        ****         }
 151:main.c        ****     }
 152:main.c        **** }*/
 153:main.c        **** void receive_data( void *p ) {
 148              		.loc 1 153 0
 149              		.cfi_startproc
 150              		@ args = 0, pretend = 0, frame = 288
 151              		@ frame_needed = 1, uses_anonymous_args = 0
 152 0000 80B5     		push	{r7, lr}
 153              		.cfi_def_cfa_offset 8
 154              		.cfi_offset 7, -8
 155              		.cfi_offset 14, -4
 156 0002 C8B0     		sub	sp, sp, #288
 157              		.cfi_def_cfa_offset 296
 158 0004 00AF     		add	r7, sp, #0
 159              		.cfi_def_cfa_register 7
 160 0006 3B1D     		adds	r3, r7, #4
 161 0008 1860     		str	r0, [r3]
 154:main.c        ****     
 155:main.c        ****     p = NULL;
 162              		.loc 1 155 0
 163 000a 3B1D     		adds	r3, r7, #4
 164 000c 0022     		movs	r2, #0
 165 000e 1A60     		str	r2, [r3]
 156:main.c        ****     
 157:main.c        ****     const signed char * local_write[64];
ARM GAS  C:\Users\shevi\AppData\Local\Temp\ccG7hixb.s 			page 7


 158:main.c        ****     int i = 0;
 166              		.loc 1 158 0
 167 0010 0023     		movs	r3, #0
 168 0012 C7F81C31 		str	r3, [r7, #284]
 159:main.c        ****     int go = 0;
 169              		.loc 1 159 0
 170 0016 0023     		movs	r3, #0
 171 0018 C7F81831 		str	r3, [r7, #280]
 160:main.c        ****     signed char type = 0;
 172              		.loc 1 160 0
 173 001c 0023     		movs	r3, #0
 174 001e 87F81731 		strb	r3, [r7, #279]
 175              	.L16:
 161:main.c        ****     char temp[10];
 162:main.c        ****     while(1) {
 163:main.c        ****         if (pdTRUE == xSerialGetChar(pxPort, &rx_receive, comRX_BLOCK_TIME)) {
 176              		.loc 1 163 0
 177 0022 524B     		ldr	r3, .L17
 178 0024 1B68     		ldr	r3, [r3]
 179 0026 1846     		mov	r0, r3
 180 0028 5149     		ldr	r1, .L17+4
 181 002a 4FF6FF72 		movw	r2, #65535
 182 002e FFF7FEFF 		bl	xSerialGetChar
 183 0032 0346     		mov	r3, r0
 184 0034 012B     		cmp	r3, #1
 185 0036 40F09780 		bne	.L6
 164:main.c        ****             type = rx_receive;
 186              		.loc 1 164 0
 187 003a 4D4B     		ldr	r3, .L17+4
 188 003c 1B78     		ldrb	r3, [r3]
 189 003e 87F81731 		strb	r3, [r7, #279]
 165:main.c        ****             if(xSemaphoreTake(gatekeeper, 50000)) {
 190              		.loc 1 165 0
 191 0042 4C4B     		ldr	r3, .L17+8
 192 0044 1B68     		ldr	r3, [r3]
 193 0046 1846     		mov	r0, r3
 194 0048 4CF25031 		movw	r1, #50000
 195 004c FFF7FEFF 		bl	xQueueSemaphoreTake
 196 0050 0346     		mov	r3, r0
 197 0052 002B     		cmp	r3, #0
 198 0054 00F08880 		beq	.L6
 166:main.c        ****                 if(type=='1'){
 199              		.loc 1 166 0
 200 0058 97F91731 		ldrsb	r3, [r7, #279]
 201 005c 312B     		cmp	r3, #49
 202 005e 33D1     		bne	.L7
 167:main.c        ****                     for(i=0;i<8;i++){
 203              		.loc 1 167 0
 204 0060 0023     		movs	r3, #0
 205 0062 C7F81C31 		str	r3, [r7, #284]
 206 0066 15E0     		b	.L8
 207              	.L9:
 168:main.c        ****                         xSerialGetChar(pxPort, &rx_receive, comRX_BLOCK_TIME);
 208              		.loc 1 168 0 discriminator 3
 209 0068 404B     		ldr	r3, .L17
 210 006a 1B68     		ldr	r3, [r3]
 211 006c 1846     		mov	r0, r3
ARM GAS  C:\Users\shevi\AppData\Local\Temp\ccG7hixb.s 			page 8


 212 006e 4049     		ldr	r1, .L17+4
 213 0070 4FF6FF72 		movw	r2, #65535
 214 0074 FFF7FEFF 		bl	xSerialGetChar
 169:main.c        ****                         buffer[i] = rx_receive;
 215              		.loc 1 169 0 discriminator 3
 216 0078 3D4B     		ldr	r3, .L17+4
 217 007a 1B78     		ldrb	r3, [r3]	@ zero_extendqisi2
 218 007c D9B2     		uxtb	r1, r3
 219 007e 3E4A     		ldr	r2, .L17+12
 220 0080 D7F81C31 		ldr	r3, [r7, #284]
 221 0084 1344     		add	r3, r3, r2
 222 0086 0A46     		mov	r2, r1
 223 0088 1A70     		strb	r2, [r3]
 167:main.c        ****                     for(i=0;i<8;i++){
 224              		.loc 1 167 0 discriminator 3
 225 008a D7F81C31 		ldr	r3, [r7, #284]
 226 008e 0133     		adds	r3, r3, #1
 227 0090 C7F81C31 		str	r3, [r7, #284]
 228              	.L8:
 167:main.c        ****                     for(i=0;i<8;i++){
 229              		.loc 1 167 0 is_stmt 0 discriminator 1
 230 0094 D7F81C31 		ldr	r3, [r7, #284]
 231 0098 072B     		cmp	r3, #7
 232 009a E5DD     		ble	.L9
 170:main.c        ****                     }
 171:main.c        ****                     sprintf((char *) local_write, "buffer read as %s\n", buffer);
 233              		.loc 1 171 0 is_stmt 1
 234 009c 07F11403 		add	r3, r7, #20
 235 00a0 1846     		mov	r0, r3
 236 00a2 3649     		ldr	r1, .L17+16
 237 00a4 344A     		ldr	r2, .L17+12
 238 00a6 FFF7FEFF 		bl	sprintf
 172:main.c        ****                     //vSerialPutString(pxPort, (const signed char *) local_write, 64);
 173:main.c        ****                     update_inc( &left_wheel, &right_wheel, buffer);
 239              		.loc 1 173 0
 240 00aa 3548     		ldr	r0, .L17+20
 241 00ac 3549     		ldr	r1, .L17+24
 242 00ae 324A     		ldr	r2, .L17+12
 243 00b0 FFF7FEFF 		bl	update_inc
 174:main.c        ****                     sprintf((char *) local_write, "left dest: %li\nright dest: %li\n", left_wheel.c
 244              		.loc 1 174 0
 245 00b4 324B     		ldr	r3, .L17+20
 246 00b6 5A68     		ldr	r2, [r3, #4]
 247 00b8 324B     		ldr	r3, .L17+24
 248 00ba 5B68     		ldr	r3, [r3, #4]
 249 00bc 07F11401 		add	r1, r7, #20
 250 00c0 0846     		mov	r0, r1
 251 00c2 3149     		ldr	r1, .L17+28
 252 00c4 FFF7FEFF 		bl	sprintf
 253              	.L7:
 175:main.c        ****                     //vSerialPutString(pxPort, (const signed char *) local_write, 64);
 176:main.c        ****                 }
 177:main.c        ****                 if(type=='2'){
 254              		.loc 1 177 0
 255 00c8 97F91731 		ldrsb	r3, [r7, #279]
 256 00cc 322B     		cmp	r3, #50
 257 00ce 01D1     		bne	.L10
ARM GAS  C:\Users\shevi\AppData\Local\Temp\ccG7hixb.s 			page 9


 178:main.c        ****                     CySoftwareReset();
 258              		.loc 1 178 0
 259 00d0 FFF7FEFF 		bl	CySoftwareReset
 260              	.L10:
 179:main.c        ****                 }  
 180:main.c        ****                 if (type=='3'){
 261              		.loc 1 180 0
 262 00d4 97F91731 		ldrsb	r3, [r7, #279]
 263 00d8 332B     		cmp	r3, #51
 264 00da 21D1     		bne	.L11
 181:main.c        ****                     for(i=0;i<8;i++){
 265              		.loc 1 181 0
 266 00dc 0023     		movs	r3, #0
 267 00de C7F81C31 		str	r3, [r7, #284]
 268 00e2 15E0     		b	.L12
 269              	.L13:
 182:main.c        ****                         xSerialGetChar(pxPort, &rx_receive, comRX_BLOCK_TIME);
 270              		.loc 1 182 0 discriminator 3
 271 00e4 214B     		ldr	r3, .L17
 272 00e6 1B68     		ldr	r3, [r3]
 273 00e8 1846     		mov	r0, r3
 274 00ea 2149     		ldr	r1, .L17+4
 275 00ec 4FF6FF72 		movw	r2, #65535
 276 00f0 FFF7FEFF 		bl	xSerialGetChar
 183:main.c        ****                         buffer[i] = rx_receive;
 277              		.loc 1 183 0 discriminator 3
 278 00f4 1E4B     		ldr	r3, .L17+4
 279 00f6 1B78     		ldrb	r3, [r3]	@ zero_extendqisi2
 280 00f8 D9B2     		uxtb	r1, r3
 281 00fa 1F4A     		ldr	r2, .L17+12
 282 00fc D7F81C31 		ldr	r3, [r7, #284]
 283 0100 1344     		add	r3, r3, r2
 284 0102 0A46     		mov	r2, r1
 285 0104 1A70     		strb	r2, [r3]
 181:main.c        ****                     for(i=0;i<8;i++){
 286              		.loc 1 181 0 discriminator 3
 287 0106 D7F81C31 		ldr	r3, [r7, #284]
 288 010a 0133     		adds	r3, r3, #1
 289 010c C7F81C31 		str	r3, [r7, #284]
 290              	.L12:
 181:main.c        ****                     for(i=0;i<8;i++){
 291              		.loc 1 181 0 is_stmt 0 discriminator 1
 292 0110 D7F81C31 		ldr	r3, [r7, #284]
 293 0114 072B     		cmp	r3, #7
 294 0116 E5DD     		ble	.L13
 184:main.c        ****                     }
 185:main.c        ****                    
 186:main.c        ****                     update_k( &k, buffer);
 295              		.loc 1 186 0 is_stmt 1
 296 0118 1C48     		ldr	r0, .L17+32
 297 011a 1749     		ldr	r1, .L17+12
 298 011c FFF7FEFF 		bl	update_k
 299              	.L11:
 187:main.c        ****             
 188:main.c        ****                     
 189:main.c        ****                 }
 190:main.c        ****                 for (i=0; i<65; i++) {
ARM GAS  C:\Users\shevi\AppData\Local\Temp\ccG7hixb.s 			page 10


 300              		.loc 1 190 0
 301 0120 0023     		movs	r3, #0
 302 0122 C7F81C31 		str	r3, [r7, #284]
 303 0126 0AE0     		b	.L14
 304              	.L15:
 191:main.c        ****                     buffer[i] = ' ';
 305              		.loc 1 191 0 discriminator 3
 306 0128 134A     		ldr	r2, .L17+12
 307 012a D7F81C31 		ldr	r3, [r7, #284]
 308 012e 1344     		add	r3, r3, r2
 309 0130 2022     		movs	r2, #32
 310 0132 1A70     		strb	r2, [r3]
 190:main.c        ****                     buffer[i] = ' ';
 311              		.loc 1 190 0 discriminator 3
 312 0134 D7F81C31 		ldr	r3, [r7, #284]
 313 0138 0133     		adds	r3, r3, #1
 314 013a C7F81C31 		str	r3, [r7, #284]
 315              	.L14:
 190:main.c        ****                     buffer[i] = ' ';
 316              		.loc 1 190 0 is_stmt 0 discriminator 1
 317 013e D7F81C31 		ldr	r3, [r7, #284]
 318 0142 402B     		cmp	r3, #64
 319 0144 F0DD     		ble	.L15
 192:main.c        ****                 }
 193:main.c        ****                 go = 0;
 320              		.loc 1 193 0 is_stmt 1
 321 0146 0023     		movs	r3, #0
 322 0148 C7F81831 		str	r3, [r7, #280]
 194:main.c        ****                 i = 0;
 323              		.loc 1 194 0
 324 014c 0023     		movs	r3, #0
 325 014e C7F81C31 		str	r3, [r7, #284]
 195:main.c        ****                 type=0;                   
 326              		.loc 1 195 0
 327 0152 0023     		movs	r3, #0
 328 0154 87F81731 		strb	r3, [r7, #279]
 196:main.c        ****                 xSemaphoreGive(gatekeeper);
 329              		.loc 1 196 0
 330 0158 064B     		ldr	r3, .L17+8
 331 015a 1B68     		ldr	r3, [r3]
 332 015c 1846     		mov	r0, r3
 333 015e 0021     		movs	r1, #0
 334 0160 0022     		movs	r2, #0
 335 0162 0023     		movs	r3, #0
 336 0164 FFF7FEFF 		bl	xQueueGenericSend
 337              	.L6:
 197:main.c        ****             }
 198:main.c        ****         }
 199:main.c        ****     }
 338              		.loc 1 199 0
 339 0168 5BE7     		b	.L16
 340              	.L18:
 341 016a 00BF     		.align	2
 342              	.L17:
 343 016c 00000000 		.word	pxPort
 344 0170 00000000 		.word	rx_receive
 345 0174 00000000 		.word	gatekeeper
ARM GAS  C:\Users\shevi\AppData\Local\Temp\ccG7hixb.s 			page 11


 346 0178 00000000 		.word	buffer
 347 017c 4C000000 		.word	.LC3
 348 0180 00000000 		.word	left_wheel
 349 0184 00000000 		.word	right_wheel
 350 0188 60000000 		.word	.LC4
 351 018c 00000000 		.word	k
 352              		.cfi_endproc
 353              	.LFE69:
 354              		.size	receive_data, .-receive_data
 355              		.section	.rodata
 356              		.align	2
 357              	.LC5:
 358 0080 25647C25 		.ascii	"%d|%d|%ld|%ld|%i|%d|%d|%d\012\000"
 358      647C256C 
 358      647C256C 
 358      647C2569 
 358      7C25647C 
 359 009b 00       		.section	.text.PID_initialise,"ax",%progbits
 360              		.align	2
 361              		.global	PID_initialise
 362              		.thumb
 363              		.thumb_func
 364              		.type	PID_initialise, %function
 365              	PID_initialise:
 366              	.LFB70:
 200:main.c        **** }
 201:main.c        **** void PID_initialise( void *p ) {
 367              		.loc 1 201 0
 368              		.cfi_startproc
 369              		@ args = 0, pretend = 0, frame = 264
 370              		@ frame_needed = 1, uses_anonymous_args = 0
 371 0000 F0B5     		push	{r4, r5, r6, r7, lr}
 372              		.cfi_def_cfa_offset 20
 373              		.cfi_offset 4, -20
 374              		.cfi_offset 5, -16
 375              		.cfi_offset 6, -12
 376              		.cfi_offset 7, -8
 377              		.cfi_offset 14, -4
 378 0002 C9B0     		sub	sp, sp, #292
 379              		.cfi_def_cfa_offset 312
 380 0004 06AF     		add	r7, sp, #24
 381              		.cfi_def_cfa 7, 288
 382 0006 3B1D     		adds	r3, r7, #4
 383 0008 1860     		str	r0, [r3]
 202:main.c        ****     
 203:main.c        ****     p = NULL;
 384              		.loc 1 203 0
 385 000a 3B1D     		adds	r3, r7, #4
 386 000c 0022     		movs	r2, #0
 387 000e 1A60     		str	r2, [r3]
 204:main.c        ****         
 205:main.c        ****     initialise_wheel_data(&left_wheel);
 388              		.loc 1 205 0
 389 0010 3748     		ldr	r0, .L22
 390 0012 FFF7FEFF 		bl	initialise_wheel_data
 206:main.c        ****     initialise_wheel_data(&right_wheel);
 391              		.loc 1 206 0
ARM GAS  C:\Users\shevi\AppData\Local\Temp\ccG7hixb.s 			page 12


 392 0016 3748     		ldr	r0, .L22+4
 393 0018 FFF7FEFF 		bl	initialise_wheel_data
 207:main.c        ****     
 208:main.c        ****     k.Kp = 0;
 394              		.loc 1 208 0
 395 001c 3649     		ldr	r1, .L22+8
 396 001e 4FF00002 		mov	r2, #0
 397 0022 4FF00003 		mov	r3, #0
 398 0026 C1E90223 		strd	r2, [r1, #8]
 209:main.c        ****     k.Ki = 0;
 399              		.loc 1 209 0
 400 002a 3349     		ldr	r1, .L22+8
 401 002c 4FF00002 		mov	r2, #0
 402 0030 4FF00003 		mov	r3, #0
 403 0034 C1E90023 		strd	r2, [r1]
 210:main.c        ****     k.Kd = 0;
 404              		.loc 1 210 0
 405 0038 2F49     		ldr	r1, .L22+8
 406 003a 4FF00002 		mov	r2, #0
 407 003e 4FF00003 		mov	r3, #0
 408 0042 C1E90423 		strd	r2, [r1, #16]
 409              	.L21:
 211:main.c        ****     
 212:main.c        ****     signed char *local_write[64];  
 213:main.c        ****     
 214:main.c        ****     while(1) {
 215:main.c        ****     	if(xSemaphoreTake(gatekeeper, 50000)) {              // wait until semaphore is free:
 410              		.loc 1 215 0
 411 0046 2D4B     		ldr	r3, .L22+12
 412 0048 1B68     		ldr	r3, [r3]
 413 004a 1846     		mov	r0, r3
 414 004c 4CF25031 		movw	r1, #50000
 415 0050 FFF7FEFF 		bl	xQueueSemaphoreTake
 416 0054 0346     		mov	r3, r0
 417 0056 002B     		cmp	r3, #0
 418 0058 45D0     		beq	.L20
 216:main.c        ****             mov_update_error(&left_wheel, &right_wheel);    // update error values
 419              		.loc 1 216 0
 420 005a 2548     		ldr	r0, .L22
 421 005c 2549     		ldr	r1, .L22+4
 422 005e FFF7FEFF 		bl	mov_update_error
 217:main.c        ****                 //sprintf((char *) local_write, "left wheel inc: %li\n", left_wheel.cur_dest);
 218:main.c        ****                 //vSerialPutString(pxPort, (signed char *) local_write, 64);
 219:main.c        ****             sprintf((char *) local_write, "%d|%d|%ld|%ld|%i|%d|%d|%d\n", left_wheel.error, left_whe
 423              		.loc 1 219 0
 424 0062 234B     		ldr	r3, .L22
 425 0064 DE68     		ldr	r6, [r3, #12]
 426 0066 224B     		ldr	r3, .L22
 427 0068 5D69     		ldr	r5, [r3, #20]
 428 006a FFF7FEFF 		bl	M1QuadDec_GetCounter
 429 006e 0246     		mov	r2, r0
 430 0070 1346     		mov	r3, r2
 431 0072 9B06     		lsls	r3, r3, #26
 432 0074 9B1A     		subs	r3, r3, r2
 433 0076 9B01     		lsls	r3, r3, #6
 434 0078 9C46     		mov	ip, r3
 435 007a 1D4B     		ldr	r3, .L22
ARM GAS  C:\Users\shevi\AppData\Local\Temp\ccG7hixb.s 			page 13


 436 007c 5C68     		ldr	r4, [r3, #4]
 437 007e 1C4B     		ldr	r3, .L22
 438 0080 D869     		ldr	r0, [r3, #28]
 439 0082 1B4B     		ldr	r3, .L22
 440 0084 D968     		ldr	r1, [r3, #12]
 441 0086 1A4B     		ldr	r3, .L22
 442 0088 DA68     		ldr	r2, [r3, #12]
 443 008a 194B     		ldr	r3, .L22
 444 008c 9B68     		ldr	r3, [r3, #8]
 445 008e D21A     		subs	r2, r2, r3
 446 0090 174B     		ldr	r3, .L22
 447 0092 1B69     		ldr	r3, [r3, #16]
 448 0094 07F1080E 		add	lr, r7, #8
 449 0098 CDF800C0 		str	ip, [sp]
 450 009c 0194     		str	r4, [sp, #4]
 451 009e 0290     		str	r0, [sp, #8]
 452 00a0 0391     		str	r1, [sp, #12]
 453 00a2 0492     		str	r2, [sp, #16]
 454 00a4 0593     		str	r3, [sp, #20]
 455 00a6 7046     		mov	r0, lr
 456 00a8 1549     		ldr	r1, .L22+16
 457 00aa 3246     		mov	r2, r6
 458 00ac 2B46     		mov	r3, r5
 459 00ae FFF7FEFF 		bl	sprintf
 220:main.c        ****             vSerialPutString(pxPort, (signed char *) local_write, 64);
 460              		.loc 1 220 0
 461 00b2 144B     		ldr	r3, .L22+20
 462 00b4 1A68     		ldr	r2, [r3]
 463 00b6 07F10803 		add	r3, r7, #8
 464 00ba 1046     		mov	r0, r2
 465 00bc 1946     		mov	r1, r3
 466 00be 4022     		movs	r2, #64
 467 00c0 FFF7FEFF 		bl	vSerialPutString
 221:main.c        ****             mov_get_PID(&left_wheel, &right_wheel, &k);     // calculate wheel voltage from errors 
 468              		.loc 1 221 0
 469 00c4 0A48     		ldr	r0, .L22
 470 00c6 0B49     		ldr	r1, .L22+4
 471 00c8 0B4A     		ldr	r2, .L22+8
 472 00ca FFF7FEFF 		bl	mov_get_PID
 222:main.c        ****             
 223:main.c        ****             mov_Adj_Volt(&left_wheel, &right_wheel);        // adjust the voltage of the wheels
 473              		.loc 1 223 0
 474 00ce 0848     		ldr	r0, .L22
 475 00d0 0849     		ldr	r1, .L22+4
 476 00d2 FFF7FEFF 		bl	mov_Adj_Volt
 224:main.c        ****             
 225:main.c        **** 			xSemaphoreGive(gatekeeper);                     // give the semaphore back
 477              		.loc 1 225 0
 478 00d6 094B     		ldr	r3, .L22+12
 479 00d8 1B68     		ldr	r3, [r3]
 480 00da 1846     		mov	r0, r3
 481 00dc 0021     		movs	r1, #0
 482 00de 0022     		movs	r2, #0
 483 00e0 0023     		movs	r3, #0
 484 00e2 FFF7FEFF 		bl	xQueueGenericSend
 485              	.L20:
 226:main.c        ****     	}
ARM GAS  C:\Users\shevi\AppData\Local\Temp\ccG7hixb.s 			page 14


 227:main.c        ****         vTaskDelay(10);                                     // wait 10ms before going again
 486              		.loc 1 227 0
 487 00e6 0A20     		movs	r0, #10
 488 00e8 FFF7FEFF 		bl	vTaskDelay
 228:main.c        ****     }
 489              		.loc 1 228 0
 490 00ec ABE7     		b	.L21
 491              	.L23:
 492 00ee 00BF     		.align	2
 493              	.L22:
 494 00f0 00000000 		.word	left_wheel
 495 00f4 00000000 		.word	right_wheel
 496 00f8 00000000 		.word	k
 497 00fc 00000000 		.word	gatekeeper
 498 0100 80000000 		.word	.LC5
 499 0104 00000000 		.word	pxPort
 500              		.cfi_endproc
 501              	.LFE70:
 502              		.size	PID_initialise, .-PID_initialise
 503              		.section	.text.prvHardwareSetup,"ax",%progbits
 504              		.align	2
 505              		.thumb
 506              		.thumb_func
 507              		.type	prvHardwareSetup, %function
 508              	prvHardwareSetup:
 509              	.LFB71:
 229:main.c        **** }
 230:main.c        **** void prvHardwareSetup( void ) {
 510              		.loc 1 230 0
 511              		.cfi_startproc
 512              		@ args = 0, pretend = 0, frame = 0
 513              		@ frame_needed = 1, uses_anonymous_args = 0
 514 0000 80B5     		push	{r7, lr}
 515              		.cfi_def_cfa_offset 8
 516              		.cfi_offset 7, -8
 517              		.cfi_offset 14, -4
 518 0002 00AF     		add	r7, sp, #0
 519              		.cfi_def_cfa_register 7
 231:main.c        **** /* Port layer functions that need to be copied into the vector table. */
 232:main.c        **** extern void xPortPendSVHandler( void );
 233:main.c        **** extern void xPortSysTickHandler( void );
 234:main.c        **** extern void vPortSVCHandler( void );
 235:main.c        **** extern cyisraddress CyRamVectors[];
 236:main.c        **** 
 237:main.c        **** 	/* Install the OS Interrupt Handlers. */
 238:main.c        **** 	CyRamVectors[ 11 ] = ( cyisraddress ) vPortSVCHandler;
 520              		.loc 1 238 0
 521 0004 144B     		ldr	r3, .L25
 522 0006 154A     		ldr	r2, .L25+4
 523 0008 DA62     		str	r2, [r3, #44]
 239:main.c        **** 	CyRamVectors[ 14 ] = ( cyisraddress ) xPortPendSVHandler;
 524              		.loc 1 239 0
 525 000a 134B     		ldr	r3, .L25
 526 000c 144A     		ldr	r2, .L25+8
 527 000e 9A63     		str	r2, [r3, #56]
 240:main.c        **** 	CyRamVectors[ 15 ] = ( cyisraddress ) xPortSysTickHandler;
 528              		.loc 1 240 0
ARM GAS  C:\Users\shevi\AppData\Local\Temp\ccG7hixb.s 			page 15


 529 0010 114B     		ldr	r3, .L25
 530 0012 144A     		ldr	r2, .L25+12
 531 0014 DA63     		str	r2, [r3, #60]
 241:main.c        **** 
 242:main.c        **** 	/* Start-up the peripherals. */
 243:main.c        ****     
 244:main.c        **** 
 245:main.c        **** 	/* Start the UART. */
 246:main.c        **** 	UART_1_Start();                         // Start the UART
 532              		.loc 1 246 0
 533 0016 FFF7FEFF 		bl	UART_1_Start
 247:main.c        ****     xSerialPortInitMinimal( 57600, 64 );    // Set the serial baud rate and buffer size in bytes
 534              		.loc 1 247 0
 535 001a 4FF46140 		mov	r0, #57600
 536 001e 4021     		movs	r1, #64
 537 0020 FFF7FEFF 		bl	xSerialPortInitMinimal
 248:main.c        ****     
 249:main.c        ****     PWM_M1_Start();
 538              		.loc 1 249 0
 539 0024 FFF7FEFF 		bl	PWM_M1_Start
 250:main.c        ****     PWM_M2_Start();
 540              		.loc 1 250 0
 541 0028 FFF7FEFF 		bl	PWM_M2_Start
 251:main.c        ****     M1Clock_Start();
 542              		.loc 1 251 0
 543 002c FFF7FEFF 		bl	M1Clock_Start
 252:main.c        ****     MClock_Start();
 544              		.loc 1 252 0
 545 0030 FFF7FEFF 		bl	MClock_Start
 253:main.c        ****     
 254:main.c        ****     M1QuadDec_Start();
 546              		.loc 1 254 0
 547 0034 FFF7FEFF 		bl	M1QuadDec_Start
 255:main.c        ****     M1QuadDec_Enable();
 548              		.loc 1 255 0
 549 0038 FFF7FEFF 		bl	M1QuadDec_Enable
 256:main.c        ****     M1QuadDec_SetCounter(0);
 550              		.loc 1 256 0
 551 003c 0020     		movs	r0, #0
 552 003e FFF7FEFF 		bl	M1QuadDec_SetCounter
 257:main.c        ****     
 258:main.c        ****     M2QuadDec_Start();
 553              		.loc 1 258 0
 554 0042 FFF7FEFF 		bl	M2QuadDec_Start
 259:main.c        ****     M2QuadDec_Enable();
 555              		.loc 1 259 0
 556 0046 FFF7FEFF 		bl	M2QuadDec_Enable
 260:main.c        ****     M2QuadDec_SetCounter(0);
 557              		.loc 1 260 0
 558 004a 0020     		movs	r0, #0
 559 004c FFF7FEFF 		bl	M2QuadDec_SetCounter
 261:main.c        ****     
 262:main.c        ****     Timer_1_Start();
 560              		.loc 1 262 0
 561 0050 FFF7FEFF 		bl	Timer_1_Start
 263:main.c        **** 
 264:main.c        **** }
ARM GAS  C:\Users\shevi\AppData\Local\Temp\ccG7hixb.s 			page 16


 562              		.loc 1 264 0
 563 0054 80BD     		pop	{r7, pc}
 564              	.L26:
 565 0056 00BF     		.align	2
 566              	.L25:
 567 0058 00000000 		.word	CyRamVectors
 568 005c 00000000 		.word	vPortSVCHandler
 569 0060 00000000 		.word	xPortPendSVHandler
 570 0064 00000000 		.word	xPortSysTickHandler
 571              		.cfi_endproc
 572              	.LFE71:
 573              		.size	prvHardwareSetup, .-prvHardwareSetup
 574              		.section	.text.vApplicationStackOverflowHook,"ax",%progbits
 575              		.align	2
 576              		.global	vApplicationStackOverflowHook
 577              		.thumb
 578              		.thumb_func
 579              		.type	vApplicationStackOverflowHook, %function
 580              	vApplicationStackOverflowHook:
 581              	.LFB72:
 265:main.c        **** 
 266:main.c        **** 
 267:main.c        **** // DON'T TOUCH THESE (PART OF FREERTOS)
 268:main.c        **** void vApplicationStackOverflowHook( TaskHandle_t pxTask, char *pcTaskName ) {
 582              		.loc 1 268 0
 583              		.cfi_startproc
 584              		@ args = 0, pretend = 0, frame = 16
 585              		@ frame_needed = 1, uses_anonymous_args = 0
 586              		@ link register save eliminated.
 587 0000 80B4     		push	{r7}
 588              		.cfi_def_cfa_offset 4
 589              		.cfi_offset 7, -4
 590 0002 85B0     		sub	sp, sp, #20
 591              		.cfi_def_cfa_offset 24
 592 0004 00AF     		add	r7, sp, #0
 593              		.cfi_def_cfa_register 7
 594 0006 7860     		str	r0, [r7, #4]
 595 0008 3960     		str	r1, [r7]
 596              	.LBB6:
 597              	.LBB7:
 598              		.file 2 "..\\..\\FreeRTOS_Source\\portable\\GCC\\ARM_CM3/portmacro.h"
   1:..\..\FreeRTOS_Source\portable\GCC\ARM_CM3/portmacro.h **** /*
   2:..\..\FreeRTOS_Source\portable\GCC\ARM_CM3/portmacro.h ****  * FreeRTOS Kernel V10.0.1
   3:..\..\FreeRTOS_Source\portable\GCC\ARM_CM3/portmacro.h ****  * Copyright (C) 2017 Amazon.com, Inc. or its affiliates.  All Rights Reserved.
   4:..\..\FreeRTOS_Source\portable\GCC\ARM_CM3/portmacro.h ****  *
   5:..\..\FreeRTOS_Source\portable\GCC\ARM_CM3/portmacro.h ****  * Permission is hereby granted, free of charge, to any person obtaining a copy of
   6:..\..\FreeRTOS_Source\portable\GCC\ARM_CM3/portmacro.h ****  * this software and associated documentation files (the "Software"), to deal in
   7:..\..\FreeRTOS_Source\portable\GCC\ARM_CM3/portmacro.h ****  * the Software without restriction, including without limitation the rights to
   8:..\..\FreeRTOS_Source\portable\GCC\ARM_CM3/portmacro.h ****  * use, copy, modify, merge, publish, distribute, sublicense, and/or sell copies of
   9:..\..\FreeRTOS_Source\portable\GCC\ARM_CM3/portmacro.h ****  * the Software, and to permit persons to whom the Software is furnished to do so,
  10:..\..\FreeRTOS_Source\portable\GCC\ARM_CM3/portmacro.h ****  * subject to the following conditions:
  11:..\..\FreeRTOS_Source\portable\GCC\ARM_CM3/portmacro.h ****  *
  12:..\..\FreeRTOS_Source\portable\GCC\ARM_CM3/portmacro.h ****  * The above copyright notice and this permission notice shall be included in all
  13:..\..\FreeRTOS_Source\portable\GCC\ARM_CM3/portmacro.h ****  * copies or substantial portions of the Software.
  14:..\..\FreeRTOS_Source\portable\GCC\ARM_CM3/portmacro.h ****  *
  15:..\..\FreeRTOS_Source\portable\GCC\ARM_CM3/portmacro.h ****  * THE SOFTWARE IS PROVIDED "AS IS", WITHOUT WARRANTY OF ANY KIND, EXPRESS OR
  16:..\..\FreeRTOS_Source\portable\GCC\ARM_CM3/portmacro.h ****  * IMPLIED, INCLUDING BUT NOT LIMITED TO THE WARRANTIES OF MERCHANTABILITY, FITNESS
ARM GAS  C:\Users\shevi\AppData\Local\Temp\ccG7hixb.s 			page 17


  17:..\..\FreeRTOS_Source\portable\GCC\ARM_CM3/portmacro.h ****  * FOR A PARTICULAR PURPOSE AND NONINFRINGEMENT. IN NO EVENT SHALL THE AUTHORS OR
  18:..\..\FreeRTOS_Source\portable\GCC\ARM_CM3/portmacro.h ****  * COPYRIGHT HOLDERS BE LIABLE FOR ANY CLAIM, DAMAGES OR OTHER LIABILITY, WHETHER
  19:..\..\FreeRTOS_Source\portable\GCC\ARM_CM3/portmacro.h ****  * IN AN ACTION OF CONTRACT, TORT OR OTHERWISE, ARISING FROM, OUT OF OR IN
  20:..\..\FreeRTOS_Source\portable\GCC\ARM_CM3/portmacro.h ****  * CONNECTION WITH THE SOFTWARE OR THE USE OR OTHER DEALINGS IN THE SOFTWARE.
  21:..\..\FreeRTOS_Source\portable\GCC\ARM_CM3/portmacro.h ****  *
  22:..\..\FreeRTOS_Source\portable\GCC\ARM_CM3/portmacro.h ****  * http://www.FreeRTOS.org
  23:..\..\FreeRTOS_Source\portable\GCC\ARM_CM3/portmacro.h ****  * http://aws.amazon.com/freertos
  24:..\..\FreeRTOS_Source\portable\GCC\ARM_CM3/portmacro.h ****  *
  25:..\..\FreeRTOS_Source\portable\GCC\ARM_CM3/portmacro.h ****  * 1 tab == 4 spaces!
  26:..\..\FreeRTOS_Source\portable\GCC\ARM_CM3/portmacro.h ****  */
  27:..\..\FreeRTOS_Source\portable\GCC\ARM_CM3/portmacro.h **** 
  28:..\..\FreeRTOS_Source\portable\GCC\ARM_CM3/portmacro.h **** 
  29:..\..\FreeRTOS_Source\portable\GCC\ARM_CM3/portmacro.h **** #ifndef PORTMACRO_H
  30:..\..\FreeRTOS_Source\portable\GCC\ARM_CM3/portmacro.h **** #define PORTMACRO_H
  31:..\..\FreeRTOS_Source\portable\GCC\ARM_CM3/portmacro.h **** 
  32:..\..\FreeRTOS_Source\portable\GCC\ARM_CM3/portmacro.h **** #ifdef __cplusplus
  33:..\..\FreeRTOS_Source\portable\GCC\ARM_CM3/portmacro.h **** extern "C" {
  34:..\..\FreeRTOS_Source\portable\GCC\ARM_CM3/portmacro.h **** #endif
  35:..\..\FreeRTOS_Source\portable\GCC\ARM_CM3/portmacro.h **** 
  36:..\..\FreeRTOS_Source\portable\GCC\ARM_CM3/portmacro.h **** /*-----------------------------------------------------------
  37:..\..\FreeRTOS_Source\portable\GCC\ARM_CM3/portmacro.h ****  * Port specific definitions.
  38:..\..\FreeRTOS_Source\portable\GCC\ARM_CM3/portmacro.h ****  *
  39:..\..\FreeRTOS_Source\portable\GCC\ARM_CM3/portmacro.h ****  * The settings in this file configure FreeRTOS correctly for the
  40:..\..\FreeRTOS_Source\portable\GCC\ARM_CM3/portmacro.h ****  * given hardware and compiler.
  41:..\..\FreeRTOS_Source\portable\GCC\ARM_CM3/portmacro.h ****  *
  42:..\..\FreeRTOS_Source\portable\GCC\ARM_CM3/portmacro.h ****  * These settings should not be altered.
  43:..\..\FreeRTOS_Source\portable\GCC\ARM_CM3/portmacro.h ****  *-----------------------------------------------------------
  44:..\..\FreeRTOS_Source\portable\GCC\ARM_CM3/portmacro.h ****  */
  45:..\..\FreeRTOS_Source\portable\GCC\ARM_CM3/portmacro.h **** 
  46:..\..\FreeRTOS_Source\portable\GCC\ARM_CM3/portmacro.h **** /* Type definitions. */
  47:..\..\FreeRTOS_Source\portable\GCC\ARM_CM3/portmacro.h **** #define portCHAR		char
  48:..\..\FreeRTOS_Source\portable\GCC\ARM_CM3/portmacro.h **** #define portFLOAT		float
  49:..\..\FreeRTOS_Source\portable\GCC\ARM_CM3/portmacro.h **** #define portDOUBLE		double
  50:..\..\FreeRTOS_Source\portable\GCC\ARM_CM3/portmacro.h **** #define portLONG		long
  51:..\..\FreeRTOS_Source\portable\GCC\ARM_CM3/portmacro.h **** #define portSHORT		short
  52:..\..\FreeRTOS_Source\portable\GCC\ARM_CM3/portmacro.h **** #define portSTACK_TYPE	uint32_t
  53:..\..\FreeRTOS_Source\portable\GCC\ARM_CM3/portmacro.h **** #define portBASE_TYPE	long
  54:..\..\FreeRTOS_Source\portable\GCC\ARM_CM3/portmacro.h **** 
  55:..\..\FreeRTOS_Source\portable\GCC\ARM_CM3/portmacro.h **** typedef portSTACK_TYPE StackType_t;
  56:..\..\FreeRTOS_Source\portable\GCC\ARM_CM3/portmacro.h **** typedef long BaseType_t;
  57:..\..\FreeRTOS_Source\portable\GCC\ARM_CM3/portmacro.h **** typedef unsigned long UBaseType_t;
  58:..\..\FreeRTOS_Source\portable\GCC\ARM_CM3/portmacro.h **** 
  59:..\..\FreeRTOS_Source\portable\GCC\ARM_CM3/portmacro.h **** #if( configUSE_16_BIT_TICKS == 1 )
  60:..\..\FreeRTOS_Source\portable\GCC\ARM_CM3/portmacro.h **** 	typedef uint16_t TickType_t;
  61:..\..\FreeRTOS_Source\portable\GCC\ARM_CM3/portmacro.h **** 	#define portMAX_DELAY ( TickType_t ) 0xffff
  62:..\..\FreeRTOS_Source\portable\GCC\ARM_CM3/portmacro.h **** #else
  63:..\..\FreeRTOS_Source\portable\GCC\ARM_CM3/portmacro.h **** 	typedef uint32_t TickType_t;
  64:..\..\FreeRTOS_Source\portable\GCC\ARM_CM3/portmacro.h **** 	#define portMAX_DELAY ( TickType_t ) 0xffffffffUL
  65:..\..\FreeRTOS_Source\portable\GCC\ARM_CM3/portmacro.h **** 
  66:..\..\FreeRTOS_Source\portable\GCC\ARM_CM3/portmacro.h **** 	/* 32-bit tick type on a 32-bit architecture, so reads of the tick count do
  67:..\..\FreeRTOS_Source\portable\GCC\ARM_CM3/portmacro.h **** 	not need to be guarded with a critical section. */
  68:..\..\FreeRTOS_Source\portable\GCC\ARM_CM3/portmacro.h **** 	#define portTICK_TYPE_IS_ATOMIC 1
  69:..\..\FreeRTOS_Source\portable\GCC\ARM_CM3/portmacro.h **** #endif
  70:..\..\FreeRTOS_Source\portable\GCC\ARM_CM3/portmacro.h **** /*-----------------------------------------------------------*/
  71:..\..\FreeRTOS_Source\portable\GCC\ARM_CM3/portmacro.h **** 
  72:..\..\FreeRTOS_Source\portable\GCC\ARM_CM3/portmacro.h **** /* Architecture specifics. */
  73:..\..\FreeRTOS_Source\portable\GCC\ARM_CM3/portmacro.h **** #define portSTACK_GROWTH			( -1 )
ARM GAS  C:\Users\shevi\AppData\Local\Temp\ccG7hixb.s 			page 18


  74:..\..\FreeRTOS_Source\portable\GCC\ARM_CM3/portmacro.h **** #define portTICK_PERIOD_MS			( ( TickType_t ) 1000 / configTICK_RATE_HZ )
  75:..\..\FreeRTOS_Source\portable\GCC\ARM_CM3/portmacro.h **** #define portBYTE_ALIGNMENT			8
  76:..\..\FreeRTOS_Source\portable\GCC\ARM_CM3/portmacro.h **** /*-----------------------------------------------------------*/
  77:..\..\FreeRTOS_Source\portable\GCC\ARM_CM3/portmacro.h **** 
  78:..\..\FreeRTOS_Source\portable\GCC\ARM_CM3/portmacro.h **** /* Scheduler utilities. */
  79:..\..\FreeRTOS_Source\portable\GCC\ARM_CM3/portmacro.h **** #define portYIELD() 															\
  80:..\..\FreeRTOS_Source\portable\GCC\ARM_CM3/portmacro.h **** {																				\
  81:..\..\FreeRTOS_Source\portable\GCC\ARM_CM3/portmacro.h **** 	/* Set a PendSV to request a context switch. */								\
  82:..\..\FreeRTOS_Source\portable\GCC\ARM_CM3/portmacro.h **** 	portNVIC_INT_CTRL_REG = portNVIC_PENDSVSET_BIT;								\
  83:..\..\FreeRTOS_Source\portable\GCC\ARM_CM3/portmacro.h **** 																				\
  84:..\..\FreeRTOS_Source\portable\GCC\ARM_CM3/portmacro.h **** 	/* Barriers are normally not required but do ensure the code is completely	\
  85:..\..\FreeRTOS_Source\portable\GCC\ARM_CM3/portmacro.h **** 	within the specified behaviour for the architecture. */						\
  86:..\..\FreeRTOS_Source\portable\GCC\ARM_CM3/portmacro.h **** 	__asm volatile( "dsb" ::: "memory" );										\
  87:..\..\FreeRTOS_Source\portable\GCC\ARM_CM3/portmacro.h **** 	__asm volatile( "isb" );													\
  88:..\..\FreeRTOS_Source\portable\GCC\ARM_CM3/portmacro.h **** }
  89:..\..\FreeRTOS_Source\portable\GCC\ARM_CM3/portmacro.h **** 
  90:..\..\FreeRTOS_Source\portable\GCC\ARM_CM3/portmacro.h **** #define portNVIC_INT_CTRL_REG		( * ( ( volatile uint32_t * ) 0xe000ed04 ) )
  91:..\..\FreeRTOS_Source\portable\GCC\ARM_CM3/portmacro.h **** #define portNVIC_PENDSVSET_BIT		( 1UL << 28UL )
  92:..\..\FreeRTOS_Source\portable\GCC\ARM_CM3/portmacro.h **** #define portEND_SWITCHING_ISR( xSwitchRequired ) if( xSwitchRequired != pdFALSE ) portYIELD()
  93:..\..\FreeRTOS_Source\portable\GCC\ARM_CM3/portmacro.h **** #define portYIELD_FROM_ISR( x ) portEND_SWITCHING_ISR( x )
  94:..\..\FreeRTOS_Source\portable\GCC\ARM_CM3/portmacro.h **** /*-----------------------------------------------------------*/
  95:..\..\FreeRTOS_Source\portable\GCC\ARM_CM3/portmacro.h **** 
  96:..\..\FreeRTOS_Source\portable\GCC\ARM_CM3/portmacro.h **** /* Critical section management. */
  97:..\..\FreeRTOS_Source\portable\GCC\ARM_CM3/portmacro.h **** extern void vPortEnterCritical( void );
  98:..\..\FreeRTOS_Source\portable\GCC\ARM_CM3/portmacro.h **** extern void vPortExitCritical( void );
  99:..\..\FreeRTOS_Source\portable\GCC\ARM_CM3/portmacro.h **** #define portSET_INTERRUPT_MASK_FROM_ISR()		ulPortRaiseBASEPRI()
 100:..\..\FreeRTOS_Source\portable\GCC\ARM_CM3/portmacro.h **** #define portCLEAR_INTERRUPT_MASK_FROM_ISR(x)	vPortSetBASEPRI(x)
 101:..\..\FreeRTOS_Source\portable\GCC\ARM_CM3/portmacro.h **** #define portDISABLE_INTERRUPTS()				vPortRaiseBASEPRI()
 102:..\..\FreeRTOS_Source\portable\GCC\ARM_CM3/portmacro.h **** #define portENABLE_INTERRUPTS()					vPortSetBASEPRI(0)
 103:..\..\FreeRTOS_Source\portable\GCC\ARM_CM3/portmacro.h **** #define portENTER_CRITICAL()					vPortEnterCritical()
 104:..\..\FreeRTOS_Source\portable\GCC\ARM_CM3/portmacro.h **** #define portEXIT_CRITICAL()						vPortExitCritical()
 105:..\..\FreeRTOS_Source\portable\GCC\ARM_CM3/portmacro.h **** 
 106:..\..\FreeRTOS_Source\portable\GCC\ARM_CM3/portmacro.h **** /*-----------------------------------------------------------*/
 107:..\..\FreeRTOS_Source\portable\GCC\ARM_CM3/portmacro.h **** 
 108:..\..\FreeRTOS_Source\portable\GCC\ARM_CM3/portmacro.h **** /* Task function macros as described on the FreeRTOS.org WEB site.  These are
 109:..\..\FreeRTOS_Source\portable\GCC\ARM_CM3/portmacro.h **** not necessary for to use this port.  They are defined so the common demo files
 110:..\..\FreeRTOS_Source\portable\GCC\ARM_CM3/portmacro.h **** (which build with all the ports) will build. */
 111:..\..\FreeRTOS_Source\portable\GCC\ARM_CM3/portmacro.h **** #define portTASK_FUNCTION_PROTO( vFunction, pvParameters ) void vFunction( void *pvParameters )
 112:..\..\FreeRTOS_Source\portable\GCC\ARM_CM3/portmacro.h **** #define portTASK_FUNCTION( vFunction, pvParameters ) void vFunction( void *pvParameters )
 113:..\..\FreeRTOS_Source\portable\GCC\ARM_CM3/portmacro.h **** /*-----------------------------------------------------------*/
 114:..\..\FreeRTOS_Source\portable\GCC\ARM_CM3/portmacro.h **** 
 115:..\..\FreeRTOS_Source\portable\GCC\ARM_CM3/portmacro.h **** /* Tickless idle/low power functionality. */
 116:..\..\FreeRTOS_Source\portable\GCC\ARM_CM3/portmacro.h **** #ifndef portSUPPRESS_TICKS_AND_SLEEP
 117:..\..\FreeRTOS_Source\portable\GCC\ARM_CM3/portmacro.h **** 	extern void vPortSuppressTicksAndSleep( TickType_t xExpectedIdleTime );
 118:..\..\FreeRTOS_Source\portable\GCC\ARM_CM3/portmacro.h **** 	#define portSUPPRESS_TICKS_AND_SLEEP( xExpectedIdleTime ) vPortSuppressTicksAndSleep( xExpectedIdl
 119:..\..\FreeRTOS_Source\portable\GCC\ARM_CM3/portmacro.h **** #endif
 120:..\..\FreeRTOS_Source\portable\GCC\ARM_CM3/portmacro.h **** /*-----------------------------------------------------------*/
 121:..\..\FreeRTOS_Source\portable\GCC\ARM_CM3/portmacro.h **** 
 122:..\..\FreeRTOS_Source\portable\GCC\ARM_CM3/portmacro.h **** /* Architecture specific optimisations. */
 123:..\..\FreeRTOS_Source\portable\GCC\ARM_CM3/portmacro.h **** #ifndef configUSE_PORT_OPTIMISED_TASK_SELECTION
 124:..\..\FreeRTOS_Source\portable\GCC\ARM_CM3/portmacro.h **** 	#define configUSE_PORT_OPTIMISED_TASK_SELECTION 1
 125:..\..\FreeRTOS_Source\portable\GCC\ARM_CM3/portmacro.h **** #endif
 126:..\..\FreeRTOS_Source\portable\GCC\ARM_CM3/portmacro.h **** 
 127:..\..\FreeRTOS_Source\portable\GCC\ARM_CM3/portmacro.h **** #if configUSE_PORT_OPTIMISED_TASK_SELECTION == 1
 128:..\..\FreeRTOS_Source\portable\GCC\ARM_CM3/portmacro.h **** 
 129:..\..\FreeRTOS_Source\portable\GCC\ARM_CM3/portmacro.h **** 	/* Generic helper function. */
 130:..\..\FreeRTOS_Source\portable\GCC\ARM_CM3/portmacro.h **** 	__attribute__( ( always_inline ) ) static inline uint8_t ucPortCountLeadingZeros( uint32_t ulBitma
ARM GAS  C:\Users\shevi\AppData\Local\Temp\ccG7hixb.s 			page 19


 131:..\..\FreeRTOS_Source\portable\GCC\ARM_CM3/portmacro.h **** 	{
 132:..\..\FreeRTOS_Source\portable\GCC\ARM_CM3/portmacro.h **** 	uint8_t ucReturn;
 133:..\..\FreeRTOS_Source\portable\GCC\ARM_CM3/portmacro.h **** 
 134:..\..\FreeRTOS_Source\portable\GCC\ARM_CM3/portmacro.h **** 		__asm volatile ( "clz %0, %1" : "=r" ( ucReturn ) : "r" ( ulBitmap ) : "memory" );
 135:..\..\FreeRTOS_Source\portable\GCC\ARM_CM3/portmacro.h **** 		return ucReturn;
 136:..\..\FreeRTOS_Source\portable\GCC\ARM_CM3/portmacro.h **** 	}
 137:..\..\FreeRTOS_Source\portable\GCC\ARM_CM3/portmacro.h **** 
 138:..\..\FreeRTOS_Source\portable\GCC\ARM_CM3/portmacro.h **** 	/* Check the configuration. */
 139:..\..\FreeRTOS_Source\portable\GCC\ARM_CM3/portmacro.h **** 	#if( configMAX_PRIORITIES > 32 )
 140:..\..\FreeRTOS_Source\portable\GCC\ARM_CM3/portmacro.h **** 		#error configUSE_PORT_OPTIMISED_TASK_SELECTION can only be set to 1 when configMAX_PRIORITIES is 
 141:..\..\FreeRTOS_Source\portable\GCC\ARM_CM3/portmacro.h **** 	#endif
 142:..\..\FreeRTOS_Source\portable\GCC\ARM_CM3/portmacro.h **** 
 143:..\..\FreeRTOS_Source\portable\GCC\ARM_CM3/portmacro.h **** 	/* Store/clear the ready priorities in a bit map. */
 144:..\..\FreeRTOS_Source\portable\GCC\ARM_CM3/portmacro.h **** 	#define portRECORD_READY_PRIORITY( uxPriority, uxReadyPriorities ) ( uxReadyPriorities ) |= ( 1UL 
 145:..\..\FreeRTOS_Source\portable\GCC\ARM_CM3/portmacro.h **** 	#define portRESET_READY_PRIORITY( uxPriority, uxReadyPriorities ) ( uxReadyPriorities ) &= ~( 1UL 
 146:..\..\FreeRTOS_Source\portable\GCC\ARM_CM3/portmacro.h **** 
 147:..\..\FreeRTOS_Source\portable\GCC\ARM_CM3/portmacro.h **** 	/*-----------------------------------------------------------*/
 148:..\..\FreeRTOS_Source\portable\GCC\ARM_CM3/portmacro.h **** 
 149:..\..\FreeRTOS_Source\portable\GCC\ARM_CM3/portmacro.h **** 	#define portGET_HIGHEST_PRIORITY( uxTopPriority, uxReadyPriorities ) uxTopPriority = ( 31UL - ( ui
 150:..\..\FreeRTOS_Source\portable\GCC\ARM_CM3/portmacro.h **** 
 151:..\..\FreeRTOS_Source\portable\GCC\ARM_CM3/portmacro.h **** #endif /* configUSE_PORT_OPTIMISED_TASK_SELECTION */
 152:..\..\FreeRTOS_Source\portable\GCC\ARM_CM3/portmacro.h **** 
 153:..\..\FreeRTOS_Source\portable\GCC\ARM_CM3/portmacro.h **** /*-----------------------------------------------------------*/
 154:..\..\FreeRTOS_Source\portable\GCC\ARM_CM3/portmacro.h **** 
 155:..\..\FreeRTOS_Source\portable\GCC\ARM_CM3/portmacro.h **** #ifdef configASSERT
 156:..\..\FreeRTOS_Source\portable\GCC\ARM_CM3/portmacro.h **** 	void vPortValidateInterruptPriority( void );
 157:..\..\FreeRTOS_Source\portable\GCC\ARM_CM3/portmacro.h **** 	#define portASSERT_IF_INTERRUPT_PRIORITY_INVALID() 	vPortValidateInterruptPriority()
 158:..\..\FreeRTOS_Source\portable\GCC\ARM_CM3/portmacro.h **** #endif
 159:..\..\FreeRTOS_Source\portable\GCC\ARM_CM3/portmacro.h **** 
 160:..\..\FreeRTOS_Source\portable\GCC\ARM_CM3/portmacro.h **** /* portNOP() is not required by this port. */
 161:..\..\FreeRTOS_Source\portable\GCC\ARM_CM3/portmacro.h **** #define portNOP()
 162:..\..\FreeRTOS_Source\portable\GCC\ARM_CM3/portmacro.h **** 
 163:..\..\FreeRTOS_Source\portable\GCC\ARM_CM3/portmacro.h **** #define portINLINE	__inline
 164:..\..\FreeRTOS_Source\portable\GCC\ARM_CM3/portmacro.h **** 
 165:..\..\FreeRTOS_Source\portable\GCC\ARM_CM3/portmacro.h **** #ifndef portFORCE_INLINE
 166:..\..\FreeRTOS_Source\portable\GCC\ARM_CM3/portmacro.h **** 	#define portFORCE_INLINE inline __attribute__(( always_inline))
 167:..\..\FreeRTOS_Source\portable\GCC\ARM_CM3/portmacro.h **** #endif
 168:..\..\FreeRTOS_Source\portable\GCC\ARM_CM3/portmacro.h **** 
 169:..\..\FreeRTOS_Source\portable\GCC\ARM_CM3/portmacro.h **** portFORCE_INLINE static BaseType_t xPortIsInsideInterrupt( void )
 170:..\..\FreeRTOS_Source\portable\GCC\ARM_CM3/portmacro.h **** {
 171:..\..\FreeRTOS_Source\portable\GCC\ARM_CM3/portmacro.h **** uint32_t ulCurrentInterrupt;
 172:..\..\FreeRTOS_Source\portable\GCC\ARM_CM3/portmacro.h **** BaseType_t xReturn;
 173:..\..\FreeRTOS_Source\portable\GCC\ARM_CM3/portmacro.h **** 
 174:..\..\FreeRTOS_Source\portable\GCC\ARM_CM3/portmacro.h **** 	/* Obtain the number of the currently executing interrupt. */
 175:..\..\FreeRTOS_Source\portable\GCC\ARM_CM3/portmacro.h **** 	__asm volatile( "mrs %0, ipsr" : "=r"( ulCurrentInterrupt ) :: "memory" );
 176:..\..\FreeRTOS_Source\portable\GCC\ARM_CM3/portmacro.h **** 
 177:..\..\FreeRTOS_Source\portable\GCC\ARM_CM3/portmacro.h **** 	if( ulCurrentInterrupt == 0 )
 178:..\..\FreeRTOS_Source\portable\GCC\ARM_CM3/portmacro.h **** 	{
 179:..\..\FreeRTOS_Source\portable\GCC\ARM_CM3/portmacro.h **** 		xReturn = pdFALSE;
 180:..\..\FreeRTOS_Source\portable\GCC\ARM_CM3/portmacro.h **** 	}
 181:..\..\FreeRTOS_Source\portable\GCC\ARM_CM3/portmacro.h **** 	else
 182:..\..\FreeRTOS_Source\portable\GCC\ARM_CM3/portmacro.h **** 	{
 183:..\..\FreeRTOS_Source\portable\GCC\ARM_CM3/portmacro.h **** 		xReturn = pdTRUE;
 184:..\..\FreeRTOS_Source\portable\GCC\ARM_CM3/portmacro.h **** 	}
 185:..\..\FreeRTOS_Source\portable\GCC\ARM_CM3/portmacro.h **** 
 186:..\..\FreeRTOS_Source\portable\GCC\ARM_CM3/portmacro.h **** 	return xReturn;
 187:..\..\FreeRTOS_Source\portable\GCC\ARM_CM3/portmacro.h **** }
ARM GAS  C:\Users\shevi\AppData\Local\Temp\ccG7hixb.s 			page 20


 188:..\..\FreeRTOS_Source\portable\GCC\ARM_CM3/portmacro.h **** 
 189:..\..\FreeRTOS_Source\portable\GCC\ARM_CM3/portmacro.h **** /*-----------------------------------------------------------*/
 190:..\..\FreeRTOS_Source\portable\GCC\ARM_CM3/portmacro.h **** 
 191:..\..\FreeRTOS_Source\portable\GCC\ARM_CM3/portmacro.h **** portFORCE_INLINE static void vPortRaiseBASEPRI( void )
 192:..\..\FreeRTOS_Source\portable\GCC\ARM_CM3/portmacro.h **** {
 193:..\..\FreeRTOS_Source\portable\GCC\ARM_CM3/portmacro.h **** uint32_t ulNewBASEPRI;
 194:..\..\FreeRTOS_Source\portable\GCC\ARM_CM3/portmacro.h **** 
 195:..\..\FreeRTOS_Source\portable\GCC\ARM_CM3/portmacro.h **** 	__asm volatile
 599              		.loc 2 195 0
 600              	@ 195 "..\..\FreeRTOS_Source\portable\GCC\ARM_CM3/portmacro.h" 1
 601 000a 4FF0A003 			mov r3, #160												
 602 000e 83F31188 		msr basepri, r3											
 603 0012 BFF36F8F 		isb														
 604 0016 BFF34F8F 		dsb														
 605              	
 606              	@ 0 "" 2
 607              		.thumb
 608 001a FB60     		str	r3, [r7, #12]
 609              	.L28:
 610              	.LBE7:
 611              	.LBE6:
 269:main.c        **** 	/* The stack space has been execeeded for a task, considering allocating more. */
 270:main.c        **** 	taskDISABLE_INTERRUPTS();
 271:main.c        **** 	for( ;; );
 612              		.loc 1 271 0 discriminator 1
 613 001c FEE7     		b	.L28
 614              		.cfi_endproc
 615              	.LFE72:
 616              		.size	vApplicationStackOverflowHook, .-vApplicationStackOverflowHook
 617 001e 00BF     		.section	.text.vApplicationMallocFailedHook,"ax",%progbits
 618              		.align	2
 619              		.global	vApplicationMallocFailedHook
 620              		.thumb
 621              		.thumb_func
 622              		.type	vApplicationMallocFailedHook, %function
 623              	vApplicationMallocFailedHook:
 624              	.LFB73:
 272:main.c        **** }
 273:main.c        **** void vApplicationMallocFailedHook( void ) {
 625              		.loc 1 273 0
 626              		.cfi_startproc
 627              		@ args = 0, pretend = 0, frame = 8
 628              		@ frame_needed = 1, uses_anonymous_args = 0
 629              		@ link register save eliminated.
 630 0000 80B4     		push	{r7}
 631              		.cfi_def_cfa_offset 4
 632              		.cfi_offset 7, -4
 633 0002 83B0     		sub	sp, sp, #12
 634              		.cfi_def_cfa_offset 16
 635 0004 00AF     		add	r7, sp, #0
 636              		.cfi_def_cfa_register 7
 637              	.LBB8:
 638              	.LBB9:
 639              		.loc 2 195 0
 640              	@ 195 "..\..\FreeRTOS_Source\portable\GCC\ARM_CM3/portmacro.h" 1
 641 0006 4FF0A003 			mov r3, #160												
 642 000a 83F31188 		msr basepri, r3											
ARM GAS  C:\Users\shevi\AppData\Local\Temp\ccG7hixb.s 			page 21


 643 000e BFF36F8F 		isb														
 644 0012 BFF34F8F 		dsb														
 645              	
 646              	@ 0 "" 2
 647              		.thumb
 648 0016 7B60     		str	r3, [r7, #4]
 649              	.L30:
 650              	.LBE9:
 651              	.LBE8:
 274:main.c        **** 	/* The heap space has been execeeded. */
 275:main.c        **** 	taskDISABLE_INTERRUPTS();
 276:main.c        **** 	for( ;; );
 652              		.loc 1 276 0 discriminator 1
 653 0018 FEE7     		b	.L30
 654              		.cfi_endproc
 655              	.LFE73:
 656              		.size	vApplicationMallocFailedHook, .-vApplicationMallocFailedHook
 657 001a 00BF     		.text
 658              	.Letext0:
 659              		.file 3 "c:\\program files (x86)\\cypress\\psoc creator\\4.0\\psoc creator\\import\\gnu\\arm\\4.9.
 660              		.file 4 "c:\\program files (x86)\\cypress\\psoc creator\\4.0\\psoc creator\\import\\gnu\\arm\\4.9.
 661              		.file 5 "Generated_Source\\PSoC5/cytypes.h"
 662              		.file 6 "..\\..\\FreeRTOS_Source\\include/task.h"
 663              		.file 7 "..\\..\\FreeRTOS_Source\\include/queue.h"
 664              		.file 8 "..\\..\\FreeRTOS_Source\\include/semphr.h"
 665              		.file 9 "..\\..\\FreeRTOS_Source\\include/serial.h"
 666              		.file 10 "movement.h"
 667              		.file 11 "Generated_Source\\PSoC5/core_cm3.h"