ARM GAS  C:\Users\tadge\AppData\Local\Temp\ccMSwaDg.s 			page 1


   1              		.syntax unified
   2              		.cpu cortex-m3
   3              		.fpu softvfp
   4              		.eabi_attribute 20, 1
   5              		.eabi_attribute 21, 1
   6              		.eabi_attribute 23, 3
   7              		.eabi_attribute 24, 1
   8              		.eabi_attribute 25, 1
   9              		.eabi_attribute 26, 1
  10              		.eabi_attribute 30, 6
  11              		.eabi_attribute 34, 1
  12              		.eabi_attribute 18, 4
  13              		.thumb
  14              		.file	"movement.c"
  15              		.text
  16              	.Ltext0:
  17              		.cfi_sections	.debug_frame
  18              		.section	.text.turn_wheel,"ax",%progbits
  19              		.align	2
  20              		.global	turn_wheel
  21              		.thumb
  22              		.thumb_func
  23              		.type	turn_wheel, %function
  24              	turn_wheel:
  25              	.LFB68:
  26              		.file 1 "movement.c"
   1:movement.c    **** // include directives
   2:movement.c    **** 
   3:movement.c    **** // RIGHT WHEEL IS MOTOR 2 !!!!!!!!!!!!!!!!!!!!!!!!!!!!!!!!!!!!!!!!!!!!!!!!!!!!
   4:movement.c    **** // speed is a value between 0 and 65535
   5:movement.c    **** 
   6:movement.c    **** 
   7:movement.c    **** /* Standard includes */
   8:movement.c    **** #include "project.h"
   9:movement.c    **** #include <math.h>
  10:movement.c    **** #include <stdio.h>
  11:movement.c    **** #include <stdint.h>
  12:movement.c    **** #include <stdlib.h>
  13:movement.c    **** #include <time.h>
  14:movement.c    **** 
  15:movement.c    **** /* FreeRTOS includes */
  16:movement.c    **** #include "FreeRTOS.h"
  17:movement.c    **** #include "task.h"
  18:movement.c    **** #include "semphr.h"
  19:movement.c    **** #include "serial.h"
  20:movement.c    **** 
  21:movement.c    **** #include "movement.h"
  22:movement.c    **** 
  23:movement.c    **** 
  24:movement.c    **** 
  25:movement.c    **** /* initiate functions */
  26:movement.c    **** 
  27:movement.c    **** void turn_wheel(char side, int volt) {
  27              		.loc 1 27 0
  28              		.cfi_startproc
  29              		@ args = 0, pretend = 0, frame = 8
  30              		@ frame_needed = 1, uses_anonymous_args = 0
ARM GAS  C:\Users\tadge\AppData\Local\Temp\ccMSwaDg.s 			page 2


  31 0000 80B5     		push	{r7, lr}
  32              		.cfi_def_cfa_offset 8
  33              		.cfi_offset 7, -8
  34              		.cfi_offset 14, -4
  35 0002 82B0     		sub	sp, sp, #8
  36              		.cfi_def_cfa_offset 16
  37 0004 00AF     		add	r7, sp, #0
  38              		.cfi_def_cfa_register 7
  39 0006 0346     		mov	r3, r0
  40 0008 3960     		str	r1, [r7]
  41 000a FB71     		strb	r3, [r7, #7]
  28:movement.c    ****     // turning right wheel
  29:movement.c    ****     if (side == 'r'){
  42              		.loc 1 29 0
  43 000c FB79     		ldrb	r3, [r7, #7]	@ zero_extendqisi2
  44 000e 722B     		cmp	r3, #114
  45 0010 24D1     		bne	.L2
  30:movement.c    ****         Standby_Write(1);
  46              		.loc 1 30 0
  47 0012 0120     		movs	r0, #1
  48 0014 FFF7FEFF 		bl	Standby_Write
  31:movement.c    ****         PWM_M2_WriteCompare(abs(volt));
  49              		.loc 1 31 0
  50 0018 3B68     		ldr	r3, [r7]
  51 001a 002B     		cmp	r3, #0
  52 001c B8BF     		it	lt
  53 001e 5B42     		rsblt	r3, r3, #0
  54 0020 9BB2     		uxth	r3, r3
  55 0022 1846     		mov	r0, r3
  56 0024 FFF7FEFF 		bl	PWM_M2_WriteCompare
  32:movement.c    ****         
  33:movement.c    ****         if (volt > 0)
  57              		.loc 1 33 0
  58 0028 3B68     		ldr	r3, [r7]
  59 002a 002B     		cmp	r3, #0
  60 002c 06DD     		ble	.L3
  34:movement.c    ****         {
  35:movement.c    ****             M2_FWD_Write(0);
  61              		.loc 1 35 0
  62 002e 0020     		movs	r0, #0
  63 0030 FFF7FEFF 		bl	M2_FWD_Write
  36:movement.c    ****             M2_BWD_Write(1);
  64              		.loc 1 36 0
  65 0034 0120     		movs	r0, #1
  66 0036 FFF7FEFF 		bl	M2_BWD_Write
  67 003a 0FE0     		b	.L2
  68              	.L3:
  37:movement.c    ****         }
  38:movement.c    ****         else if (volt < 0)
  69              		.loc 1 38 0
  70 003c 3B68     		ldr	r3, [r7]
  71 003e 002B     		cmp	r3, #0
  72 0040 06DA     		bge	.L4
  39:movement.c    ****         {
  40:movement.c    ****             M2_FWD_Write(1);
  73              		.loc 1 40 0
  74 0042 0120     		movs	r0, #1
ARM GAS  C:\Users\tadge\AppData\Local\Temp\ccMSwaDg.s 			page 3


  75 0044 FFF7FEFF 		bl	M2_FWD_Write
  41:movement.c    ****             M2_BWD_Write(0);
  76              		.loc 1 41 0
  77 0048 0020     		movs	r0, #0
  78 004a FFF7FEFF 		bl	M2_BWD_Write
  79 004e 05E0     		b	.L2
  80              	.L4:
  42:movement.c    ****         }
  43:movement.c    ****         else
  44:movement.c    ****         {
  45:movement.c    ****             M2_FWD_Write(0);
  81              		.loc 1 45 0
  82 0050 0020     		movs	r0, #0
  83 0052 FFF7FEFF 		bl	M2_FWD_Write
  46:movement.c    ****             M2_BWD_Write(0);
  84              		.loc 1 46 0
  85 0056 0020     		movs	r0, #0
  86 0058 FFF7FEFF 		bl	M2_BWD_Write
  87              	.L2:
  47:movement.c    ****         }
  48:movement.c    ****     }
  49:movement.c    ****     
  50:movement.c    ****     //turning left wheel
  51:movement.c    ****     if (side == 'l'){
  88              		.loc 1 51 0
  89 005c FB79     		ldrb	r3, [r7, #7]	@ zero_extendqisi2
  90 005e 6C2B     		cmp	r3, #108
  91 0060 24D1     		bne	.L1
  52:movement.c    ****         Standby_Write(1);
  92              		.loc 1 52 0
  93 0062 0120     		movs	r0, #1
  94 0064 FFF7FEFF 		bl	Standby_Write
  53:movement.c    ****         PWM_M1_WriteCompare(abs(volt));
  95              		.loc 1 53 0
  96 0068 3B68     		ldr	r3, [r7]
  97 006a 002B     		cmp	r3, #0
  98 006c B8BF     		it	lt
  99 006e 5B42     		rsblt	r3, r3, #0
 100 0070 9BB2     		uxth	r3, r3
 101 0072 1846     		mov	r0, r3
 102 0074 FFF7FEFF 		bl	PWM_M1_WriteCompare
  54:movement.c    ****         
  55:movement.c    ****         if (volt > 0)
 103              		.loc 1 55 0
 104 0078 3B68     		ldr	r3, [r7]
 105 007a 002B     		cmp	r3, #0
 106 007c 06DD     		ble	.L6
  56:movement.c    ****         {
  57:movement.c    ****             M1_FWD_Write(0);
 107              		.loc 1 57 0
 108 007e 0020     		movs	r0, #0
 109 0080 FFF7FEFF 		bl	M1_FWD_Write
  58:movement.c    ****             M1_BWD_Write(1);
 110              		.loc 1 58 0
 111 0084 0120     		movs	r0, #1
 112 0086 FFF7FEFF 		bl	M1_BWD_Write
 113 008a 0FE0     		b	.L1
ARM GAS  C:\Users\tadge\AppData\Local\Temp\ccMSwaDg.s 			page 4


 114              	.L6:
  59:movement.c    ****         }
  60:movement.c    ****         else if (volt < 0)
 115              		.loc 1 60 0
 116 008c 3B68     		ldr	r3, [r7]
 117 008e 002B     		cmp	r3, #0
 118 0090 06DA     		bge	.L7
  61:movement.c    ****         {
  62:movement.c    ****             M1_FWD_Write(1);
 119              		.loc 1 62 0
 120 0092 0120     		movs	r0, #1
 121 0094 FFF7FEFF 		bl	M1_FWD_Write
  63:movement.c    ****             M1_BWD_Write(0);
 122              		.loc 1 63 0
 123 0098 0020     		movs	r0, #0
 124 009a FFF7FEFF 		bl	M1_BWD_Write
 125 009e 05E0     		b	.L1
 126              	.L7:
  64:movement.c    ****         }
  65:movement.c    ****         else
  66:movement.c    ****         {
  67:movement.c    ****             M1_FWD_Write(0);
 127              		.loc 1 67 0
 128 00a0 0020     		movs	r0, #0
 129 00a2 FFF7FEFF 		bl	M1_FWD_Write
  68:movement.c    ****             M1_BWD_Write(0);
 130              		.loc 1 68 0
 131 00a6 0020     		movs	r0, #0
 132 00a8 FFF7FEFF 		bl	M1_BWD_Write
 133              	.L1:
  69:movement.c    ****         }
  70:movement.c    ****     }
  71:movement.c    **** }
 134              		.loc 1 71 0
 135 00ac 0837     		adds	r7, r7, #8
 136              		.cfi_def_cfa_offset 8
 137 00ae BD46     		mov	sp, r7
 138              		.cfi_def_cfa_register 13
 139              		@ sp needed
 140 00b0 80BD     		pop	{r7, pc}
 141              		.cfi_endproc
 142              	.LFE68:
 143              		.size	turn_wheel, .-turn_wheel
 144 00b2 00BF     		.section	.text.mov_update_error,"ax",%progbits
 145              		.align	2
 146              		.global	mov_update_error
 147              		.thumb
 148              		.thumb_func
 149              		.type	mov_update_error, %function
 150              	mov_update_error:
 151              	.LFB69:
  72:movement.c    **** void mov_update_error(wheel_data *left, wheel_data *right) {
 152              		.loc 1 72 0
 153              		.cfi_startproc
 154              		@ args = 0, pretend = 0, frame = 8
 155              		@ frame_needed = 1, uses_anonymous_args = 0
 156 0000 90B5     		push	{r4, r7, lr}
ARM GAS  C:\Users\tadge\AppData\Local\Temp\ccMSwaDg.s 			page 5


 157              		.cfi_def_cfa_offset 12
 158              		.cfi_offset 4, -12
 159              		.cfi_offset 7, -8
 160              		.cfi_offset 14, -4
 161 0002 83B0     		sub	sp, sp, #12
 162              		.cfi_def_cfa_offset 24
 163 0004 00AF     		add	r7, sp, #0
 164              		.cfi_def_cfa_register 7
 165 0006 7860     		str	r0, [r7, #4]
 166 0008 3960     		str	r1, [r7]
  73:movement.c    ****     left->cur_dest = left->cur_dest + left->inc;
 167              		.loc 1 73 0
 168 000a 7B68     		ldr	r3, [r7, #4]
 169 000c 5A68     		ldr	r2, [r3, #4]
 170 000e 7B68     		ldr	r3, [r7, #4]
 171 0010 9B69     		ldr	r3, [r3, #24]
 172 0012 1A44     		add	r2, r2, r3
 173 0014 7B68     		ldr	r3, [r7, #4]
 174 0016 5A60     		str	r2, [r3, #4]
  74:movement.c    ****     right->cur_dest = right->cur_dest + right->inc;
 175              		.loc 1 74 0
 176 0018 3B68     		ldr	r3, [r7]
 177 001a 5A68     		ldr	r2, [r3, #4]
 178 001c 3B68     		ldr	r3, [r7]
 179 001e 9B69     		ldr	r3, [r3, #24]
 180 0020 1A44     		add	r2, r2, r3
 181 0022 3B68     		ldr	r3, [r7]
 182 0024 5A60     		str	r2, [r3, #4]
  75:movement.c    ****     
  76:movement.c    ****     left->time_prev = left->time;
 183              		.loc 1 76 0
 184 0026 7B68     		ldr	r3, [r7, #4]
 185 0028 DA69     		ldr	r2, [r3, #28]
 186 002a 7B68     		ldr	r3, [r7, #4]
 187 002c 1A62     		str	r2, [r3, #32]
  77:movement.c    ****     left->time = 357912 - Timer_1_ReadCounter() / 12000;
 188              		.loc 1 77 0
 189 002e FFF7FEFF 		bl	Timer_1_ReadCounter
 190 0032 0246     		mov	r2, r0
 191 0034 224B     		ldr	r3, .L9
 192 0036 A3FB0223 		umull	r2, r3, r3, r2
 193 003a 1B0A     		lsrs	r3, r3, #8
 194 003c C3F5AE23 		rsb	r3, r3, #356352
 195 0040 03F5C363 		add	r3, r3, #1560
 196 0044 7A68     		ldr	r2, [r7, #4]
 197 0046 D361     		str	r3, [r2, #28]
  78:movement.c    ****     
  79:movement.c    ****     right->time_prev = right->time;
 198              		.loc 1 79 0
 199 0048 3B68     		ldr	r3, [r7]
 200 004a DA69     		ldr	r2, [r3, #28]
 201 004c 3B68     		ldr	r3, [r7]
 202 004e 1A62     		str	r2, [r3, #32]
  80:movement.c    ****     right->time = 357912 - Timer_1_ReadCounter() / 12000;
 203              		.loc 1 80 0
 204 0050 FFF7FEFF 		bl	Timer_1_ReadCounter
 205 0054 0246     		mov	r2, r0
ARM GAS  C:\Users\tadge\AppData\Local\Temp\ccMSwaDg.s 			page 6


 206 0056 1A4B     		ldr	r3, .L9
 207 0058 A3FB0223 		umull	r2, r3, r3, r2
 208 005c 1B0A     		lsrs	r3, r3, #8
 209 005e C3F5AE23 		rsb	r3, r3, #356352
 210 0062 03F5C363 		add	r3, r3, #1560
 211 0066 3A68     		ldr	r2, [r7]
 212 0068 D361     		str	r3, [r2, #28]
  81:movement.c    ****     
  82:movement.c    ****     
  83:movement.c    ****     left->error_prev = left->error;
 213              		.loc 1 83 0
 214 006a 7B68     		ldr	r3, [r7, #4]
 215 006c DA68     		ldr	r2, [r3, #12]
 216 006e 7B68     		ldr	r3, [r7, #4]
 217 0070 9A60     		str	r2, [r3, #8]
  84:movement.c    ****     right->error_prev = right->error;
 218              		.loc 1 84 0
 219 0072 3B68     		ldr	r3, [r7]
 220 0074 DA68     		ldr	r2, [r3, #12]
 221 0076 3B68     		ldr	r3, [r7]
 222 0078 9A60     		str	r2, [r3, #8]
  85:movement.c    ****     
  86:movement.c    ****     left->error = left->cur_dest - (-64*M1QuadDec_GetCounter());
 223              		.loc 1 86 0
 224 007a 7B68     		ldr	r3, [r7, #4]
 225 007c 5C68     		ldr	r4, [r3, #4]
 226 007e FFF7FEFF 		bl	M1QuadDec_GetCounter
 227 0082 0346     		mov	r3, r0
 228 0084 9B01     		lsls	r3, r3, #6
 229 0086 E218     		adds	r2, r4, r3
 230 0088 7B68     		ldr	r3, [r7, #4]
 231 008a DA60     		str	r2, [r3, #12]
  87:movement.c    ****     right->error = right->cur_dest - (-64*M2QuadDec_GetCounter());
 232              		.loc 1 87 0
 233 008c 3B68     		ldr	r3, [r7]
 234 008e 5C68     		ldr	r4, [r3, #4]
 235 0090 FFF7FEFF 		bl	M2QuadDec_GetCounter
 236 0094 0346     		mov	r3, r0
 237 0096 9B01     		lsls	r3, r3, #6
 238 0098 E218     		adds	r2, r4, r3
 239 009a 3B68     		ldr	r3, [r7]
 240 009c DA60     		str	r2, [r3, #12]
  88:movement.c    ****     
  89:movement.c    ****     left->error_sum = left->error_sum + left->error;
 241              		.loc 1 89 0
 242 009e 7B68     		ldr	r3, [r7, #4]
 243 00a0 1A69     		ldr	r2, [r3, #16]
 244 00a2 7B68     		ldr	r3, [r7, #4]
 245 00a4 DB68     		ldr	r3, [r3, #12]
 246 00a6 1A44     		add	r2, r2, r3
 247 00a8 7B68     		ldr	r3, [r7, #4]
 248 00aa 1A61     		str	r2, [r3, #16]
  90:movement.c    ****     right->error_sum = right->error_sum + right->error;
 249              		.loc 1 90 0
 250 00ac 3B68     		ldr	r3, [r7]
 251 00ae 1A69     		ldr	r2, [r3, #16]
 252 00b0 3B68     		ldr	r3, [r7]
ARM GAS  C:\Users\tadge\AppData\Local\Temp\ccMSwaDg.s 			page 7


 253 00b2 DB68     		ldr	r3, [r3, #12]
 254 00b4 1A44     		add	r2, r2, r3
 255 00b6 3B68     		ldr	r3, [r7]
 256 00b8 1A61     		str	r2, [r3, #16]
  91:movement.c    **** 
  92:movement.c    **** }
 257              		.loc 1 92 0
 258 00ba 0C37     		adds	r7, r7, #12
 259              		.cfi_def_cfa_offset 12
 260 00bc BD46     		mov	sp, r7
 261              		.cfi_def_cfa_register 13
 262              		@ sp needed
 263 00be 90BD     		pop	{r4, r7, pc}
 264              	.L10:
 265              		.align	2
 266              	.L9:
 267 00c0 F1197605 		.word	91625969
 268              		.cfi_endproc
 269              	.LFE69:
 270              		.size	mov_update_error, .-mov_update_error
 271              		.global	__aeabi_i2d
 272              		.global	__aeabi_dmul
 273              		.global	__aeabi_dadd
 274              		.global	__aeabi_ui2d
 275              		.global	__aeabi_d2iz
 276              		.section	.text.mov_get_PID,"ax",%progbits
 277              		.align	2
 278              		.global	mov_get_PID
 279              		.thumb
 280              		.thumb_func
 281              		.type	mov_get_PID, %function
 282              	mov_get_PID:
 283              	.LFB70:
  93:movement.c    **** void mov_get_PID(wheel_data *left, wheel_data *right, PID_data *k) {
 284              		.loc 1 93 0
 285              		.cfi_startproc
 286              		@ args = 0, pretend = 0, frame = 24
 287              		@ frame_needed = 1, uses_anonymous_args = 0
 288 0000 2DE9B043 		push	{r4, r5, r7, r8, r9, lr}
 289              		.cfi_def_cfa_offset 24
 290              		.cfi_offset 4, -24
 291              		.cfi_offset 5, -20
 292              		.cfi_offset 7, -16
 293              		.cfi_offset 8, -12
 294              		.cfi_offset 9, -8
 295              		.cfi_offset 14, -4
 296 0004 86B0     		sub	sp, sp, #24
 297              		.cfi_def_cfa_offset 48
 298 0006 00AF     		add	r7, sp, #0
 299              		.cfi_def_cfa_register 7
 300 0008 F860     		str	r0, [r7, #12]
 301 000a B960     		str	r1, [r7, #8]
 302 000c 7A60     		str	r2, [r7, #4]
  94:movement.c    ****     int motor_voltage;
  95:movement.c    ****     motor_voltage =  ( k->Kp * left->error ) + ( k->Ki * left->error_sum ) + ( k->Kd * (left->error
 303              		.loc 1 95 0
 304 000e 7B68     		ldr	r3, [r7, #4]
ARM GAS  C:\Users\tadge\AppData\Local\Temp\ccMSwaDg.s 			page 8


 305 0010 D3E90245 		ldrd	r4, [r3, #8]
 306 0014 FB68     		ldr	r3, [r7, #12]
 307 0016 DB68     		ldr	r3, [r3, #12]
 308 0018 1846     		mov	r0, r3
 309 001a FFF7FEFF 		bl	__aeabi_i2d
 310 001e 0246     		mov	r2, r0
 311 0020 0B46     		mov	r3, r1
 312 0022 2046     		mov	r0, r4
 313 0024 2946     		mov	r1, r5
 314 0026 FFF7FEFF 		bl	__aeabi_dmul
 315 002a 0246     		mov	r2, r0
 316 002c 0B46     		mov	r3, r1
 317 002e 9046     		mov	r8, r2
 318 0030 9946     		mov	r9, r3
 319 0032 7B68     		ldr	r3, [r7, #4]
 320 0034 D3E90045 		ldrd	r4, [r3]
 321 0038 FB68     		ldr	r3, [r7, #12]
 322 003a 1B69     		ldr	r3, [r3, #16]
 323 003c 1846     		mov	r0, r3
 324 003e FFF7FEFF 		bl	__aeabi_i2d
 325 0042 0246     		mov	r2, r0
 326 0044 0B46     		mov	r3, r1
 327 0046 2046     		mov	r0, r4
 328 0048 2946     		mov	r1, r5
 329 004a FFF7FEFF 		bl	__aeabi_dmul
 330 004e 0246     		mov	r2, r0
 331 0050 0B46     		mov	r3, r1
 332 0052 4046     		mov	r0, r8
 333 0054 4946     		mov	r1, r9
 334 0056 FFF7FEFF 		bl	__aeabi_dadd
 335 005a 0246     		mov	r2, r0
 336 005c 0B46     		mov	r3, r1
 337 005e 9046     		mov	r8, r2
 338 0060 9946     		mov	r9, r3
 339 0062 7B68     		ldr	r3, [r7, #4]
 340 0064 D3E90445 		ldrd	r4, [r3, #16]
 341 0068 FB68     		ldr	r3, [r7, #12]
 342 006a DA68     		ldr	r2, [r3, #12]
 343 006c FB68     		ldr	r3, [r7, #12]
 344 006e 9B68     		ldr	r3, [r3, #8]
 345 0070 D31A     		subs	r3, r2, r3
 346 0072 1846     		mov	r0, r3
 347 0074 FFF7FEFF 		bl	__aeabi_i2d
 348 0078 0246     		mov	r2, r0
 349 007a 0B46     		mov	r3, r1
 350 007c 2046     		mov	r0, r4
 351 007e 2946     		mov	r1, r5
 352 0080 FFF7FEFF 		bl	__aeabi_dmul
 353 0084 0246     		mov	r2, r0
 354 0086 0B46     		mov	r3, r1
 355 0088 1446     		mov	r4, r2
 356 008a 1D46     		mov	r5, r3
 357 008c FB68     		ldr	r3, [r7, #12]
 358 008e DA69     		ldr	r2, [r3, #28]
 359 0090 FB68     		ldr	r3, [r7, #12]
 360 0092 1B6A     		ldr	r3, [r3, #32]
 361 0094 D31A     		subs	r3, r2, r3
ARM GAS  C:\Users\tadge\AppData\Local\Temp\ccMSwaDg.s 			page 9


 362 0096 1846     		mov	r0, r3
 363 0098 FFF7FEFF 		bl	__aeabi_ui2d
 364 009c 0246     		mov	r2, r0
 365 009e 0B46     		mov	r3, r1
 366 00a0 2046     		mov	r0, r4
 367 00a2 2946     		mov	r1, r5
 368 00a4 FFF7FEFF 		bl	__aeabi_dmul
 369 00a8 0246     		mov	r2, r0
 370 00aa 0B46     		mov	r3, r1
 371 00ac 4046     		mov	r0, r8
 372 00ae 4946     		mov	r1, r9
 373 00b0 FFF7FEFF 		bl	__aeabi_dadd
 374 00b4 0246     		mov	r2, r0
 375 00b6 0B46     		mov	r3, r1
 376 00b8 1046     		mov	r0, r2
 377 00ba 1946     		mov	r1, r3
 378 00bc FFF7FEFF 		bl	__aeabi_d2iz
 379 00c0 0346     		mov	r3, r0
 380 00c2 7B61     		str	r3, [r7, #20]
  96:movement.c    **** 
  97:movement.c    ****     if (motor_voltage < -65535){
 381              		.loc 1 97 0
 382 00c4 7B69     		ldr	r3, [r7, #20]
 383 00c6 13F5803F 		cmn	r3, #65536
 384 00ca 02DC     		bgt	.L12
  98:movement.c    ****         motor_voltage = -65535;}
 385              		.loc 1 98 0
 386 00cc 3E4B     		ldr	r3, .L16
 387 00ce 7B61     		str	r3, [r7, #20]
 388 00d0 06E0     		b	.L13
 389              	.L12:
  99:movement.c    ****     else if (motor_voltage > 65535){
 390              		.loc 1 99 0
 391 00d2 7B69     		ldr	r3, [r7, #20]
 392 00d4 B3F5803F 		cmp	r3, #65536
 393 00d8 02DB     		blt	.L13
 100:movement.c    ****         motor_voltage = 65535;}
 394              		.loc 1 100 0
 395 00da 4FF6FF73 		movw	r3, #65535
 396 00de 7B61     		str	r3, [r7, #20]
 397              	.L13:
 101:movement.c    ****     
 102:movement.c    ****     left->motor_volt = motor_voltage;
 398              		.loc 1 102 0
 399 00e0 FB68     		ldr	r3, [r7, #12]
 400 00e2 7A69     		ldr	r2, [r7, #20]
 401 00e4 5A61     		str	r2, [r3, #20]
 103:movement.c    ****         
 104:movement.c    ****     motor_voltage =  ( k->Kp * right->error ) + ( k->Ki * right->error_sum ) + ( k->Kd * (right->er
 402              		.loc 1 104 0
 403 00e6 7B68     		ldr	r3, [r7, #4]
 404 00e8 D3E90245 		ldrd	r4, [r3, #8]
 405 00ec BB68     		ldr	r3, [r7, #8]
 406 00ee DB68     		ldr	r3, [r3, #12]
 407 00f0 1846     		mov	r0, r3
 408 00f2 FFF7FEFF 		bl	__aeabi_i2d
 409 00f6 0246     		mov	r2, r0
ARM GAS  C:\Users\tadge\AppData\Local\Temp\ccMSwaDg.s 			page 10


 410 00f8 0B46     		mov	r3, r1
 411 00fa 2046     		mov	r0, r4
 412 00fc 2946     		mov	r1, r5
 413 00fe FFF7FEFF 		bl	__aeabi_dmul
 414 0102 0246     		mov	r2, r0
 415 0104 0B46     		mov	r3, r1
 416 0106 9046     		mov	r8, r2
 417 0108 9946     		mov	r9, r3
 418 010a 7B68     		ldr	r3, [r7, #4]
 419 010c D3E90045 		ldrd	r4, [r3]
 420 0110 BB68     		ldr	r3, [r7, #8]
 421 0112 1B69     		ldr	r3, [r3, #16]
 422 0114 1846     		mov	r0, r3
 423 0116 FFF7FEFF 		bl	__aeabi_i2d
 424 011a 0246     		mov	r2, r0
 425 011c 0B46     		mov	r3, r1
 426 011e 2046     		mov	r0, r4
 427 0120 2946     		mov	r1, r5
 428 0122 FFF7FEFF 		bl	__aeabi_dmul
 429 0126 0246     		mov	r2, r0
 430 0128 0B46     		mov	r3, r1
 431 012a 4046     		mov	r0, r8
 432 012c 4946     		mov	r1, r9
 433 012e FFF7FEFF 		bl	__aeabi_dadd
 434 0132 0246     		mov	r2, r0
 435 0134 0B46     		mov	r3, r1
 436 0136 9046     		mov	r8, r2
 437 0138 9946     		mov	r9, r3
 438 013a 7B68     		ldr	r3, [r7, #4]
 439 013c D3E90445 		ldrd	r4, [r3, #16]
 440 0140 BB68     		ldr	r3, [r7, #8]
 441 0142 DA68     		ldr	r2, [r3, #12]
 442 0144 BB68     		ldr	r3, [r7, #8]
 443 0146 9B68     		ldr	r3, [r3, #8]
 444 0148 D31A     		subs	r3, r2, r3
 445 014a 1846     		mov	r0, r3
 446 014c FFF7FEFF 		bl	__aeabi_i2d
 447 0150 0246     		mov	r2, r0
 448 0152 0B46     		mov	r3, r1
 449 0154 2046     		mov	r0, r4
 450 0156 2946     		mov	r1, r5
 451 0158 FFF7FEFF 		bl	__aeabi_dmul
 452 015c 0246     		mov	r2, r0
 453 015e 0B46     		mov	r3, r1
 454 0160 1446     		mov	r4, r2
 455 0162 1D46     		mov	r5, r3
 456 0164 BB68     		ldr	r3, [r7, #8]
 457 0166 DA69     		ldr	r2, [r3, #28]
 458 0168 BB68     		ldr	r3, [r7, #8]
 459 016a 1B6A     		ldr	r3, [r3, #32]
 460 016c D31A     		subs	r3, r2, r3
 461 016e 1846     		mov	r0, r3
 462 0170 FFF7FEFF 		bl	__aeabi_ui2d
 463 0174 0246     		mov	r2, r0
 464 0176 0B46     		mov	r3, r1
 465 0178 2046     		mov	r0, r4
 466 017a 2946     		mov	r1, r5
ARM GAS  C:\Users\tadge\AppData\Local\Temp\ccMSwaDg.s 			page 11


 467 017c FFF7FEFF 		bl	__aeabi_dmul
 468 0180 0246     		mov	r2, r0
 469 0182 0B46     		mov	r3, r1
 470 0184 4046     		mov	r0, r8
 471 0186 4946     		mov	r1, r9
 472 0188 FFF7FEFF 		bl	__aeabi_dadd
 473 018c 0246     		mov	r2, r0
 474 018e 0B46     		mov	r3, r1
 475 0190 1046     		mov	r0, r2
 476 0192 1946     		mov	r1, r3
 477 0194 FFF7FEFF 		bl	__aeabi_d2iz
 478 0198 0346     		mov	r3, r0
 479 019a 7B61     		str	r3, [r7, #20]
 105:movement.c    **** 
 106:movement.c    ****     if (motor_voltage < -65535){
 480              		.loc 1 106 0
 481 019c 7B69     		ldr	r3, [r7, #20]
 482 019e 13F5803F 		cmn	r3, #65536
 483 01a2 02DC     		bgt	.L14
 107:movement.c    ****         motor_voltage = -65535;}
 484              		.loc 1 107 0
 485 01a4 084B     		ldr	r3, .L16
 486 01a6 7B61     		str	r3, [r7, #20]
 487 01a8 06E0     		b	.L15
 488              	.L14:
 108:movement.c    ****     else if (motor_voltage > 65535){
 489              		.loc 1 108 0
 490 01aa 7B69     		ldr	r3, [r7, #20]
 491 01ac B3F5803F 		cmp	r3, #65536
 492 01b0 02DB     		blt	.L15
 109:movement.c    ****         motor_voltage = 65535;}
 493              		.loc 1 109 0
 494 01b2 4FF6FF73 		movw	r3, #65535
 495 01b6 7B61     		str	r3, [r7, #20]
 496              	.L15:
 110:movement.c    ****     
 111:movement.c    ****     right->motor_volt = motor_voltage;
 497              		.loc 1 111 0
 498 01b8 BB68     		ldr	r3, [r7, #8]
 499 01ba 7A69     		ldr	r2, [r7, #20]
 500 01bc 5A61     		str	r2, [r3, #20]
 112:movement.c    **** }    
 501              		.loc 1 112 0
 502 01be 1837     		adds	r7, r7, #24
 503              		.cfi_def_cfa_offset 24
 504 01c0 BD46     		mov	sp, r7
 505              		.cfi_def_cfa_register 13
 506              		@ sp needed
 507 01c2 BDE8B083 		pop	{r4, r5, r7, r8, r9, pc}
 508              	.L17:
 509 01c6 00BF     		.align	2
 510              	.L16:
 511 01c8 0100FFFF 		.word	-65535
 512              		.cfi_endproc
 513              	.LFE70:
 514              		.size	mov_get_PID, .-mov_get_PID
 515              		.section	.text.mov_Adj_Volt,"ax",%progbits
ARM GAS  C:\Users\tadge\AppData\Local\Temp\ccMSwaDg.s 			page 12


 516              		.align	2
 517              		.global	mov_Adj_Volt
 518              		.thumb
 519              		.thumb_func
 520              		.type	mov_Adj_Volt, %function
 521              	mov_Adj_Volt:
 522              	.LFB71:
 113:movement.c    **** void mov_Adj_Volt(wheel_data *left, wheel_data *right) {
 523              		.loc 1 113 0
 524              		.cfi_startproc
 525              		@ args = 0, pretend = 0, frame = 8
 526              		@ frame_needed = 1, uses_anonymous_args = 0
 527 0000 80B5     		push	{r7, lr}
 528              		.cfi_def_cfa_offset 8
 529              		.cfi_offset 7, -8
 530              		.cfi_offset 14, -4
 531 0002 82B0     		sub	sp, sp, #8
 532              		.cfi_def_cfa_offset 16
 533 0004 00AF     		add	r7, sp, #0
 534              		.cfi_def_cfa_register 7
 535 0006 7860     		str	r0, [r7, #4]
 536 0008 3960     		str	r1, [r7]
 114:movement.c    ****     turn_wheel('l', left->motor_volt);
 537              		.loc 1 114 0
 538 000a 7B68     		ldr	r3, [r7, #4]
 539 000c 5B69     		ldr	r3, [r3, #20]
 540 000e 6C20     		movs	r0, #108
 541 0010 1946     		mov	r1, r3
 542 0012 FFF7FEFF 		bl	turn_wheel
 115:movement.c    ****     turn_wheel('r', right->motor_volt);
 543              		.loc 1 115 0
 544 0016 3B68     		ldr	r3, [r7]
 545 0018 5B69     		ldr	r3, [r3, #20]
 546 001a 7220     		movs	r0, #114
 547 001c 1946     		mov	r1, r3
 548 001e FFF7FEFF 		bl	turn_wheel
 116:movement.c    **** }
 549              		.loc 1 116 0
 550 0022 0837     		adds	r7, r7, #8
 551              		.cfi_def_cfa_offset 8
 552 0024 BD46     		mov	sp, r7
 553              		.cfi_def_cfa_register 13
 554              		@ sp needed
 555 0026 80BD     		pop	{r7, pc}
 556              		.cfi_endproc
 557              	.LFE71:
 558              		.size	mov_Adj_Volt, .-mov_Adj_Volt
 559              		.section	.text.initialise_wheel_data,"ax",%progbits
 560              		.align	2
 561              		.global	initialise_wheel_data
 562              		.thumb
 563              		.thumb_func
 564              		.type	initialise_wheel_data, %function
 565              	initialise_wheel_data:
 566              	.LFB72:
 117:movement.c    **** void initialise_wheel_data(wheel_data *w){
 567              		.loc 1 117 0
ARM GAS  C:\Users\tadge\AppData\Local\Temp\ccMSwaDg.s 			page 13


 568              		.cfi_startproc
 569              		@ args = 0, pretend = 0, frame = 8
 570              		@ frame_needed = 1, uses_anonymous_args = 0
 571              		@ link register save eliminated.
 572 0000 80B4     		push	{r7}
 573              		.cfi_def_cfa_offset 4
 574              		.cfi_offset 7, -4
 575 0002 83B0     		sub	sp, sp, #12
 576              		.cfi_def_cfa_offset 16
 577 0004 00AF     		add	r7, sp, #0
 578              		.cfi_def_cfa_register 7
 579 0006 7860     		str	r0, [r7, #4]
 118:movement.c    ****     w->cur_dest = 0;
 580              		.loc 1 118 0
 581 0008 7B68     		ldr	r3, [r7, #4]
 582 000a 0022     		movs	r2, #0
 583 000c 5A60     		str	r2, [r3, #4]
 119:movement.c    ****     w->error = 0;
 584              		.loc 1 119 0
 585 000e 7B68     		ldr	r3, [r7, #4]
 586 0010 0022     		movs	r2, #0
 587 0012 DA60     		str	r2, [r3, #12]
 120:movement.c    ****     w->error_prev = 0;
 588              		.loc 1 120 0
 589 0014 7B68     		ldr	r3, [r7, #4]
 590 0016 0022     		movs	r2, #0
 591 0018 9A60     		str	r2, [r3, #8]
 121:movement.c    ****     w->error_sum = 0;
 592              		.loc 1 121 0
 593 001a 7B68     		ldr	r3, [r7, #4]
 594 001c 0022     		movs	r2, #0
 595 001e 1A61     		str	r2, [r3, #16]
 122:movement.c    ****     w->inc = 0;
 596              		.loc 1 122 0
 597 0020 7B68     		ldr	r3, [r7, #4]
 598 0022 0022     		movs	r2, #0
 599 0024 9A61     		str	r2, [r3, #24]
 123:movement.c    ****     w->motor_volt = 0;
 600              		.loc 1 123 0
 601 0026 7B68     		ldr	r3, [r7, #4]
 602 0028 0022     		movs	r2, #0
 603 002a 5A61     		str	r2, [r3, #20]
 124:movement.c    ****     w->prev_dest = 0;
 604              		.loc 1 124 0
 605 002c 7B68     		ldr	r3, [r7, #4]
 606 002e 0022     		movs	r2, #0
 607 0030 1A60     		str	r2, [r3]
 125:movement.c    ****     w->time_prev = 0;
 608              		.loc 1 125 0
 609 0032 7B68     		ldr	r3, [r7, #4]
 610 0034 0022     		movs	r2, #0
 611 0036 1A62     		str	r2, [r3, #32]
 126:movement.c    ****     w->time = 0;
 612              		.loc 1 126 0
 613 0038 7B68     		ldr	r3, [r7, #4]
 614 003a 0022     		movs	r2, #0
 615 003c DA61     		str	r2, [r3, #28]
ARM GAS  C:\Users\tadge\AppData\Local\Temp\ccMSwaDg.s 			page 14


 127:movement.c    **** }
 616              		.loc 1 127 0
 617 003e 0C37     		adds	r7, r7, #12
 618              		.cfi_def_cfa_offset 4
 619 0040 BD46     		mov	sp, r7
 620              		.cfi_def_cfa_register 13
 621              		@ sp needed
 622 0042 5DF8047B 		ldr	r7, [sp], #4
 623              		.cfi_restore 7
 624              		.cfi_def_cfa_offset 0
 625 0046 7047     		bx	lr
 626              		.cfi_endproc
 627              	.LFE72:
 628              		.size	initialise_wheel_data, .-initialise_wheel_data
 629              		.section	.text.update_inc,"ax",%progbits
 630              		.align	2
 631              		.global	update_inc
 632              		.thumb
 633              		.thumb_func
 634              		.type	update_inc, %function
 635              	update_inc:
 636              	.LFB73:
 128:movement.c    **** void update_inc( wheel_data *left, wheel_data *right, unsigned char *buffer){
 637              		.loc 1 128 0
 638              		.cfi_startproc
 639              		@ args = 0, pretend = 0, frame = 48
 640              		@ frame_needed = 1, uses_anonymous_args = 0
 641              		@ link register save eliminated.
 642 0000 80B4     		push	{r7}
 643              		.cfi_def_cfa_offset 4
 644              		.cfi_offset 7, -4
 645 0002 8DB0     		sub	sp, sp, #52
 646              		.cfi_def_cfa_offset 56
 647 0004 00AF     		add	r7, sp, #0
 648              		.cfi_def_cfa_register 7
 649 0006 F860     		str	r0, [r7, #12]
 650 0008 B960     		str	r1, [r7, #8]
 651 000a 7A60     		str	r2, [r7, #4]
 129:movement.c    ****     
 130:movement.c    ****     int int0 = (unsigned char) buffer[0] - 48;
 652              		.loc 1 130 0
 653 000c 7B68     		ldr	r3, [r7, #4]
 654 000e 1B78     		ldrb	r3, [r3]	@ zero_extendqisi2
 655 0010 303B     		subs	r3, r3, #48
 656 0012 FB62     		str	r3, [r7, #44]
 131:movement.c    ****     int int1 = (unsigned char) buffer[1] - 48;
 657              		.loc 1 131 0
 658 0014 7B68     		ldr	r3, [r7, #4]
 659 0016 0133     		adds	r3, r3, #1
 660 0018 1B78     		ldrb	r3, [r3]	@ zero_extendqisi2
 661 001a 303B     		subs	r3, r3, #48
 662 001c BB62     		str	r3, [r7, #40]
 132:movement.c    ****     int int2 = (unsigned char) buffer[2] - 48;
 663              		.loc 1 132 0
 664 001e 7B68     		ldr	r3, [r7, #4]
 665 0020 0233     		adds	r3, r3, #2
 666 0022 1B78     		ldrb	r3, [r3]	@ zero_extendqisi2
ARM GAS  C:\Users\tadge\AppData\Local\Temp\ccMSwaDg.s 			page 15


 667 0024 303B     		subs	r3, r3, #48
 668 0026 7B62     		str	r3, [r7, #36]
 133:movement.c    ****     int int3 = (unsigned char) buffer[3] - 48;
 669              		.loc 1 133 0
 670 0028 7B68     		ldr	r3, [r7, #4]
 671 002a 0333     		adds	r3, r3, #3
 672 002c 1B78     		ldrb	r3, [r3]	@ zero_extendqisi2
 673 002e 303B     		subs	r3, r3, #48
 674 0030 3B62     		str	r3, [r7, #32]
 134:movement.c    ****     int int4 = (unsigned char) buffer[4] - 48;
 675              		.loc 1 134 0
 676 0032 7B68     		ldr	r3, [r7, #4]
 677 0034 0433     		adds	r3, r3, #4
 678 0036 1B78     		ldrb	r3, [r3]	@ zero_extendqisi2
 679 0038 303B     		subs	r3, r3, #48
 680 003a FB61     		str	r3, [r7, #28]
 135:movement.c    ****     int int5 = (unsigned char) buffer[5] - 48;
 681              		.loc 1 135 0
 682 003c 7B68     		ldr	r3, [r7, #4]
 683 003e 0533     		adds	r3, r3, #5
 684 0040 1B78     		ldrb	r3, [r3]	@ zero_extendqisi2
 685 0042 303B     		subs	r3, r3, #48
 686 0044 BB61     		str	r3, [r7, #24]
 136:movement.c    ****     int int6 = (unsigned char) buffer[6] - 48;
 687              		.loc 1 136 0
 688 0046 7B68     		ldr	r3, [r7, #4]
 689 0048 0633     		adds	r3, r3, #6
 690 004a 1B78     		ldrb	r3, [r3]	@ zero_extendqisi2
 691 004c 303B     		subs	r3, r3, #48
 692 004e 7B61     		str	r3, [r7, #20]
 137:movement.c    ****     int int7 = (unsigned char) buffer[7] - 48;
 693              		.loc 1 137 0
 694 0050 7B68     		ldr	r3, [r7, #4]
 695 0052 0733     		adds	r3, r3, #7
 696 0054 1B78     		ldrb	r3, [r3]	@ zero_extendqisi2
 697 0056 303B     		subs	r3, r3, #48
 698 0058 3B61     		str	r3, [r7, #16]
 138:movement.c    ****     
 139:movement.c    ****     
 140:movement.c    ****     left->inc = int0*1000 + int1*100 + int2*10 + int3*1;
 699              		.loc 1 140 0
 700 005a FB6A     		ldr	r3, [r7, #44]
 701 005c 4FF47A72 		mov	r2, #1000
 702 0060 02FB03F2 		mul	r2, r2, r3
 703 0064 BB6A     		ldr	r3, [r7, #40]
 704 0066 6421     		movs	r1, #100
 705 0068 01FB03F3 		mul	r3, r1, r3
 706 006c D118     		adds	r1, r2, r3
 707 006e 7A6A     		ldr	r2, [r7, #36]
 708 0070 1346     		mov	r3, r2
 709 0072 9B00     		lsls	r3, r3, #2
 710 0074 1344     		add	r3, r3, r2
 711 0076 5B00     		lsls	r3, r3, #1
 712 0078 CA18     		adds	r2, r1, r3
 713 007a 3B6A     		ldr	r3, [r7, #32]
 714 007c 1A44     		add	r2, r2, r3
 715 007e FB68     		ldr	r3, [r7, #12]
ARM GAS  C:\Users\tadge\AppData\Local\Temp\ccMSwaDg.s 			page 16


 716 0080 9A61     		str	r2, [r3, #24]
 141:movement.c    ****     right->inc = int4*1000 + int5*100 + int6*10 + int7*1;
 717              		.loc 1 141 0
 718 0082 FB69     		ldr	r3, [r7, #28]
 719 0084 4FF47A72 		mov	r2, #1000
 720 0088 02FB03F2 		mul	r2, r2, r3
 721 008c BB69     		ldr	r3, [r7, #24]
 722 008e 6421     		movs	r1, #100
 723 0090 01FB03F3 		mul	r3, r1, r3
 724 0094 D118     		adds	r1, r2, r3
 725 0096 7A69     		ldr	r2, [r7, #20]
 726 0098 1346     		mov	r3, r2
 727 009a 9B00     		lsls	r3, r3, #2
 728 009c 1344     		add	r3, r3, r2
 729 009e 5B00     		lsls	r3, r3, #1
 730 00a0 CA18     		adds	r2, r1, r3
 731 00a2 3B69     		ldr	r3, [r7, #16]
 732 00a4 1A44     		add	r2, r2, r3
 733 00a6 BB68     		ldr	r3, [r7, #8]
 734 00a8 9A61     		str	r2, [r3, #24]
 142:movement.c    **** }
 735              		.loc 1 142 0
 736 00aa 3437     		adds	r7, r7, #52
 737              		.cfi_def_cfa_offset 4
 738 00ac BD46     		mov	sp, r7
 739              		.cfi_def_cfa_register 13
 740              		@ sp needed
 741 00ae 5DF8047B 		ldr	r7, [sp], #4
 742              		.cfi_restore 7
 743              		.cfi_def_cfa_offset 0
 744 00b2 7047     		bx	lr
 745              		.cfi_endproc
 746              	.LFE73:
 747              		.size	update_inc, .-update_inc
 748              		.text
 749              	.Letext0:
 750              		.file 2 "c:\\program files (x86)\\cypress\\psoc creator\\4.0\\psoc creator\\import\\gnu\\arm\\4.9.
 751              		.file 3 "c:\\program files (x86)\\cypress\\psoc creator\\4.0\\psoc creator\\import\\gnu\\arm\\4.9.
 752              		.file 4 "movement.h"
 753              		.file 5 "Generated_Source\\PSoC5/core_cm3.h"