ARM GAS  C:\Users\tadge\AppData\Local\Temp\ccMSwaDg.s 			page 1


   1              		.syntax unified
   2              		.cpu cortex-m3
   3              		.fpu softvfp
   4              		.eabi_attribute 20, 1
   5              		.eabi_attribute 21, 1
   6              		.eabi_attribute 23, 3
   7              		.eabi_attribute 24, 1
   8              		.eabi_attribute 25, 1
   9              		.eabi_attribute 26, 1
  10              		.eabi_attribute 30, 6
  11              		.eabi_attribute 34, 1
  12              		.eabi_attribute 18, 4
  13              		.thumb
  14              		.file	"movement.c"
  15              		.text
  16              	.Ltext0:
  17              		.cfi_sections	.debug_frame
  18              		.section	.text.turn_wheel,"ax",%progbits
  19              		.align	2
  20              		.global	turn_wheel
  21              		.thumb
  22              		.thumb_func
  23              		.type	turn_wheel, %function
  24              	turn_wheel:
  25              	.LFB68:
  26              		.file 1 "movement.c"
   1:movement.c    **** // include directives
   2:movement.c    **** 
   3:movement.c    **** // RIGHT WHEEL IS MOTOR 2 !!!!!!!!!!!!!!!!!!!!!!!!!!!!!!!!!!!!!!!!!!!!!!!!!!!!
   4:movement.c    **** // speed is a value between 0 and 65535
   5:movement.c    **** 
   6:movement.c    **** 
   7:movement.c    **** /* Standard includes */
   8:movement.c    **** #include "project.h"
   9:movement.c    **** #include <math.h>
  10:movement.c    **** #include <stdio.h>
  11:movement.c    **** #include <stdint.h>
  12:movement.c    **** #include <stdlib.h>
  13:movement.c    **** #include <time.h>
  14:movement.c    **** 
  15:movement.c    **** /* FreeRTOS includes */
  16:movement.c    **** #include "FreeRTOS.h"
  17:movement.c    **** #include "task.h"
  18:movement.c    **** #include "semphr.h"
  19:movement.c    **** #include "serial.h"
  20:movement.c    **** 
  21:movement.c    **** #include "movement.h"
  22:movement.c    **** 
  23:movement.c    **** 
  24:movement.c    **** 
  25:movement.c    **** /* initiate functions */
  26:movement.c    **** 
  27:movement.c    **** void turn_wheel(char side, int volt) {
  27              		.loc 1 27 0
  28              		.cfi_startproc
  29              		@ args = 0, pretend = 0, frame = 8
  30              		@ frame_needed = 1, uses_anonymous_args = 0
ARM GAS  C:\Users\tadge\AppData\Local\Temp\ccMSwaDg.s 			page 2


  31 0000 80B5     		push	{r7, lr}
  32              		.cfi_def_cfa_offset 8
  33              		.cfi_offset 7, -8
  34              		.cfi_offset 14, -4
  35 0002 82B0     		sub	sp, sp, #8
  36              		.cfi_def_cfa_offset 16
  37 0004 00AF     		add	r7, sp, #0
  38              		.cfi_def_cfa_register 7
  39 0006 0346     		mov	r3, r0
  40 0008 3960     		str	r1, [r7]
  41 000a FB71     		strb	r3, [r7, #7]
  28:movement.c    ****     // turning right wheel
  29:movement.c    ****     if (side == 'r'){
  42              		.loc 1 29 0
  43 000c FB79     		ldrb	r3, [r7, #7]	@ zero_extendqisi2
  44 000e 722B     		cmp	r3, #114
  45 0010 24D1     		bne	.L2
  30:movement.c    ****         Standby_Write(1);
  46              		.loc 1 30 0
  47 0012 0120     		movs	r0, #1
  48 0014 FFF7FEFF 		bl	Standby_Write
  31:movement.c    ****         PWM_M2_WriteCompare(abs(volt));
  49              		.loc 1 31 0
  50 0018 3B68     		ldr	r3, [r7]
  51 001a 002B     		cmp	r3, #0
  52 001c B8BF     		it	lt
  53 001e 5B42     		rsblt	r3, r3, #0
  54 0020 9BB2     		uxth	r3, r3
  55 0022 1846     		mov	r0, r3
  56 0024 FFF7FEFF 		bl	PWM_M2_WriteCompare
  32:movement.c    ****         
  33:movement.c    ****         if (volt > 0)
  57              		.loc 1 33 0
  58 0028 3B68     		ldr	r3, [r7]
  59 002a 002B     		cmp	r3, #0
  60 002c 06DD     		ble	.L3
  34:movement.c    ****         {
  35:movement.c    ****             M2_FWD_Write(0);
  61              		.loc 1 35 0
  62 002e 0020     		movs	r0, #0
  63 0030 FFF7FEFF 		bl	M2_FWD_Write
  36:movement.c    ****             M2_BWD_Write(1);
  64              		.loc 1 36 0
  65 0034 0120     		movs	r0, #1
  66 0036 FFF7FEFF 		bl	M2_BWD_Write
  67 003a 0FE0     		b	.L2
  68              	.L3:
  37:movement.c    ****         }
  38:movement.c    ****         else if (volt < 0)
  69              		.loc 1 38 0
  70 003c 3B68     		ldr	r3, [r7]
  71 003e 002B     		cmp	r3, #0
  72 0040 06DA     		bge	.L4
  39:movement.c    ****         {
  40:movement.c    ****             M2_FWD_Write(1);
  73              		.loc 1 40 0
  74 0042 0120     		movs	r0, #1
ARM GAS  C:\Users\tadge\AppData\Local\Temp\ccMSwaDg.s 			page 3


  75 0044 FFF7FEFF 		bl	M2_FWD_Write
  41:movement.c    ****             M2_BWD_Write(0);
  76              		.loc 1 41 0
  77 0048 0020     		movs	r0, #0
  78 004a FFF7FEFF 		bl	M2_BWD_Write
  79 004e 05E0     		b	.L2
  80              	.L4:
  42:movement.c    ****         }
  43:movement.c    ****         else
  44:movement.c    ****         {
  45:movement.c    ****             M2_FWD_Write(0);
  81              		.loc 1 45 0
  82 0050 0020     		movs	r0, #0
  83 0052 FFF7FEFF 		bl	M2_FWD_Write
  46:movement.c    ****             M2_BWD_Write(0);
  84              		.loc 1 46 0
  85 0056 0020     		movs	r0, #0
  86 0058 FFF7FEFF 		bl	M2_BWD_Write
  87              	.L2:
  47:movement.c    ****         }
  48:movement.c    ****     }
  49:movement.c    ****     
  50:movement.c    ****     //turning left wheel
  51:movement.c    ****     if (side == 'l'){
  88              		.loc 1 51 0
  89 005c FB79     		ldrb	r3, [r7, #7]	@ zero_extendqisi2
  90 005e 6C2B     		cmp	r3, #108
  91 0060 24D1     		bne	.L1
  52:movement.c    ****         Standby_Write(1);
  92              		.loc 1 52 0
  93 0062 0120     		movs	r0, #1
  94 0064 FFF7FEFF 		bl	Standby_Write
  53:movement.c    ****         PWM_M1_WriteCompare(abs(volt));
  95              		.loc 1 53 0
  96 0068 3B68     		ldr	r3, [r7]
  97 006a 002B     		cmp	r3, #0
  98 006c B8BF     		it	lt
  99 006e 5B42     		rsblt	r3, r3, #0
 100 0070 9BB2     		uxth	r3, r3
 101 0072 1846     		mov	r0, r3
 102 0074 FFF7FEFF 		bl	PWM_M1_WriteCompare
  54:movement.c    ****         
  55:movement.c    ****         if (volt > 0)
 103              		.loc 1 55 0
 104 0078 3B68     		ldr	r3, [r7]
 105 007a 002B     		cmp	r3, #0
 106 007c 06DD     		ble	.L6
  56:movement.c    ****         {
  57:movement.c    ****             M1_FWD_Write(0);
 107              		.loc 1 57 0
 108 007e 0020     		movs	r0, #0
 109 0080 FFF7FEFF 		bl	M1_FWD_Write
  58:movement.c    ****             M1_BWD_Write(1);
 110              		.loc 1 58 0
 111 0084 0120     		movs	r0, #1
 112 0086 FFF7FEFF 		bl	M1_BWD_Write
 113 008a 0FE0     		b	.L1
ARM GAS  C:\Users\tadge\AppData\Local\Temp\ccMSwaDg.s 			page 4


 114              	.L6:
  59:movement.c    ****         }
  60:movement.c    ****         else if (volt < 0)
 115              		.loc 1 60 0
 116 008c 3B68     		ldr	r3, [r7]
 117 008e 002B     		cmp	r3, #0
 118 0090 06DA     		bge	.L7
  61:movement.c    ****         {
  62:movement.c    ****             M1_FWD_Write(1);
 119              		.loc 1 62 0
 120 0092 0120     		movs	r0, #1
 121 0094 FFF7FEFF 		bl	M1_FWD_Write
  63:movement.c    ****             M1_BWD_Write(0);
 122              		.loc 1 63 0
 123 0098 0020     		movs	r0, #0
 124 009a FFF7FEFF 		bl	M1_BWD_Write
 125 009e 05E0     		b	.L1
 126              	.L7:
  64:movement.c    ****         }
  65:movement.c    ****         else
  66:movement.c    ****         {
  67:movement.c    ****             M1_FWD_Write(0);
 127              		.loc 1 67 0
 128 00a0 0020     		movs	r0, #0
 129 00a2 FFF7FEFF 		bl	M1_FWD_Write
  68:movement.c    ****             M1_BWD_Write(0);
 130              		.loc 1 68 0
 131 00a6 0020     		movs	r0, #0
 132 00a8 FFF7FEFF 		bl	M1_BWD_Write
 133              	.L1:
  69:movement.c    ****         }
  70:movement.c    ****     }
  71:movement.c    **** }
 134              		.loc 1 71 0
 135 00ac 0837     		adds	r7, r7, #8
 136              		.cfi_def_cfa_offset 8
 137 00ae BD46     		mov	sp, r7
 138              		.cfi_def_cfa_register 13
 139              		@ sp needed
 140 00b0 80BD     		pop	{r7, pc}
 141              		.cfi_endproc
 142              	.LFE68:
 143              		.size	turn_wheel, .-turn_wheel
 144 00b2 00BF     		.section	.text.mov_update_error,"ax",%progbits
 145              		.align	2
 146              		.global	mov_update_error
 147              		.thumb
 148              		.thumb_func
 149              		.type	mov_update_error, %function
 150              	mov_update_error:
 151              	.LFB69:
  72:movement.c    **** void mov_update_error(wheel_data *left, wheel_data *right) {
 152              		.loc 1 72 0
 153              		.cfi_startproc
 154              		@ args = 0, pretend = 0, frame = 8
 155              		@ frame_needed = 1, uses_anonymous_args = 0
 156 0000 90B5     		push	{r4, r7, lr}
ARM GAS  C:\Users\tadge\AppData\Local\Temp\ccMSwaDg.s 			page 5


 157              		.cfi_def_cfa_offset 12
 158              		.cfi_offset 4, -12
 159              		.cfi_offset 7, -8
 160              		.cfi_offset 14, -4
 161 0002 83B0     		sub	sp, sp, #12
 162              		.cfi_def_cfa_offset 24
 163 0004 00AF     		add	r7, sp, #0
 164              		.cfi_def_cfa_register 7
 165 0006 7860     		str	r0, [r7, #4]
 166 0008 3960     		str	r1, [r7]
  73:movement.c    ****     left->cur_dest = left->cur_dest + left->inc;
 167              		.loc 1 73 0
 168 000a 7B68     		ldr	r3, [r7, #4]
 169 000c 5A68     		ldr	r2, [r3, #4]
 170 000e 7B68     		ldr	r3, [r7, #4]
 171 0010 9B69     		ldr	r3, [r3, #24]
 172 0012 1A44     		add	r2, r2, r3
 173 0014 7B68     		ldr	r3, [r7, #4]
 174 0016 5A60     		str	r2, [r3, #4]
  74:movement.c    ****     right->cur_dest = right->cur_dest + right->inc;
 175              		.loc 1 74 0
 176 0018 3B68     		ldr	r3, [r7]
 177 001a 5A68     		ldr	r2, [r3, #4]
 178 001c 3B68     		ldr	r3, [r7]
 179 001e 9B69     		ldr	r3, [r3, #24]
 180 0020 1A44     		add	r2, r2, r3
 181 0022 3B68     		ldr	r3, [r7]
 182 0024 5A60     		str	r2, [r3, #4]
  75:movement.c    ****     
  76:movement.c    ****     left->time_prev = left->time;
 183              		.loc 1 76 0
 184 0026 7B68     		ldr	r3, [r7, #4]
 185 0028 DA69     		ldr	r2, [r3, #28]
 186 002a 7B68     		ldr	r3, [r7, #4]
 187 002c 1A62     		str	r2, [r3, #32]
  77:movement.c    ****     left->time = 357912 - Timer_1_ReadCounter() / 12000;
 188              		.loc 1 77 0
 189 002e FFF7FEFF 		bl	Timer_1_ReadCounter
 190 0032 0246     		mov	r2, r0
 191 0034 224B     		ldr	r3, .L9
 192 0036 A3FB0223 		umull	r2, r3, r3, r2
 193 003a 1B0A     		lsrs	r3, r3, #8
 194 003c C3F5AE23 		rsb	r3, r3, #356352
 195 0040 03F5C363 		add	r3, r3, #1560
 196 0044 7A68     		ldr	r2, [r7, #4]
 197 0046 D361     		str	r3, [r2, #28]
  78:movement.c    ****     
  79:movement.c    ****     right->time_prev = right->time;
 198              		.loc 1 79 0
 199 0048 3B68     		ldr	r3, [r7]
 200 004a DA69     		ldr	r2, [r3, #28]
 201 004c 3B68     		ldr	r3, [r7]
 202 004e 1A62     		str	r2, [r3, #32]
  80:movement.c    ****     right->time = 357912 - Timer_1_ReadCounter() / 12000;
 203              		.loc 1 80 0
 204 0050 FFF7FEFF 		bl	Timer_1_ReadCounter
 205 0054 0246     		mov	r2, r0
ARM GAS  C:\Users\tadge\AppData\Local\Temp\ccMSwaDg.s 			page 6


 206 0056 1A4B     		ldr	r3, .L9
 207 0058 A3FB0223 		umull	r2, r3, r3, r2
 208 005c 1B0A     		lsrs	r3, r3, #8
 209 005e C3F5AE23 		rsb	r3, r3, #356352
 210 0062 03F5C363 		add	r3, r3, #1560
 211 0066 3A68     		ldr	r2, [r7]
 212 0068 D361     		str	r3, [r2, #28]
  81:movement.c    ****     
  82:movement.c    ****     
  83:movement.c    ****     left->error_prev = left->error;
 213              		.loc 1 83 0
 214 006a 7B68     		ldr	r3, [r7, #4]
 215 006c DA68     		ldr	r2, [r3, #12]
 216 006e 7B68     		ldr	r3, [r7, #4]
 217 0070 9A60     		str	r2, [r3, #8]
  84:movement.c    ****     right->error_prev = right->error;
 218              		.loc 1 84 0
 219 0072 3B68     		ldr	r3, [r7]
 220 0074 DA68     		ldr	r2, [r3, #12]
 221 0076 3B68     		ldr	r3, [r7]
 222 0078 9A60     		str	r2, [r3, #8]
  85:movement.c    ****     
  86:movement.c    ****     left->error = left->cur_dest - (-64*M1QuadDec_GetCounter());
 223              		.loc 1 86 0
 224 007a 7B68     		ldr	r3, [r7, #4]
 225 007c 5C68     		ldr	r4, [r3, #4]
 226 007e FFF7FEFF 		bl	M1QuadDec_GetCounter
 227 0082 0346     		mov	r3, r0
 228 0084 9B01     		lsls	r3, r3, #6
 229 0086 E218     		adds	r2, r4, r3
 230 0088 7B68     		ldr	r3, [r7, #4]
 231 008a DA60     		str	r2, [r3, #12]
  87:movement.c    ****     right->error = right->cur_dest - (-64*M2QuadDec_GetCounter());
 232              		.loc 1 87 0
 233 008c 3B68     		ldr	r3, [r7]
 234 008e 5C68     		ldr	r4, [r3, #4]
 235 0090 FFF7FEFF 		bl	M2QuadDec_GetCounter
 236 0094 0346     		mov	r3, r0
 237 0096 9B01     		lsls	r3, r3, #6
 238 0098 E218     		adds	r2, r4, r3
 239 009a 3B68     		ldr	r3, [r7]
 240 009c DA60     		str	r2, [r3, #12]
  88:movement.c    ****     
  89:movement.c    ****     left->error_sum = left->error_sum + left->error;
 241              		.loc 1 89 0
 242 009e 7B68     		ldr	r3, [r7, #4]
 243 00a0 1A69     		ldr	r2, [r3, #16]
 244 00a2 7B68     		ldr	r3, [r7, #4]
 245 00a4 DB68     		ldr	r3, [r3, #12]
 246 00a6 1A44     		add	r2, r2, r3
 247 00a8 7B68     		ldr	r3, [r7, #4]
 248 00aa 1A61     		str	r2, [r3, #16]
  90:movement.c    ****     right->error_sum = right->error_sum + right->error;
 249              		.loc 1 90 0
 250 00ac 3B68     		ldr	r3, [r7]
 251 00ae 1A69     		ldr	r2, [r3, #16]
 252 00b0 3B68     		ldr	r3, [r7]
ARM GAS  C:\Users\tadge\AppData\Local\Temp\ccMSwaDg.s 			page 7


 253 00b2 DB68     		ldr	r3, [r3, #12]
 254 00b4 1A44     		add	r2, r2, r3
 255 00b6 3B68     		ldr	r3, [r7]
 256 00b8 1A61     		str	r2, [r3, #16]
  91:movement.c    **** 
  92:movement.c    **** }
 257              		.loc 1 92 0
 258 00ba 0C37     		adds	r7, r7, #12
 259              		.cfi_def_cfa_offset 12
 260 00bc BD46     		mov	sp, r7
 261              		.cfi_def_cfa_register 13
 262              		@ sp needed
 263 00be 90BD     		pop	{r4, r7, pc}
 264              	.L10:
 265              		.align	2
 266              	.L9:
 267 00c0 F1197605 		.word	91625969
 268              		.cfi_endproc
 269              	.LFE69:
 270              		.size	mov_update_error, .-mov_update_error
 271              		.global	__aeabi_i2d
 272              		.global	__aeabi_dmul
 273              		.global	__aeabi_dadd
 274              		.global	__aeabi_ui2d
 275              		.global	__aeabi_d2iz
 276              		.section	.text.mov_get_PID,"ax",%progbits
 277              		.align	2
 278              		.global	mov_get_PID
 279              		.thumb
 280              		.thumb_func
 281              		.type	mov_get_PID, %function
 282              	mov_get_PID:
 283              	.LFB70:
  93:movement.c    **** void mov_get_PID(wheel_data *left, wheel_data *right, PID_data *k) {
 284              		.loc 1 93 0
 285              		.cfi_startproc
 286              		@ args = 0, pretend = 0, frame = 24
 287              		@ frame_needed = 1, uses_anonymous_args = 0
 288 0000 2DE9B043 		push	{r4, r5, r7, r8, r9, lr}
 289              		.cfi_def_cfa_offset 24
 290              		.cfi_offset 4, -24
 291              		.cfi_offset 5, -20
 292              		.cfi_offset 7, -16
 293              		.cfi_offset 8, -12
 294              		.cfi_offset 9, -8
 295              		.cfi_offset 14, -4
 296 0004 86B0     		sub	sp, sp, #24
 297              		.cfi_def_cfa_offset 48
 298 0006 00AF     		add	r7, sp, #0
 299              		.cfi_def_cfa_register 7
 300 0008 F860     		str	r0, [r7, #12]
 301 000a B960     		str	r1, [r7, #8]
 302 000c 7A60     		str	r2, [r7, #4]
  94:movement.c    ****     int motor_voltage;
  95:movement.c    ****     motor_voltage =  ( k->Kp * left->error ) + ( k->Ki * left->error_sum ) + ( k->Kd * (left->error
 303              		.loc 1 95 0
 304 000e 7B68     		ldr	r3, [r7, #4]
ARM GAS  C:\Users\tadge\AppData\Local\Temp\ccMSwaDg.s 			page 8


 305 0010 D3E90245 		ldrd	r4, [r3, #8]
 306 0014 FB68     		ldr	r3, [r7, #12]
 307 0016 DB68     		ldr	r3, [r3, #12]
 308 0018 1846     		mov	r0, r3
 309 001a FFF7FEFF 		bl	__aeabi_i2d
 310 001e 0246     		mov	r2, r0
 311 0020 0B46     		mov	r3, r1
 312 0022 2046     		mov	r0, r4
 313 0024 2946     		mov	r1, r5
 314 0026 FFF7FEFF 		bl	__aeabi_dmul
 315 002a 0246     		mov	r2, r0
 316 002c 0B46     		mov	r3, r1
 317 002e 9046     		mov	r8, r2
 318 0030 9946     		mov	r9, r3
 319 0032 7B68     		ldr	r3, [r7, #4]
 320 0034 D3E90045 		ldrd	r4, [r3]
 321 0038 FB68     		ldr	r3, [r7, #12]
 322 003a 1B69     		ldr	r3, [r3, #16]
 323 003c 1846     		mov	r0, r3
 324 003e FFF7FEFF 		bl	__aeabi_i2d
 325 0042 0246     		mov	r2, r0
 326 0044 0B46     		mov	r3, r1
 327 0046 2046     		mov	r0, r4
 328 0048 2946     		mov	r1, r5
 329 004a FFF7FEFF 		bl	__aeabi_dmul
 330 004e 0246     		mov	r2, r0
 331 0050 0B46     		mov	r3, r1
 332 0052 4046     		mov	r0, r8
 333 0054 4946     		mov	r1, r9
 334 0056 FFF7FEFF 		bl	__aeabi_dadd
 335 005a 0246     		mov	r2, r0
 336 005c 0B46     		mov	r3, r1
 337 005e 9046     		mov	r8, r2
 338 0060 9946     		mov	r9, r3
 339 0062 7B68     		ldr	r3, [r7, #4]
 340 0064 D3E90445 		ldrd	r4, [r3, #16]
 341 0068 FB68     		ldr	r3, [r7, #12]
 342 006a DA68     		ldr	r2, [r3, #12]
 343 006c FB68     		ldr	r3, [r7, #12]
 344 006e 9B68     		ldr	r3, [r3, #8]
 345 0070 D31A     		subs	r3, r2, r3
 346 0072 1846     		mov	r0, r3
 347 0074 FFF7FEFF 		bl	__aeabi_i2d
 348 0078 0246     		mov	r2, r0
 349 007a 0B46     		mov	r3, r1
 350 007c 2046     		mov	r0, r4
 351 007e 2946     		mov	r1, r5
 352 0080 FFF7FEFF 		bl	__aeabi_dmul
 353 0084 0246     		mov	r2, r0
 354 0086 0B46     		mov	r3, r1
 355 0088 1446     		mov	r4, r2
 356 008a 1D46     		mov	r5, r3
 357 008c FB68     		ldr	r3, [r7, #12]
 358 008e DA69     		ldr	r2, [r3, #28]
 359 0090 FB68     		ldr	r3, [r7, #12]
 360 0092 1B6A     		ldr	r3, [r3, #32]
 361 0094 D31A     		subs	r3, r2, r3
ARM GAS  C:\Users\tadge\AppData\Local\Temp\ccMSwaDg.s 			page 9


 362 0096 1846     		mov	r0, r3
 363 0098 FFF7FEFF 		bl	__aeabi_ui2d
 364 009c 0246     		mov	r2, r0
 365 009e 0B46     		mov	r3, r1
 366 00a0 2046     		mov	r0, r4
 367 00a2 2946     		mov	r1, r5
 368 00a4 FFF7FEFF 		bl	__aeabi_dmul
 369 00a8 0246     		mov	r2, r0
 370 00aa 0B46     		mov	r3, r1
 371 00ac 4046     		mov	r0, r8
 372 00ae 4946     		mov	r1, r9
 373 00b0 FFF7FEFF 		bl	__aeabi_dadd
 374 00b4 0246     		mov	r2, r0
 375 00b6 0B46     		mov	r3, r1
 376 00b8 1046     		mov	r0, r2
 377 00ba 1946     		mov	r1, r3
 378 00bc FFF7FEFF 		bl	__aeabi_d2iz
 379 00c0 0346     		mov	r3, r0
 380 00c2 7B61     		str	r3, [r7, #20]
  96:movement.c    **** 
  97:movement.c    ****     if (motor_voltage < -65535){
 381              		.loc 1 97 0
 382 00c4 7B69     		ldr	r3, [r7, #20]
 383 00c6 13F5803F 		cmn	r3, #65536
 384 00ca 02DC     		bgt	.L12
  98:movement.c    ****         motor_voltage = -65535;}
 385              		.loc 1 98 0
 386 00cc 3E4B     		ldr	r3, .L16
 387 00ce 7B61     		str	r3, [r7, #20]
 388 00d0 06E0     		b	.L13
 389              	.L12:
  99:movement.c    ****     else if (motor_voltage > 65535){
 390              		.loc 1 99 0
 391 00d2 7B69     		ldr	r3, [r7, #20]
 392 00d4 B3F5803F 		cmp	r3, #65536
 393 00d8 02DB     		blt	.L13
 100:movement.c    ****         motor_voltage = 65535;}
 394              		.loc 1 100 0
 395 00da 4FF6FF73 		movw	r3, #65535
 396 00de 7B61     		str	r3, [r7, #20]
 397              	.L13:
 101:movement.c    ****     
 102:movement.c    ****     left->motor_volt = motor_voltage;
 398              		.loc 1 102 0
 399 00e0 FB68     		ldr	r3, [r7, #12]
 400 00e2 7A69     		ldr	r2, [r7, #20]
 401 00e4 5A61     		str	r2, [r3, #20]
 103:movement.c    ****         
 104:movement.c    ****     motor_voltage =  ( k->Kp * right->error ) + ( k->Ki * right->error_sum ) + ( k->Kd * (right->er
 402              		.loc 1 104 0
 403 00e6 7B68     		ldr	r3, [r7, #4]
 404 00e8 D3E90245 		ldrd	r4, [r3, #8]
 405 00ec BB68     		ldr	r3, [r7, #8]
 406 00ee DB68     		ldr	r3, [r3, #12]
 407 00f0 1846     		mov	r0, r3
 408 00f2 FFF7FEFF 		bl	__aeabi_i2d
 409 00f6 0246     		mov	r2, r0
ARM GAS  C:\Users\tadge\AppData\Local\Temp\ccMSwaDg.s 			page 10


 410 00f8 0B46     		mov	r3, r1
 411 00fa 2046     		mov	r0, r4
 412 00fc 2946     		mov	r1, r5
 413 00fe FFF7FEFF 		bl	__aeabi_dmul
 414 0102 0246     		mov	r2, r0
 415 0104 0B46     		mov	r3, r1
 416 0106 9046     		mov	r8, r2
 417 0108 9946     		mov	r9, r3
 418 010a 7B68     		ldr	r3, [r7, #4]
 419 010c D3E90045 		ldrd	r4, [r3]
 420 0110 BB68     		ldr	r3, [r7, #8]
 421 0112 1B69     		ldr	r3, [r3, #16]
 422 0114 1846     		mov	r0, r3
 423 0116 FFF7FEFF 		bl	__aeabi_i2d
 424 011a 0246     		mov	r2, r0
 425 011c 0B46     		mov	r3, r1
 426 011e 2046     		mov	r0, r4
 427 0120 2946     		mov	r1, r5
 428 0122 FFF7FEFF 		bl	__aeabi_dmul
 429 0126 0246     		mov	r2, r0
 430 0128 0B46     		mov	r3, r1
 431 012a 4046     		mov	r0, r8
 432 012c 4946     		mov	r1, r9
 433 012e FFF7FEFF 		bl	__aeabi_dadd
 434 0132 0246     		mov	r2, r0
 435 0134 0B46     		mov	r3, r1
 436 0136 9046     		mov	r8, r2
 437 0138 9946     		mov	r9, r3
 438 013a 7B68     		ldr	r3, [r7, #4]
 439 013c D3E90445 		ldrd	r4, [r3, #16]
 440 0140 BB68     		ldr	r3, [r7, #8]
 441 0142 DA68     		ldr	r2, [r3, #12]
 442 0144 BB68     		ldr	r3, [r7, #8]
 443 0146 9B68     		ldr	r3, [r3, #8]
 444 0148 D31A     		subs	r3, r2, r3
 445 014a 1846     		mov	r0, r3
 446 014c FFF7FEFF 		bl	__aeabi_i2d
 447 0150 0246     		mov	r2, r0
 448 0152 0B46     		mov	r3, r1
 449 0154 2046     		mov	r0, r4
 450 0156 2946     		mov	r1, r5
 451 0158 FFF7FEFF 		bl	__aeabi_dmul
 452 015c 0246     		mov	r2, r0
 453 015e 0B46     		mov	r3, r1
 454 0160 1446     		mov	r4, r2
 455 0162 1D46     		mov	r5, r3
 456 0164 BB68     		ldr	r3, [r7, #8]
 457 0166 DA69     		ldr	r2, [r3, #28]
 458 0168 BB68     		ldr	r3, [r7, #8]
 459 016a 1B6A     		ldr	r3, [r3, #32]
 460 016c D31A     		subs	r3, r2, r3
 461 016e 1846     		mov	r0, r3
 462 0170 FFF7FEFF 		bl	__aeabi_ui2d
 463 0174 0246     		mov	r2, r0
 464 0176 0B46     		mov	r3, r1
 465 0178 2046     		mov	r0, r4
 466 017a 2946     		mov	r1, r5
ARM GAS  C:\Users\tadge\AppData\Local\Temp\ccMSwaDg.s 			page 11


 467 017c FFF7FEFF 		bl	__aeabi_dmul
 468 0180 0246     		mov	r2, r0
 469 0182 0B46     		mov	r3, r1
 470 0184 4046     		mov	r0, r8
 471 0186 4946     		mov	r1, r9
 472 0188 FFF7FEFF 		bl	__aeabi_dadd
 473 018c 0246     		mov	r2, r0
 474 018e 0B46     		mov	r3, r1
 475 0190 1046     		mov	r0, r2
 476 0192 1946     		mov	r1, r3
 477 0194 FFF7FEFF 		bl	__aeabi_d2iz
 478 0198 0346     		mov	r3, r0
 479 019a 7B61     		str	r3, [r7, #20]
 105:movement.c    **** 
 106:movement.c    ****     if (motor_voltage < -65535){
 480              		.loc 1 106 0
 481 019c 7B69     		ldr	r3, [r7, #20]
 482 019e 13F5803F 		cmn	r3, #65536
 483 01a2 02DC     		bgt	.L14
 107:movement.c    ****         motor_voltage = -65535;}
 484              		.loc 1 107 0
 485 01a4 084B     		ldr	r3, .L16
 486 01a6 7B61     		str	r3, [r7, #20]
 487 01a8 06E0     		b	.L15
 488              	.L14:
 108:movement.c    ****     else if (motor_voltage > 65535){
 489              		.loc 1 108 0
 490 01aa 7B69     		ldr	r3, [r7, #20]
 491 01ac B3F5803F 		cmp	r3, #65536
 492 01b0 02DB     		blt	.L15
 109:movement.c    ****         motor_voltage = 65535;}
 493              		.loc 1 109 0
 494 01b2 4FF6FF73 		movw	r3, #65535
 495 01b6 7B61     		str	r3, [r7, #20]
 496              	.L15:
 110:movement.c    ****     
 111:movement.c    ****     right->motor_volt = motor_voltage;
 497              		.loc 1 111 0
 498 01b8 BB68     		ldr	r3, [r7, #8]
 499 01ba 7A69     		ldr	r2, [r7, #20]
 500 01bc 5A61     		str	r2, [r3, #20]
 112:movement.c    **** }    
 501              		.loc 1 112 0
 502 01be 1837     		adds	r7, r7, #24
 503              		.cfi_def_cfa_offset 24
 504 01c0 BD46     		mov	sp, r7
 505              		.cfi_def_cfa_register 13
 506              		@ sp needed
 507 01c2 BDE8B083 		pop	{r4, r5, r7, r8, r9, pc}
 508              	.L17:
 509 01c6 00BF     		.align	2
 510              	.L16:
 511 01c8 0100FFFF 		.word	-65535
 512              		.cfi_endproc
 513              	.LFE70:
 514              		.size	mov_get_PID, .-mov_get_PID
 515              		.section	.text.mov_Adj_Volt,"ax",%progbits
ARM GAS  C:\Users\tadge\AppData\Local\Temp\ccMSwaDg.s 			page 12


 516              		.align	2
 517              		.global	mov_Adj_Volt
 518              		.thumb
 519              		.thumb_func
 520              		.type	mov_Adj_Volt, %function
 521              	mov_Adj_Volt:
 522              	.LFB71:
 113:movement.c    **** void mov_Adj_Volt(wheel_data *left, wheel_data *right) {
 523              		.loc 1 113 0
 524              		.cfi_startproc
 525              		@ args = 0, pretend = 0, frame = 8
 526              		@ frame_needed = 1, uses_anonymous_args = 0
 527 0000 80B5     		push	{r7, lr}
 528              		.cfi_def_cfa_offset 8
 529              		.cfi_offset 7, -8
 530              		.cfi_offset 14, -4
 531 0002 82B0     		sub	sp, sp, #8
 532              		.cfi_def_cfa_offset 16
 533 0004 00AF     		add	r7, sp, #0
 534              		.cfi_def_cfa_register 7
 535 0006 7860     		str	r0, [r7, #4]
 536 0008 3960     		str	r1, [r7]
 114:movement.c    ****     turn_wheel('l', left->motor_volt);
 537              		.loc 1 114 0
 538 000a 7B68     		ldr	r3, [r7, #4]
 539 000c 5B69     		ldr	r3, [r3, #20]
 540 000e 6C20     		movs	r0, #108
 541 0010 1946     		mov	r1, r3
 542 0012 FFF7FEFF 		bl	turn_wheel
 115:movement.c    ****     turn_wheel('r', right->motor_volt);
 543              		.loc 1 115 0
 544 0016 3B68     		ldr	r3, [r7]
 545 0018 5B69     		ldr	r3, [r3, #20]
 546 001a 7220     		movs	r0, #114
 547 001c 1946     		mov	r1, r3
 548 001e FFF7FEFF 		bl	turn_wheel
 116:movement.c    **** }
 549              		.loc 1 116 0
 550 0022 0837     		adds	r7, r7, #8
 551              		.cfi_def_cfa_offset 8
 552 0024 BD46     		mov	sp, r7
 553              		.cfi_def_cfa_register 13
 554              		@ sp needed
 555 0026 80BD     		pop	{r7, pc}
 556              		.cfi_endproc
 557              	.LFE71:
 558              		.size	mov_Adj_Volt, .-mov_Adj_Volt
 559              		.section	.text.initialise_wheel_data,"ax",%progbits
 560              		.align	2
 561              		.global	initialise_wheel_data
 562              		.thumb
 563              		.thumb_func
 564              		.type	initialise_wheel_data, %function
 565              	initialise_wheel_data:
 566              	.LFB72:
 117:movement.c    **** void initialise_wheel_data(wheel_data *w){
 567              		.loc 1 117 0
ARM GAS  C:\Users\tadge\AppData\Local\Temp\ccMSwaDg.s 			page 13


 568              		.cfi_startproc
 569              		@ args = 0, pretend = 0, frame = 8
 570              		@ frame_needed = 1, uses_anonymous_args = 0
 571              		@ link register save eliminated.
 572 0000 80B4     		push	{r7}
 573              		.cfi_def_cfa_offset 4
 574              		.cfi_offset 7, -4
 575 0002 83B0     		sub	sp, sp, #12
 576              		.cfi_def_cfa_offset 16
 577 0004 00AF     		add	r7, sp, #0
 578              		.cfi_def_cfa_register 7
 579 0006 7860     		str	r0, [r7, #4]
 118:movement.c    ****     w->cur_dest = 0;
 580              		.loc 1 118 0
 581 0008 7B68     		ldr	r3, [r7, #4]
 582 000a 0022     		movs	r2, #0
 583 000c 5A60     		str	r2, [r3, #4]
 119:movement.c    ****     w->error = 0;
 584              		.loc 1 119 0
 585 000e 7B68     		ldr	r3, [r7, #4]
 586 0010 0022     		movs	r2, #0
 587 0012 DA60     		str	r2, [r3, #12]
 120:movement.c    ****     w->error_prev = 0;
 588              		.loc 1 120 0
 589 0014 7B68     		ldr	r3, [r7, #4]
 590 0016 0022     		movs	r2, #0
 591 0018 9A60     		str	r2, [r3, #8]
 121:movement.c    ****     w->error_sum = 0;
 592              		.loc 1 121 0
 593 001a 7B68     		ldr	r3, [r7, #4]
 594 001c 0022     		movs	r2, #0
 595 001e 1A61     		str	r2, [r3, #16]
 122:movement.c    ****     w->inc = 0;
 596              		.loc 1 122 0
 597 0020 7B68     		ldr	r3, [r7, #4]
 598 0022 0022     		movs	r2, #0
 599 0024 9A61     		str	r2, [r3, #24]
 123:movement.c    ****     w->motor_volt = 0;
 600              		.loc 1 123 0
 601 0026 7B68     		ldr	r3, [r7, #4]
 602 0028 0022     		movs	r2, #0
 603 002a 5A61     		str	r2, [r3, #20]
 124:movement.c    ****     w->prev_dest = 0;
 604              		.loc 1 124 0
 605 002c 7B68     		ldr	r3, [r7, #4]
 606 002e 0022     		movs	r2, #0
 607 0030 1A60     		str	r2, [r3]
 125:movement.c    ****     w->time_prev = 0;
 608              		.loc 1 125 0
 609 0032 7B68     		ldr	r3, [r7, #4]
 610 0034 0022     		movs	r2, #0
 611 0036 1A62     		str	r2, [r3, #32]
 126:movement.c    ****     w->time = 0;
 612              		.loc 1 126 0
 613 0038 7B68     		ldr	r3, [r7, #4]
 614 003a 0022     		movs	r2, #0
 615 003c DA61     		str	r2, [r3, #28]
ARM GAS  C:\Users\tadge\AppData\Local\Temp\ccMSwaDg.s 			page 14


 127:movement.c    **** }
 616              		.loc 1 127 0
 617 003e 0C37     		adds	r7, r7, #12
 618              		.cfi_def_cfa_offset 4
 619 0040 BD46     		mov	sp, r7
 620              		.cfi_def_cfa_register 13
 621              		@ sp needed
 622 0042 5DF8047B 		ldr	r7, [sp], #4
 623              		.cfi_restore 7
 624              		.cfi_def_cfa_offset 0
 625 0046 7047     		bx	lr
 626              		.cfi_endproc
 627              	.LFE72:
 628              		.size	initialise_wheel_data, .-initialise_wheel_data
 629              		.section	.text.update_inc,"ax",%progbits
 630              		.align	2
 631              		.global	update_inc
 632              		.thumb
 633              		.thumb_func
 634              		.type	update_inc, %function
 635              	update_inc:
 636              	.LFB73:
 128:movement.c    **** void update_inc( wheel_data *left, wheel_data *right, unsigned char *buffer){
 637              		.loc 1 128 0
 638              		.cfi_startproc
 639              		@ args = 0, pretend = 0, frame = 48
 640              		@ frame_needed = 1, uses_anonymous_args = 0
 641              		@ link register save eliminated.
 642 0000 80B4     		push	{r7}
 643              		.cfi_def_cfa_offset 4
 644              		.cfi_offset 7, -4
 645 0002 8DB0     		sub	sp, sp, #52
 646              		.cfi_def_cfa_offset 56
 647 0004 00AF     		add	r7, sp, #0
 648              		.cfi_def_cfa_register 7
 649 0006 F860     		str	r0, [r7, #12]
 650 0008 B960     		str	r1, [r7, #8]
 651 000a 7A60     		str	r2, [r7, #4]
 129:movement.c    ****     
 130:movement.c    ****     int int0 = (unsigned char) buffer[0] - 48;
 652              		.loc 1 130 0
 653 000c 7B68     		ldr	r3, [r7, #4]
 654 000e 1B78     		ldrb	r3, [r3]	@ zero_extendqisi2
 655 0010 303B     		subs	r3, r3, #48
 656 0012 FB62     		str	r3, [r7, #44]
 131:movement.c    ****     int int1 = (unsigned char) buffer[1] - 48;
 657              		.loc 1 131 0
 658 0014 7B68     		ldr	r3, [r7, #4]
 659 0016 0133     		adds	r3, r3, #1
 660 0018 1B78     		ldrb	r3, [r3]	@ zero_extendqisi2
 661 001a 303B     		subs	r3, r3, #48
 662 001c BB62     		str	r3, [r7, #40]
 132:movement.c    ****     int int2 = (unsigned char) buffer[2] - 48;
 663              		.loc 1 132 0
 664 001e 7B68     		ldr	r3, [r7, #4]
 665 0020 0233     		adds	r3, r3, #2
 666 0022 1B78     		ldrb	r3, [r3]	@ zero_extendqisi2
ARM GAS  C:\Users\tadge\AppData\Local\Temp\ccMSwaDg.s 			page 15


 667 0024 303B     		subs	r3, r3, #48
 668 0026 7B62     		str	r3, [r7, #36]
 133:movement.c    ****     int int3 = (unsigned char) buffer[3] - 48;
 669              		.loc 1 133 0
 670 0028 7B68     		ldr	r3, [r7, #4]
 671 002a 0333     		adds	r3, r3, #3
 672 002c 1B78     		ldrb	r3, [r3]	@ zero_extendqisi2
 673 002e 303B     		subs	r3, r3, #48
 674 0030 3B62     		str	r3, [r7, #32]
 134:movement.c    ****     int int4 = (unsigned char) buffer[4] - 48;
 675              		.loc 1 134 0
 676 0032 7B68     		ldr	r3, [r7, #4]
 677 0034 0433     		adds	r3, r3, #4
 678 0036 1B78     		ldrb	r3, [r3]	@ zero_extendqisi2
 679 0038 303B     		subs	r3, r3, #48
 680 003a FB61     		str	r3, [r7, #28]
 135:movement.c    ****     int int5 = (unsigned char) buffer[5] - 48;
 681              		.loc 1 135 0
 682 003c 7B68     		ldr	r3, [r7, #4]
 683 003e 0533     		adds	r3, r3, #5
 684 0040 1B78     		ldrb	r3, [r3]	@ zero_extendqisi2
 685 0042 303B     		subs	r3, r3, #48
 686 0044 BB61     		str	r3, [r7, #24]
 136:movement.c    ****     int int6 = (unsigned char) buffer[6] - 48;
 687              		.loc 1 136 0
 688 0046 7B68     		ldr	r3, [r7, #4]
 689 0048 0633     		adds	r3, r3, #6
 690 004a 1B78     		ldrb	r3, [r3]	@ zero_extendqisi2
 691 004c 303B     		subs	r3, r3, #48
 692 004e 7B61     		str	r3, [r7, #20]
 137:movement.c    ****     int int7 = (unsigned char) buffer[7] - 48;
 693              		.loc 1 137 0
 694 0050 7B68     		ldr	r3, [r7, #4]
 695 0052 0733     		adds	r3, r3, #7
 696 0054 1B78     		ldrb	r3, [r3]	@ zero_extendqisi2
 697 0056 303B     		subs	r3, r3, #48
 698 0058 3B61     		str	r3, [r7, #16]
 138:movement.c    ****     
 139:movement.c    ****     
 140:movement.c    ****     left->inc = int0*1000 + int1*100 + int2*10 + int3*1;
 699              		.loc 1 140 0
 700 005a FB6A     		ldr	r3, [r7, #44]
 701 005c 4FF47A72 		mov	r2, #1000
 702 0060 02FB03F2 		mul	r2, r2, r3
 703 0064 BB6A     		ldr	r3, [r7, #40]
 704 0066 6421     		movs	r1, #100
 705 0068 01FB03F3 		mul	r3, r1, r3
 706 006c D118     		adds	r1, r2, r3
 707 006e 7A6A     		ldr	r2, [r7, #36]
 708 0070 1346     		mov	r3, r2
 709 0072 9B00     		lsls	r3, r3, #2
 710 0074 1344     		add	r3, r3, r2
 711 0076 5B00     		lsls	r3, r3, #1
 712 0078 CA18     		adds	r2, r1, r3
 713 007a 3B6A     		ldr	r3, [r7, #32]
 714 007c 1A44     		add	r2, r2, r3
 715 007e FB68     		ldr	r3, [r7, #12]
ARM GAS  C:\Users\tadge\AppData\Local\Temp\ccMSwaDg.s 			page 16


 716 0080 9A61     		str	r2, [r3, #24]
 141:movement.c    ****     right->inc = int4*1000 + int5*100 + int6*10 + int7*1;
 717              		.loc 1 141 0
 718 0082 FB69     		ldr	r3, [r7, #28]
 719 0084 4FF47A72 		mov	r2, #1000
 720 0088 02FB03F2 		mul	r2, r2, r3
 721 008c BB69     		ldr	r3, [r7, #24]
 722 008e 6421     		movs	r1, #100
 723 0090 01FB03F3 		mul	r3, r1, r3
 724 0094 D118     		adds	r1, r2, r3
 725 0096 7A69     		ldr	r2, [r7, #20]
 726 0098 1346     		mov	r3, r2
 727 009a 9B00     		lsls	r3, r3, #2
 728 009c 1344     		add	r3, r3, r2
 729 009e 5B00     		lsls	r3, r3, #1
 730 00a0 CA18     		adds	r2, r1, r3
 731 00a2 3B69     		ldr	r3, [r7, #16]
 732 00a4 1A44     		add	r2, r2, r3
 733 00a6 BB68     		ldr	r3, [r7, #8]
 734 00a8 9A61     		str	r2, [r3, #24]
 142:movement.c    **** }
 735              		.loc 1 142 0
 736 00aa 3437     		adds	r7, r7, #52
 737              		.cfi_def_cfa_offset 4
 738 00ac BD46     		mov	sp, r7
 739              		.cfi_def_cfa_register 13
 740              		@ sp needed
 741 00ae 5DF8047B 		ldr	r7, [sp], #4
 742              		.cfi_restore 7
 743              		.cfi_def_cfa_offset 0
 744 00b2 7047     		bx	lr
 745              		.cfi_endproc
 746              	.LFE73:
 747              		.size	update_inc, .-update_inc
 748              		.text
 749              	.Letext0:
 750              		.file 2 "c:\\program files (x86)\\cypress\\psoc creator\\4.0\\psoc creator\\import\\gnu\\arm\\4.9.
 751              		.file 3 "c:\\program files (x86)\\cypress\\psoc creator\\4.0\\psoc creator\\import\\gnu\\arm\\4.9.
 752              		.file 4 "movement.h"
 753              		.file 5 "Generated_Source\\PSoC5/core_cm3.h"
 754              		.section	.debug_info,"",%progbits
 755              	.Ldebug_info0:
 756 0000 43030000 		.4byte	0x343
 757 0004 0400     		.2byte	0x4
 758 0006 00000000 		.4byte	.Ldebug_abbrev0
 759 000a 04       		.byte	0x4
 760 000b 01       		.uleb128 0x1
 761 000c 31000000 		.4byte	.LASF48
 762 0010 01       		.byte	0x1
 763 0011 2B020000 		.4byte	.LASF49
 764 0015 19010000 		.4byte	.LASF50
 765 0019 00000000 		.4byte	.Ldebug_ranges0+0
 766 001d 00000000 		.4byte	0
 767 0021 00000000 		.4byte	.Ldebug_line0
 768 0025 02       		.uleb128 0x2
 769 0026 01       		.byte	0x1
 770 0027 06       		.byte	0x6
ARM GAS  C:\Users\tadge\AppData\Local\Temp\ccMSwaDg.s 			page 17


 771 0028 E5000000 		.4byte	.LASF0
 772 002c 02       		.uleb128 0x2
 773 002d 01       		.byte	0x1
 774 002e 08       		.byte	0x8
 775 002f F1000000 		.4byte	.LASF1
 776 0033 02       		.uleb128 0x2
 777 0034 02       		.byte	0x2
 778 0035 05       		.byte	0x5
 779 0036 74020000 		.4byte	.LASF2
 780 003a 02       		.uleb128 0x2
 781 003b 02       		.byte	0x2
 782 003c 07       		.byte	0x7
 783 003d D8020000 		.4byte	.LASF3
 784 0041 03       		.uleb128 0x3
 785 0042 18000000 		.4byte	.LASF5
 786 0046 02       		.byte	0x2
 787 0047 3F       		.byte	0x3f
 788 0048 4C000000 		.4byte	0x4c
 789 004c 02       		.uleb128 0x2
 790 004d 04       		.byte	0x4
 791 004e 05       		.byte	0x5
 792 004f AE020000 		.4byte	.LASF4
 793 0053 03       		.uleb128 0x3
 794 0054 FF000000 		.4byte	.LASF6
 795 0058 02       		.byte	0x2
 796 0059 41       		.byte	0x41
 797 005a 5E000000 		.4byte	0x5e
 798 005e 02       		.uleb128 0x2
 799 005f 04       		.byte	0x4
 800 0060 07       		.byte	0x7
 801 0061 C9010000 		.4byte	.LASF7
 802 0065 02       		.uleb128 0x2
 803 0066 08       		.byte	0x8
 804 0067 05       		.byte	0x5
 805 0068 52020000 		.4byte	.LASF8
 806 006c 02       		.uleb128 0x2
 807 006d 08       		.byte	0x8
 808 006e 07       		.byte	0x7
 809 006f E8010000 		.4byte	.LASF9
 810 0073 04       		.uleb128 0x4
 811 0074 04       		.byte	0x4
 812 0075 05       		.byte	0x5
 813 0076 696E7400 		.ascii	"int\000"
 814 007a 02       		.uleb128 0x2
 815 007b 04       		.byte	0x4
 816 007c 07       		.byte	0x7
 817 007d DB010000 		.4byte	.LASF10
 818 0081 03       		.uleb128 0x3
 819 0082 36020000 		.4byte	.LASF11
 820 0086 03       		.byte	0x3
 821 0087 2C       		.byte	0x2c
 822 0088 41000000 		.4byte	0x41
 823 008c 03       		.uleb128 0x3
 824 008d A5020000 		.4byte	.LASF12
 825 0091 03       		.byte	0x3
 826 0092 2D       		.byte	0x2d
 827 0093 53000000 		.4byte	0x53
ARM GAS  C:\Users\tadge\AppData\Local\Temp\ccMSwaDg.s 			page 18


 828 0097 02       		.uleb128 0x2
 829 0098 04       		.byte	0x4
 830 0099 04       		.byte	0x4
 831 009a DF000000 		.4byte	.LASF13
 832 009e 02       		.uleb128 0x2
 833 009f 08       		.byte	0x8
 834 00a0 04       		.byte	0x4
 835 00a1 D1020000 		.4byte	.LASF14
 836 00a5 02       		.uleb128 0x2
 837 00a6 01       		.byte	0x1
 838 00a7 08       		.byte	0x8
 839 00a8 6A020000 		.4byte	.LASF15
 840 00ac 02       		.uleb128 0x2
 841 00ad 04       		.byte	0x4
 842 00ae 07       		.byte	0x7
 843 00af 3E020000 		.4byte	.LASF16
 844 00b3 05       		.uleb128 0x5
 845 00b4 04       		.byte	0x4
 846 00b5 2C000000 		.4byte	0x2c
 847 00b9 02       		.uleb128 0x2
 848 00ba 08       		.byte	0x8
 849 00bb 04       		.byte	0x4
 850 00bc B7020000 		.4byte	.LASF17
 851 00c0 06       		.uleb128 0x6
 852 00c1 24       		.byte	0x24
 853 00c2 04       		.byte	0x4
 854 00c3 03       		.byte	0x3
 855 00c4 35010000 		.4byte	0x135
 856 00c8 07       		.uleb128 0x7
 857 00c9 90020000 		.4byte	.LASF18
 858 00cd 04       		.byte	0x4
 859 00ce 04       		.byte	0x4
 860 00cf 4C000000 		.4byte	0x4c
 861 00d3 00       		.byte	0
 862 00d4 07       		.uleb128 0x7
 863 00d5 BF000000 		.4byte	.LASF19
 864 00d9 04       		.byte	0x4
 865 00da 05       		.byte	0x5
 866 00db 4C000000 		.4byte	0x4c
 867 00df 04       		.byte	0x4
 868 00e0 07       		.uleb128 0x7
 869 00e1 EB020000 		.4byte	.LASF20
 870 00e5 04       		.byte	0x4
 871 00e6 06       		.byte	0x6
 872 00e7 73000000 		.4byte	0x73
 873 00eb 08       		.byte	0x8
 874 00ec 07       		.uleb128 0x7
 875 00ed 4C020000 		.4byte	.LASF21
 876 00f1 04       		.byte	0x4
 877 00f2 07       		.byte	0x7
 878 00f3 73000000 		.4byte	0x73
 879 00f7 0C       		.byte	0xc
 880 00f8 07       		.uleb128 0x7
 881 00f9 60020000 		.4byte	.LASF22
 882 00fd 04       		.byte	0x4
 883 00fe 08       		.byte	0x8
 884 00ff 73000000 		.4byte	0x73
ARM GAS  C:\Users\tadge\AppData\Local\Temp\ccMSwaDg.s 			page 19


 885 0103 10       		.byte	0x10
 886 0104 07       		.uleb128 0x7
 887 0105 85020000 		.4byte	.LASF23
 888 0109 04       		.byte	0x4
 889 010a 09       		.byte	0x9
 890 010b 73000000 		.4byte	0x73
 891 010f 14       		.byte	0x14
 892 0110 08       		.uleb128 0x8
 893 0111 696E6300 		.ascii	"inc\000"
 894 0115 04       		.byte	0x4
 895 0116 0A       		.byte	0xa
 896 0117 73000000 		.4byte	0x73
 897 011b 18       		.byte	0x18
 898 011c 07       		.uleb128 0x7
 899 011d 26020000 		.4byte	.LASF24
 900 0121 04       		.byte	0x4
 901 0122 0B       		.byte	0xb
 902 0123 8C000000 		.4byte	0x8c
 903 0127 1C       		.byte	0x1c
 904 0128 07       		.uleb128 0x7
 905 0129 22000000 		.4byte	.LASF25
 906 012d 04       		.byte	0x4
 907 012e 0C       		.byte	0xc
 908 012f 8C000000 		.4byte	0x8c
 909 0133 20       		.byte	0x20
 910 0134 00       		.byte	0
 911 0135 03       		.uleb128 0x3
 912 0136 C8000000 		.4byte	.LASF26
 913 013a 04       		.byte	0x4
 914 013b 0D       		.byte	0xd
 915 013c C0000000 		.4byte	0xc0
 916 0140 06       		.uleb128 0x6
 917 0141 18       		.byte	0x18
 918 0142 04       		.byte	0x4
 919 0143 0F       		.byte	0xf
 920 0144 6A010000 		.4byte	0x16a
 921 0148 08       		.uleb128 0x8
 922 0149 4B6900   		.ascii	"Ki\000"
 923 014c 04       		.byte	0x4
 924 014d 10       		.byte	0x10
 925 014e 9E000000 		.4byte	0x9e
 926 0152 00       		.byte	0
 927 0153 08       		.uleb128 0x8
 928 0154 4B7000   		.ascii	"Kp\000"
 929 0157 04       		.byte	0x4
 930 0158 11       		.byte	0x11
 931 0159 9E000000 		.4byte	0x9e
 932 015d 08       		.byte	0x8
 933 015e 08       		.uleb128 0x8
 934 015f 4B6400   		.ascii	"Kd\000"
 935 0162 04       		.byte	0x4
 936 0163 12       		.byte	0x12
 937 0164 9E000000 		.4byte	0x9e
 938 0168 10       		.byte	0x10
 939 0169 00       		.byte	0
 940 016a 03       		.uleb128 0x3
 941 016b 10010000 		.4byte	.LASF27
ARM GAS  C:\Users\tadge\AppData\Local\Temp\ccMSwaDg.s 			page 20


 942 016f 04       		.byte	0x4
 943 0170 13       		.byte	0x13
 944 0171 40010000 		.4byte	0x140
 945 0175 09       		.uleb128 0x9
 946 0176 00000000 		.4byte	.LASF30
 947 017a 01       		.byte	0x1
 948 017b 1B       		.byte	0x1b
 949 017c 00000000 		.4byte	.LFB68
 950 0180 B2000000 		.4byte	.LFE68-.LFB68
 951 0184 01       		.uleb128 0x1
 952 0185 9C       		.byte	0x9c
 953 0186 A7010000 		.4byte	0x1a7
 954 018a 0A       		.uleb128 0xa
 955 018b 47020000 		.4byte	.LASF28
 956 018f 01       		.byte	0x1
 957 0190 1B       		.byte	0x1b
 958 0191 A5000000 		.4byte	0xa5
 959 0195 02       		.uleb128 0x2
 960 0196 91       		.byte	0x91
 961 0197 77       		.sleb128 -9
 962 0198 0A       		.uleb128 0xa
 963 0199 6F020000 		.4byte	.LASF29
 964 019d 01       		.byte	0x1
 965 019e 1B       		.byte	0x1b
 966 019f 73000000 		.4byte	0x73
 967 01a3 02       		.uleb128 0x2
 968 01a4 91       		.byte	0x91
 969 01a5 70       		.sleb128 -16
 970 01a6 00       		.byte	0
 971 01a7 09       		.uleb128 0x9
 972 01a8 15020000 		.4byte	.LASF31
 973 01ac 01       		.byte	0x1
 974 01ad 48       		.byte	0x48
 975 01ae 00000000 		.4byte	.LFB69
 976 01b2 C4000000 		.4byte	.LFE69-.LFB69
 977 01b6 01       		.uleb128 0x1
 978 01b7 9C       		.byte	0x9c
 979 01b8 D9010000 		.4byte	0x1d9
 980 01bc 0A       		.uleb128 0xa
 981 01bd 2C000000 		.4byte	.LASF32
 982 01c1 01       		.byte	0x1
 983 01c2 48       		.byte	0x48
 984 01c3 D9010000 		.4byte	0x1d9
 985 01c7 02       		.uleb128 0x2
 986 01c8 91       		.byte	0x91
 987 01c9 6C       		.sleb128 -20
 988 01ca 0A       		.uleb128 0xa
 989 01cb 0A010000 		.4byte	.LASF33
 990 01cf 01       		.byte	0x1
 991 01d0 48       		.byte	0x48
 992 01d1 D9010000 		.4byte	0x1d9
 993 01d5 02       		.uleb128 0x2
 994 01d6 91       		.byte	0x91
 995 01d7 68       		.sleb128 -24
 996 01d8 00       		.byte	0
 997 01d9 05       		.uleb128 0x5
 998 01da 04       		.byte	0x4
ARM GAS  C:\Users\tadge\AppData\Local\Temp\ccMSwaDg.s 			page 21


 999 01db 35010000 		.4byte	0x135
 1000 01df 09       		.uleb128 0x9
 1001 01e0 D3000000 		.4byte	.LASF34
 1002 01e4 01       		.byte	0x1
 1003 01e5 5D       		.byte	0x5d
 1004 01e6 00000000 		.4byte	.LFB70
 1005 01ea CC010000 		.4byte	.LFE70-.LFB70
 1006 01ee 01       		.uleb128 0x1
 1007 01ef 9C       		.byte	0x9c
 1008 01f0 2B020000 		.4byte	0x22b
 1009 01f4 0A       		.uleb128 0xa
 1010 01f5 2C000000 		.4byte	.LASF32
 1011 01f9 01       		.byte	0x1
 1012 01fa 5D       		.byte	0x5d
 1013 01fb D9010000 		.4byte	0x1d9
 1014 01ff 02       		.uleb128 0x2
 1015 0200 91       		.byte	0x91
 1016 0201 5C       		.sleb128 -36
 1017 0202 0A       		.uleb128 0xa
 1018 0203 0A010000 		.4byte	.LASF33
 1019 0207 01       		.byte	0x1
 1020 0208 5D       		.byte	0x5d
 1021 0209 D9010000 		.4byte	0x1d9
 1022 020d 02       		.uleb128 0x2
 1023 020e 91       		.byte	0x91
 1024 020f 58       		.sleb128 -40
 1025 0210 0B       		.uleb128 0xb
 1026 0211 6B00     		.ascii	"k\000"
 1027 0213 01       		.byte	0x1
 1028 0214 5D       		.byte	0x5d
 1029 0215 2B020000 		.4byte	0x22b
 1030 0219 02       		.uleb128 0x2
 1031 021a 91       		.byte	0x91
 1032 021b 54       		.sleb128 -44
 1033 021c 0C       		.uleb128 0xc
 1034 021d C3020000 		.4byte	.LASF39
 1035 0221 01       		.byte	0x1
 1036 0222 5E       		.byte	0x5e
 1037 0223 73000000 		.4byte	0x73
 1038 0227 02       		.uleb128 0x2
 1039 0228 91       		.byte	0x91
 1040 0229 64       		.sleb128 -28
 1041 022a 00       		.byte	0
 1042 022b 05       		.uleb128 0x5
 1043 022c 04       		.byte	0x4
 1044 022d 6A010000 		.4byte	0x16a
 1045 0231 09       		.uleb128 0x9
 1046 0232 0B000000 		.4byte	.LASF35
 1047 0236 01       		.byte	0x1
 1048 0237 71       		.byte	0x71
 1049 0238 00000000 		.4byte	.LFB71
 1050 023c 28000000 		.4byte	.LFE71-.LFB71
 1051 0240 01       		.uleb128 0x1
 1052 0241 9C       		.byte	0x9c
 1053 0242 63020000 		.4byte	0x263
 1054 0246 0A       		.uleb128 0xa
 1055 0247 2C000000 		.4byte	.LASF32
ARM GAS  C:\Users\tadge\AppData\Local\Temp\ccMSwaDg.s 			page 22


 1056 024b 01       		.byte	0x1
 1057 024c 71       		.byte	0x71
 1058 024d D9010000 		.4byte	0x1d9
 1059 0251 02       		.uleb128 0x2
 1060 0252 91       		.byte	0x91
 1061 0253 74       		.sleb128 -12
 1062 0254 0A       		.uleb128 0xa
 1063 0255 0A010000 		.4byte	.LASF33
 1064 0259 01       		.byte	0x1
 1065 025a 71       		.byte	0x71
 1066 025b D9010000 		.4byte	0x1d9
 1067 025f 02       		.uleb128 0x2
 1068 0260 91       		.byte	0x91
 1069 0261 70       		.sleb128 -16
 1070 0262 00       		.byte	0
 1071 0263 0D       		.uleb128 0xd
 1072 0264 FF010000 		.4byte	.LASF36
 1073 0268 01       		.byte	0x1
 1074 0269 75       		.byte	0x75
 1075 026a 00000000 		.4byte	.LFB72
 1076 026e 48000000 		.4byte	.LFE72-.LFB72
 1077 0272 01       		.uleb128 0x1
 1078 0273 9C       		.byte	0x9c
 1079 0274 85020000 		.4byte	0x285
 1080 0278 0B       		.uleb128 0xb
 1081 0279 7700     		.ascii	"w\000"
 1082 027b 01       		.byte	0x1
 1083 027c 75       		.byte	0x75
 1084 027d D9010000 		.4byte	0x1d9
 1085 0281 02       		.uleb128 0x2
 1086 0282 91       		.byte	0x91
 1087 0283 74       		.sleb128 -12
 1088 0284 00       		.byte	0
 1089 0285 0D       		.uleb128 0xd
 1090 0286 9A020000 		.4byte	.LASF37
 1091 028a 01       		.byte	0x1
 1092 028b 80       		.byte	0x80
 1093 028c 00000000 		.4byte	.LFB73
 1094 0290 B4000000 		.4byte	.LFE73-.LFB73
 1095 0294 01       		.uleb128 0x1
 1096 0295 9C       		.byte	0x9c
 1097 0296 35030000 		.4byte	0x335
 1098 029a 0A       		.uleb128 0xa
 1099 029b 2C000000 		.4byte	.LASF32
 1100 029f 01       		.byte	0x1
 1101 02a0 80       		.byte	0x80
 1102 02a1 D9010000 		.4byte	0x1d9
 1103 02a5 02       		.uleb128 0x2
 1104 02a6 91       		.byte	0x91
 1105 02a7 54       		.sleb128 -44
 1106 02a8 0A       		.uleb128 0xa
 1107 02a9 0A010000 		.4byte	.LASF33
 1108 02ad 01       		.byte	0x1
 1109 02ae 80       		.byte	0x80
 1110 02af D9010000 		.4byte	0x1d9
 1111 02b3 02       		.uleb128 0x2
 1112 02b4 91       		.byte	0x91
ARM GAS  C:\Users\tadge\AppData\Local\Temp\ccMSwaDg.s 			page 23


 1113 02b5 50       		.sleb128 -48
 1114 02b6 0A       		.uleb128 0xa
 1115 02b7 7E020000 		.4byte	.LASF38
 1116 02bb 01       		.byte	0x1
 1117 02bc 80       		.byte	0x80
 1118 02bd B3000000 		.4byte	0xb3
 1119 02c1 02       		.uleb128 0x2
 1120 02c2 91       		.byte	0x91
 1121 02c3 4C       		.sleb128 -52
 1122 02c4 0C       		.uleb128 0xc
 1123 02c5 A1010000 		.4byte	.LASF40
 1124 02c9 01       		.byte	0x1
 1125 02ca 82       		.byte	0x82
 1126 02cb 73000000 		.4byte	0x73
 1127 02cf 02       		.uleb128 0x2
 1128 02d0 91       		.byte	0x91
 1129 02d1 74       		.sleb128 -12
 1130 02d2 0C       		.uleb128 0xc
 1131 02d3 A6010000 		.4byte	.LASF41
 1132 02d7 01       		.byte	0x1
 1133 02d8 83       		.byte	0x83
 1134 02d9 73000000 		.4byte	0x73
 1135 02dd 02       		.uleb128 0x2
 1136 02de 91       		.byte	0x91
 1137 02df 70       		.sleb128 -16
 1138 02e0 0C       		.uleb128 0xc
 1139 02e1 AB010000 		.4byte	.LASF42
 1140 02e5 01       		.byte	0x1
 1141 02e6 84       		.byte	0x84
 1142 02e7 73000000 		.4byte	0x73
 1143 02eb 02       		.uleb128 0x2
 1144 02ec 91       		.byte	0x91
 1145 02ed 6C       		.sleb128 -20
 1146 02ee 0C       		.uleb128 0xc
 1147 02ef B0010000 		.4byte	.LASF43
 1148 02f3 01       		.byte	0x1
 1149 02f4 85       		.byte	0x85
 1150 02f5 73000000 		.4byte	0x73
 1151 02f9 02       		.uleb128 0x2
 1152 02fa 91       		.byte	0x91
 1153 02fb 68       		.sleb128 -24
 1154 02fc 0C       		.uleb128 0xc
 1155 02fd B5010000 		.4byte	.LASF44
 1156 0301 01       		.byte	0x1
 1157 0302 86       		.byte	0x86
 1158 0303 73000000 		.4byte	0x73
 1159 0307 02       		.uleb128 0x2
 1160 0308 91       		.byte	0x91
 1161 0309 64       		.sleb128 -28
 1162 030a 0C       		.uleb128 0xc
 1163 030b BA010000 		.4byte	.LASF45
 1164 030f 01       		.byte	0x1
 1165 0310 87       		.byte	0x87
 1166 0311 73000000 		.4byte	0x73
 1167 0315 02       		.uleb128 0x2
 1168 0316 91       		.byte	0x91
 1169 0317 60       		.sleb128 -32
ARM GAS  C:\Users\tadge\AppData\Local\Temp\ccMSwaDg.s 			page 24


 1170 0318 0C       		.uleb128 0xc
 1171 0319 BF010000 		.4byte	.LASF46
 1172 031d 01       		.byte	0x1
 1173 031e 88       		.byte	0x88
 1174 031f 73000000 		.4byte	0x73
 1175 0323 02       		.uleb128 0x2
 1176 0324 91       		.byte	0x91
 1177 0325 5C       		.sleb128 -36
 1178 0326 0C       		.uleb128 0xc
 1179 0327 C4010000 		.4byte	.LASF47
 1180 032b 01       		.byte	0x1
 1181 032c 89       		.byte	0x89
 1182 032d 73000000 		.4byte	0x73
 1183 0331 02       		.uleb128 0x2
 1184 0332 91       		.byte	0x91
 1185 0333 58       		.sleb128 -40
 1186 0334 00       		.byte	0
 1187 0335 0E       		.uleb128 0xe
 1188 0336 94010000 		.4byte	.LASF51
 1189 033a 05       		.byte	0x5
 1190 033b 9606     		.2byte	0x696
 1191 033d 41030000 		.4byte	0x341
 1192 0341 0F       		.uleb128 0xf
 1193 0342 81000000 		.4byte	0x81
 1194 0346 00       		.byte	0
 1195              		.section	.debug_abbrev,"",%progbits
 1196              	.Ldebug_abbrev0:
 1197 0000 01       		.uleb128 0x1
 1198 0001 11       		.uleb128 0x11
 1199 0002 01       		.byte	0x1
 1200 0003 25       		.uleb128 0x25
 1201 0004 0E       		.uleb128 0xe
 1202 0005 13       		.uleb128 0x13
 1203 0006 0B       		.uleb128 0xb
 1204 0007 03       		.uleb128 0x3
 1205 0008 0E       		.uleb128 0xe
 1206 0009 1B       		.uleb128 0x1b
 1207 000a 0E       		.uleb128 0xe
 1208 000b 55       		.uleb128 0x55
 1209 000c 17       		.uleb128 0x17
 1210 000d 11       		.uleb128 0x11
 1211 000e 01       		.uleb128 0x1
 1212 000f 10       		.uleb128 0x10
 1213 0010 17       		.uleb128 0x17
 1214 0011 00       		.byte	0
 1215 0012 00       		.byte	0
 1216 0013 02       		.uleb128 0x2
 1217 0014 24       		.uleb128 0x24
 1218 0015 00       		.byte	0
 1219 0016 0B       		.uleb128 0xb
 1220 0017 0B       		.uleb128 0xb
 1221 0018 3E       		.uleb128 0x3e
 1222 0019 0B       		.uleb128 0xb
 1223 001a 03       		.uleb128 0x3
 1224 001b 0E       		.uleb128 0xe
 1225 001c 00       		.byte	0
 1226 001d 00       		.byte	0
ARM GAS  C:\Users\tadge\AppData\Local\Temp\ccMSwaDg.s 			page 25


 1227 001e 03       		.uleb128 0x3
 1228 001f 16       		.uleb128 0x16
 1229 0020 00       		.byte	0
 1230 0021 03       		.uleb128 0x3
 1231 0022 0E       		.uleb128 0xe
 1232 0023 3A       		.uleb128 0x3a
 1233 0024 0B       		.uleb128 0xb
 1234 0025 3B       		.uleb128 0x3b
 1235 0026 0B       		.uleb128 0xb
 1236 0027 49       		.uleb128 0x49
 1237 0028 13       		.uleb128 0x13
 1238 0029 00       		.byte	0
 1239 002a 00       		.byte	0
 1240 002b 04       		.uleb128 0x4
 1241 002c 24       		.uleb128 0x24
 1242 002d 00       		.byte	0
 1243 002e 0B       		.uleb128 0xb
 1244 002f 0B       		.uleb128 0xb
 1245 0030 3E       		.uleb128 0x3e
 1246 0031 0B       		.uleb128 0xb
 1247 0032 03       		.uleb128 0x3
 1248 0033 08       		.uleb128 0x8
 1249 0034 00       		.byte	0
 1250 0035 00       		.byte	0
 1251 0036 05       		.uleb128 0x5
 1252 0037 0F       		.uleb128 0xf
 1253 0038 00       		.byte	0
 1254 0039 0B       		.uleb128 0xb
 1255 003a 0B       		.uleb128 0xb
 1256 003b 49       		.uleb128 0x49
 1257 003c 13       		.uleb128 0x13
 1258 003d 00       		.byte	0
 1259 003e 00       		.byte	0
 1260 003f 06       		.uleb128 0x6
 1261 0040 13       		.uleb128 0x13
 1262 0041 01       		.byte	0x1
 1263 0042 0B       		.uleb128 0xb
 1264 0043 0B       		.uleb128 0xb
 1265 0044 3A       		.uleb128 0x3a
 1266 0045 0B       		.uleb128 0xb
 1267 0046 3B       		.uleb128 0x3b
 1268 0047 0B       		.uleb128 0xb
 1269 0048 01       		.uleb128 0x1
 1270 0049 13       		.uleb128 0x13
 1271 004a 00       		.byte	0
 1272 004b 00       		.byte	0
 1273 004c 07       		.uleb128 0x7
 1274 004d 0D       		.uleb128 0xd
 1275 004e 00       		.byte	0
 1276 004f 03       		.uleb128 0x3
 1277 0050 0E       		.uleb128 0xe
 1278 0051 3A       		.uleb128 0x3a
 1279 0052 0B       		.uleb128 0xb
 1280 0053 3B       		.uleb128 0x3b
 1281 0054 0B       		.uleb128 0xb
 1282 0055 49       		.uleb128 0x49
 1283 0056 13       		.uleb128 0x13
ARM GAS  C:\Users\tadge\AppData\Local\Temp\ccMSwaDg.s 			page 26


 1284 0057 38       		.uleb128 0x38
 1285 0058 0B       		.uleb128 0xb
 1286 0059 00       		.byte	0
 1287 005a 00       		.byte	0
 1288 005b 08       		.uleb128 0x8
 1289 005c 0D       		.uleb128 0xd
 1290 005d 00       		.byte	0
 1291 005e 03       		.uleb128 0x3
 1292 005f 08       		.uleb128 0x8
 1293 0060 3A       		.uleb128 0x3a
 1294 0061 0B       		.uleb128 0xb
 1295 0062 3B       		.uleb128 0x3b
 1296 0063 0B       		.uleb128 0xb
 1297 0064 49       		.uleb128 0x49
 1298 0065 13       		.uleb128 0x13
 1299 0066 38       		.uleb128 0x38
 1300 0067 0B       		.uleb128 0xb
 1301 0068 00       		.byte	0
 1302 0069 00       		.byte	0
 1303 006a 09       		.uleb128 0x9
 1304 006b 2E       		.uleb128 0x2e
 1305 006c 01       		.byte	0x1
 1306 006d 3F       		.uleb128 0x3f
 1307 006e 19       		.uleb128 0x19
 1308 006f 03       		.uleb128 0x3
 1309 0070 0E       		.uleb128 0xe
 1310 0071 3A       		.uleb128 0x3a
 1311 0072 0B       		.uleb128 0xb
 1312 0073 3B       		.uleb128 0x3b
 1313 0074 0B       		.uleb128 0xb
 1314 0075 27       		.uleb128 0x27
 1315 0076 19       		.uleb128 0x19
 1316 0077 11       		.uleb128 0x11
 1317 0078 01       		.uleb128 0x1
 1318 0079 12       		.uleb128 0x12
 1319 007a 06       		.uleb128 0x6
 1320 007b 40       		.uleb128 0x40
 1321 007c 18       		.uleb128 0x18
 1322 007d 9642     		.uleb128 0x2116
 1323 007f 19       		.uleb128 0x19
 1324 0080 01       		.uleb128 0x1
 1325 0081 13       		.uleb128 0x13
 1326 0082 00       		.byte	0
 1327 0083 00       		.byte	0
 1328 0084 0A       		.uleb128 0xa
 1329 0085 05       		.uleb128 0x5
 1330 0086 00       		.byte	0
 1331 0087 03       		.uleb128 0x3
 1332 0088 0E       		.uleb128 0xe
 1333 0089 3A       		.uleb128 0x3a
 1334 008a 0B       		.uleb128 0xb
 1335 008b 3B       		.uleb128 0x3b
 1336 008c 0B       		.uleb128 0xb
 1337 008d 49       		.uleb128 0x49
 1338 008e 13       		.uleb128 0x13
 1339 008f 02       		.uleb128 0x2
 1340 0090 18       		.uleb128 0x18
ARM GAS  C:\Users\tadge\AppData\Local\Temp\ccMSwaDg.s 			page 27


 1341 0091 00       		.byte	0
 1342 0092 00       		.byte	0
 1343 0093 0B       		.uleb128 0xb
 1344 0094 05       		.uleb128 0x5
 1345 0095 00       		.byte	0
 1346 0096 03       		.uleb128 0x3
 1347 0097 08       		.uleb128 0x8
 1348 0098 3A       		.uleb128 0x3a
 1349 0099 0B       		.uleb128 0xb
 1350 009a 3B       		.uleb128 0x3b
 1351 009b 0B       		.uleb128 0xb
 1352 009c 49       		.uleb128 0x49
 1353 009d 13       		.uleb128 0x13
 1354 009e 02       		.uleb128 0x2
 1355 009f 18       		.uleb128 0x18
 1356 00a0 00       		.byte	0
 1357 00a1 00       		.byte	0
 1358 00a2 0C       		.uleb128 0xc
 1359 00a3 34       		.uleb128 0x34
 1360 00a4 00       		.byte	0
 1361 00a5 03       		.uleb128 0x3
 1362 00a6 0E       		.uleb128 0xe
 1363 00a7 3A       		.uleb128 0x3a
 1364 00a8 0B       		.uleb128 0xb
 1365 00a9 3B       		.uleb128 0x3b
 1366 00aa 0B       		.uleb128 0xb
 1367 00ab 49       		.uleb128 0x49
 1368 00ac 13       		.uleb128 0x13
 1369 00ad 02       		.uleb128 0x2
 1370 00ae 18       		.uleb128 0x18
 1371 00af 00       		.byte	0
 1372 00b0 00       		.byte	0
 1373 00b1 0D       		.uleb128 0xd
 1374 00b2 2E       		.uleb128 0x2e
 1375 00b3 01       		.byte	0x1
 1376 00b4 3F       		.uleb128 0x3f
 1377 00b5 19       		.uleb128 0x19
 1378 00b6 03       		.uleb128 0x3
 1379 00b7 0E       		.uleb128 0xe
 1380 00b8 3A       		.uleb128 0x3a
 1381 00b9 0B       		.uleb128 0xb
 1382 00ba 3B       		.uleb128 0x3b
 1383 00bb 0B       		.uleb128 0xb
 1384 00bc 27       		.uleb128 0x27
 1385 00bd 19       		.uleb128 0x19
 1386 00be 11       		.uleb128 0x11
 1387 00bf 01       		.uleb128 0x1
 1388 00c0 12       		.uleb128 0x12
 1389 00c1 06       		.uleb128 0x6
 1390 00c2 40       		.uleb128 0x40
 1391 00c3 18       		.uleb128 0x18
 1392 00c4 9742     		.uleb128 0x2117
 1393 00c6 19       		.uleb128 0x19
 1394 00c7 01       		.uleb128 0x1
 1395 00c8 13       		.uleb128 0x13
 1396 00c9 00       		.byte	0
 1397 00ca 00       		.byte	0
ARM GAS  C:\Users\tadge\AppData\Local\Temp\ccMSwaDg.s 			page 28


 1398 00cb 0E       		.uleb128 0xe
 1399 00cc 34       		.uleb128 0x34
 1400 00cd 00       		.byte	0
 1401 00ce 03       		.uleb128 0x3
 1402 00cf 0E       		.uleb128 0xe
 1403 00d0 3A       		.uleb128 0x3a
 1404 00d1 0B       		.uleb128 0xb
 1405 00d2 3B       		.uleb128 0x3b
 1406 00d3 05       		.uleb128 0x5
 1407 00d4 49       		.uleb128 0x49
 1408 00d5 13       		.uleb128 0x13
 1409 00d6 3F       		.uleb128 0x3f
 1410 00d7 19       		.uleb128 0x19
 1411 00d8 3C       		.uleb128 0x3c
 1412 00d9 19       		.uleb128 0x19
 1413 00da 00       		.byte	0
 1414 00db 00       		.byte	0
 1415 00dc 0F       		.uleb128 0xf
 1416 00dd 35       		.uleb128 0x35
 1417 00de 00       		.byte	0
 1418 00df 49       		.uleb128 0x49
 1419 00e0 13       		.uleb128 0x13
 1420 00e1 00       		.byte	0
 1421 00e2 00       		.byte	0
 1422 00e3 00       		.byte	0
 1423              		.section	.debug_aranges,"",%progbits
 1424 0000 44000000 		.4byte	0x44
 1425 0004 0200     		.2byte	0x2
 1426 0006 00000000 		.4byte	.Ldebug_info0
 1427 000a 04       		.byte	0x4
 1428 000b 00       		.byte	0
 1429 000c 0000     		.2byte	0
 1430 000e 0000     		.2byte	0
 1431 0010 00000000 		.4byte	.LFB68
 1432 0014 B2000000 		.4byte	.LFE68-.LFB68
 1433 0018 00000000 		.4byte	.LFB69
 1434 001c C4000000 		.4byte	.LFE69-.LFB69
 1435 0020 00000000 		.4byte	.LFB70
 1436 0024 CC010000 		.4byte	.LFE70-.LFB70
 1437 0028 00000000 		.4byte	.LFB71
 1438 002c 28000000 		.4byte	.LFE71-.LFB71
 1439 0030 00000000 		.4byte	.LFB72
 1440 0034 48000000 		.4byte	.LFE72-.LFB72
 1441 0038 00000000 		.4byte	.LFB73
 1442 003c B4000000 		.4byte	.LFE73-.LFB73
 1443 0040 00000000 		.4byte	0
 1444 0044 00000000 		.4byte	0
 1445              		.section	.debug_ranges,"",%progbits
 1446              	.Ldebug_ranges0:
 1447 0000 00000000 		.4byte	.LFB68
 1448 0004 B2000000 		.4byte	.LFE68
 1449 0008 00000000 		.4byte	.LFB69
 1450 000c C4000000 		.4byte	.LFE69
 1451 0010 00000000 		.4byte	.LFB70
 1452 0014 CC010000 		.4byte	.LFE70
 1453 0018 00000000 		.4byte	.LFB71
 1454 001c 28000000 		.4byte	.LFE71
ARM GAS  C:\Users\tadge\AppData\Local\Temp\ccMSwaDg.s 			page 29


 1455 0020 00000000 		.4byte	.LFB72
 1456 0024 48000000 		.4byte	.LFE72
 1457 0028 00000000 		.4byte	.LFB73
 1458 002c B4000000 		.4byte	.LFE73
 1459 0030 00000000 		.4byte	0
 1460 0034 00000000 		.4byte	0
 1461              		.section	.debug_line,"",%progbits
 1462              	.Ldebug_line0:
 1463 0000 00020000 		.section	.debug_str,"MS",%progbits,1
 1463      02004C01 
 1463      00000201 
 1463      FB0E0D00 
 1463      01010101 
 1464              	.LASF30:
 1465 0000 7475726E 		.ascii	"turn_wheel\000"
 1465      5F776865 
 1465      656C00
 1466              	.LASF35:
 1467 000b 6D6F765F 		.ascii	"mov_Adj_Volt\000"
 1467      41646A5F 
 1467      566F6C74 
 1467      00
 1468              	.LASF5:
 1469 0018 5F5F696E 		.ascii	"__int32_t\000"
 1469      7433325F 
 1469      7400
 1470              	.LASF25:
 1471 0022 74696D65 		.ascii	"time_prev\000"
 1471      5F707265 
 1471      7600
 1472              	.LASF32:
 1473 002c 6C656674 		.ascii	"left\000"
 1473      00
 1474              	.LASF48:
 1475 0031 474E5520 		.ascii	"GNU C 4.9.3 20150303 (release) [ARM/embedded-4_9-br"
 1475      4320342E 
 1475      392E3320 
 1475      32303135 
 1475      30333033 
 1476 0064 616E6368 		.ascii	"anch revision 221220] -mcpu=cortex-m3 -mthumb -g -O"
 1476      20726576 
 1476      6973696F 
 1476      6E203232 
 1476      31323230 
 1477 0097 30202D66 		.ascii	"0 -ffunction-sections -ffat-lto-objects\000"
 1477      66756E63 
 1477      74696F6E 
 1477      2D736563 
 1477      74696F6E 
 1478              	.LASF19:
 1479 00bf 6375725F 		.ascii	"cur_dest\000"
 1479      64657374 
 1479      00
 1480              	.LASF26:
 1481 00c8 77686565 		.ascii	"wheel_data\000"
 1481      6C5F6461 
 1481      746100
ARM GAS  C:\Users\tadge\AppData\Local\Temp\ccMSwaDg.s 			page 30


 1482              	.LASF34:
 1483 00d3 6D6F765F 		.ascii	"mov_get_PID\000"
 1483      6765745F 
 1483      50494400 
 1484              	.LASF13:
 1485 00df 666C6F61 		.ascii	"float\000"
 1485      7400
 1486              	.LASF0:
 1487 00e5 7369676E 		.ascii	"signed char\000"
 1487      65642063 
 1487      68617200 
 1488              	.LASF1:
 1489 00f1 756E7369 		.ascii	"unsigned char\000"
 1489      676E6564 
 1489      20636861 
 1489      7200
 1490              	.LASF6:
 1491 00ff 5F5F7569 		.ascii	"__uint32_t\000"
 1491      6E743332 
 1491      5F7400
 1492              	.LASF33:
 1493 010a 72696768 		.ascii	"right\000"
 1493      7400
 1494              	.LASF27:
 1495 0110 5049445F 		.ascii	"PID_data\000"
 1495      64617461 
 1495      00
 1496              	.LASF50:
 1497 0119 433A5C55 		.ascii	"C:\\Users\\tadge\\Documents\\GitHub\\FYP_PSOCCreato"
 1497      73657273 
 1497      5C746164 
 1497      67655C44 
 1497      6F63756D 
 1498 0147 725F466F 		.ascii	"r_Follower\\FYP_New_Test\\CORTEX_CY8C5588_PSoC_Crea"
 1498      6C6C6F77 
 1498      65725C46 
 1498      59505F4E 
 1498      65775F54 
 1499 0178 746F725F 		.ascii	"tor_GCC\\FreeRTOS_Demo.cydsn\000"
 1499      4743435C 
 1499      46726565 
 1499      52544F53 
 1499      5F44656D 
 1500              	.LASF51:
 1501 0194 49544D5F 		.ascii	"ITM_RxBuffer\000"
 1501      52784275 
 1501      66666572 
 1501      00
 1502              	.LASF40:
 1503 01a1 696E7430 		.ascii	"int0\000"
 1503      00
 1504              	.LASF41:
 1505 01a6 696E7431 		.ascii	"int1\000"
 1505      00
 1506              	.LASF42:
 1507 01ab 696E7432 		.ascii	"int2\000"
 1507      00
ARM GAS  C:\Users\tadge\AppData\Local\Temp\ccMSwaDg.s 			page 31


 1508              	.LASF43:
 1509 01b0 696E7433 		.ascii	"int3\000"
 1509      00
 1510              	.LASF44:
 1511 01b5 696E7434 		.ascii	"int4\000"
 1511      00
 1512              	.LASF45:
 1513 01ba 696E7435 		.ascii	"int5\000"
 1513      00
 1514              	.LASF46:
 1515 01bf 696E7436 		.ascii	"int6\000"
 1515      00
 1516              	.LASF47:
 1517 01c4 696E7437 		.ascii	"int7\000"
 1517      00
 1518              	.LASF7:
 1519 01c9 6C6F6E67 		.ascii	"long unsigned int\000"
 1519      20756E73 
 1519      69676E65 
 1519      6420696E 
 1519      7400
 1520              	.LASF10:
 1521 01db 756E7369 		.ascii	"unsigned int\000"
 1521      676E6564 
 1521      20696E74 
 1521      00
 1522              	.LASF9:
 1523 01e8 6C6F6E67 		.ascii	"long long unsigned int\000"
 1523      206C6F6E 
 1523      6720756E 
 1523      7369676E 
 1523      65642069 
 1524              	.LASF36:
 1525 01ff 696E6974 		.ascii	"initialise_wheel_data\000"
 1525      69616C69 
 1525      73655F77 
 1525      6865656C 
 1525      5F646174 
 1526              	.LASF31:
 1527 0215 6D6F765F 		.ascii	"mov_update_error\000"
 1527      75706461 
 1527      74655F65 
 1527      72726F72 
 1527      00
 1528              	.LASF24:
 1529 0226 74696D65 		.ascii	"time\000"
 1529      00
 1530              	.LASF49:
 1531 022b 6D6F7665 		.ascii	"movement.c\000"
 1531      6D656E74 
 1531      2E6300
 1532              	.LASF11:
 1533 0236 696E7433 		.ascii	"int32_t\000"
 1533      325F7400 
 1534              	.LASF16:
 1535 023e 73697A65 		.ascii	"sizetype\000"
 1535      74797065 
ARM GAS  C:\Users\tadge\AppData\Local\Temp\ccMSwaDg.s 			page 32


 1535      00
 1536              	.LASF28:
 1537 0247 73696465 		.ascii	"side\000"
 1537      00
 1538              	.LASF21:
 1539 024c 6572726F 		.ascii	"error\000"
 1539      7200
 1540              	.LASF8:
 1541 0252 6C6F6E67 		.ascii	"long long int\000"
 1541      206C6F6E 
 1541      6720696E 
 1541      7400
 1542              	.LASF22:
 1543 0260 6572726F 		.ascii	"error_sum\000"
 1543      725F7375 
 1543      6D00
 1544              	.LASF15:
 1545 026a 63686172 		.ascii	"char\000"
 1545      00
 1546              	.LASF29:
 1547 026f 766F6C74 		.ascii	"volt\000"
 1547      00
 1548              	.LASF2:
 1549 0274 73686F72 		.ascii	"short int\000"
 1549      7420696E 
 1549      7400
 1550              	.LASF38:
 1551 027e 62756666 		.ascii	"buffer\000"
 1551      657200
 1552              	.LASF23:
 1553 0285 6D6F746F 		.ascii	"motor_volt\000"
 1553      725F766F 
 1553      6C7400
 1554              	.LASF18:
 1555 0290 70726576 		.ascii	"prev_dest\000"
 1555      5F646573 
 1555      7400
 1556              	.LASF37:
 1557 029a 75706461 		.ascii	"update_inc\000"
 1557      74655F69 
 1557      6E6300
 1558              	.LASF12:
 1559 02a5 75696E74 		.ascii	"uint32_t\000"
 1559      33325F74 
 1559      00
 1560              	.LASF4:
 1561 02ae 6C6F6E67 		.ascii	"long int\000"
 1561      20696E74 
 1561      00
 1562              	.LASF17:
 1563 02b7 6C6F6E67 		.ascii	"long double\000"
 1563      20646F75 
 1563      626C6500 
 1564              	.LASF39:
 1565 02c3 6D6F746F 		.ascii	"motor_voltage\000"
 1565      725F766F 
 1565      6C746167 
ARM GAS  C:\Users\tadge\AppData\Local\Temp\ccMSwaDg.s 			page 33


 1565      6500
 1566              	.LASF14:
 1567 02d1 646F7562 		.ascii	"double\000"
 1567      6C6500
 1568              	.LASF3:
 1569 02d8 73686F72 		.ascii	"short unsigned int\000"
 1569      7420756E 
 1569      7369676E 
 1569      65642069 
 1569      6E7400
 1570              	.LASF20:
 1571 02eb 6572726F 		.ascii	"error_prev\000"
 1571      725F7072 
 1571      657600
 1572              		.ident	"GCC: (GNU Tools for ARM Embedded Processors) 4.9.3 20150303 (release) [ARM/embedded-4_9-br
