ARM GAS  C:\Users\Jamie\AppData\Local\Temp\ccNpZJrb.s 			page 1


   1              		.syntax unified
   2              		.cpu cortex-m3
   3              		.fpu softvfp
   4              		.eabi_attribute 20, 1
   5              		.eabi_attribute 21, 1
   6              		.eabi_attribute 23, 3
   7              		.eabi_attribute 24, 1
   8              		.eabi_attribute 25, 1
   9              		.eabi_attribute 26, 1
  10              		.eabi_attribute 30, 6
  11              		.eabi_attribute 34, 1
  12              		.eabi_attribute 18, 4
  13              		.thumb
  14              		.file	"QPeek.c"
  15              		.text
  16              	.Ltext0:
  17              		.cfi_sections	.debug_frame
  18              		.bss
  19              		.align	2
  20              	xErrorDetected:
  21 0000 00000000 		.space	4
  22              		.align	2
  23              	ulLoopCounter:
  24 0004 00000000 		.space	4
  25              		.comm	xMediumPriorityTask,4,4
  26              		.comm	xHighPriorityTask,4,4
  27              		.comm	xHighestPriorityTask,4,4
  28              		.section	.rodata
  29              		.align	2
  30              	.LC0:
  31 0000 51506565 		.ascii	"QPeek_Test_Queue\000"
  31      6B5F5465 
  31      73745F51 
  31      75657565 
  31      00
  32 0011 000000   		.align	2
  33              	.LC1:
  34 0014 5065656B 		.ascii	"PeekL\000"
  34      4C00
  35 001a 0000     		.align	2
  36              	.LC2:
  37 001c 5065656B 		.ascii	"PeekM\000"
  37      4D00
  38 0022 0000     		.align	2
  39              	.LC3:
  40 0024 5065656B 		.ascii	"PeekH1\000"
  40      483100
  41 002b 00       		.align	2
  42              	.LC4:
  43 002c 5065656B 		.ascii	"PeekH2\000"
  43      483200
  44 0033 00       		.section	.text.vStartQueuePeekTasks,"ax",%progbits
  45              		.align	2
  46              		.global	vStartQueuePeekTasks
  47              		.thumb
  48              		.thumb_func
  49              		.type	vStartQueuePeekTasks, %function
ARM GAS  C:\Users\Jamie\AppData\Local\Temp\ccNpZJrb.s 			page 2


  50              	vStartQueuePeekTasks:
  51              	.LFB68:
  52              		.file 1 "..\\..\\Common\\Minimal\\QPeek.c"
   1:..\..\Common\Minimal/QPeek.c **** /*
   2:..\..\Common\Minimal/QPeek.c ****  * FreeRTOS Kernel V10.0.1
   3:..\..\Common\Minimal/QPeek.c ****  * Copyright (C) 2017 Amazon.com, Inc. or its affiliates.  All Rights Reserved.
   4:..\..\Common\Minimal/QPeek.c ****  *
   5:..\..\Common\Minimal/QPeek.c ****  * Permission is hereby granted, free of charge, to any person obtaining a copy of
   6:..\..\Common\Minimal/QPeek.c ****  * this software and associated documentation files (the "Software"), to deal in
   7:..\..\Common\Minimal/QPeek.c ****  * the Software without restriction, including without limitation the rights to
   8:..\..\Common\Minimal/QPeek.c ****  * use, copy, modify, merge, publish, distribute, sublicense, and/or sell copies of
   9:..\..\Common\Minimal/QPeek.c ****  * the Software, and to permit persons to whom the Software is furnished to do so,
  10:..\..\Common\Minimal/QPeek.c ****  * subject to the following conditions:
  11:..\..\Common\Minimal/QPeek.c ****  *
  12:..\..\Common\Minimal/QPeek.c ****  * The above copyright notice and this permission notice shall be included in all
  13:..\..\Common\Minimal/QPeek.c ****  * copies or substantial portions of the Software.
  14:..\..\Common\Minimal/QPeek.c ****  *
  15:..\..\Common\Minimal/QPeek.c ****  * THE SOFTWARE IS PROVIDED "AS IS", WITHOUT WARRANTY OF ANY KIND, EXPRESS OR
  16:..\..\Common\Minimal/QPeek.c ****  * IMPLIED, INCLUDING BUT NOT LIMITED TO THE WARRANTIES OF MERCHANTABILITY, FITNESS
  17:..\..\Common\Minimal/QPeek.c ****  * FOR A PARTICULAR PURPOSE AND NONINFRINGEMENT. IN NO EVENT SHALL THE AUTHORS OR
  18:..\..\Common\Minimal/QPeek.c ****  * COPYRIGHT HOLDERS BE LIABLE FOR ANY CLAIM, DAMAGES OR OTHER LIABILITY, WHETHER
  19:..\..\Common\Minimal/QPeek.c ****  * IN AN ACTION OF CONTRACT, TORT OR OTHERWISE, ARISING FROM, OUT OF OR IN
  20:..\..\Common\Minimal/QPeek.c ****  * CONNECTION WITH THE SOFTWARE OR THE USE OR OTHER DEALINGS IN THE SOFTWARE.
  21:..\..\Common\Minimal/QPeek.c ****  *
  22:..\..\Common\Minimal/QPeek.c ****  * http://www.FreeRTOS.org
  23:..\..\Common\Minimal/QPeek.c ****  * http://aws.amazon.com/freertos
  24:..\..\Common\Minimal/QPeek.c ****  *
  25:..\..\Common\Minimal/QPeek.c ****  * 1 tab == 4 spaces!
  26:..\..\Common\Minimal/QPeek.c ****  */
  27:..\..\Common\Minimal/QPeek.c **** 
  28:..\..\Common\Minimal/QPeek.c **** 
  29:..\..\Common\Minimal/QPeek.c **** /*
  30:..\..\Common\Minimal/QPeek.c ****  * Tests the behaviour when data is peeked from a queue when there are
  31:..\..\Common\Minimal/QPeek.c ****  * multiple tasks blocked on the queue.
  32:..\..\Common\Minimal/QPeek.c ****  */
  33:..\..\Common\Minimal/QPeek.c **** 
  34:..\..\Common\Minimal/QPeek.c **** 
  35:..\..\Common\Minimal/QPeek.c **** #include <stdlib.h>
  36:..\..\Common\Minimal/QPeek.c **** 
  37:..\..\Common\Minimal/QPeek.c **** /* Scheduler include files. */
  38:..\..\Common\Minimal/QPeek.c **** #include "FreeRTOS.h"
  39:..\..\Common\Minimal/QPeek.c **** #include "task.h"
  40:..\..\Common\Minimal/QPeek.c **** #include "queue.h"
  41:..\..\Common\Minimal/QPeek.c **** #include "semphr.h"
  42:..\..\Common\Minimal/QPeek.c **** 
  43:..\..\Common\Minimal/QPeek.c **** /* Demo program include files. */
  44:..\..\Common\Minimal/QPeek.c **** #include "QPeek.h"
  45:..\..\Common\Minimal/QPeek.c **** 
  46:..\..\Common\Minimal/QPeek.c **** #define qpeekQUEUE_LENGTH		( 5 )
  47:..\..\Common\Minimal/QPeek.c **** #define qpeekNO_BLOCK			( 0 )
  48:..\..\Common\Minimal/QPeek.c **** #define qpeekSHORT_DELAY		( 10 )
  49:..\..\Common\Minimal/QPeek.c **** 
  50:..\..\Common\Minimal/QPeek.c **** #define qpeekLOW_PRIORITY			( tskIDLE_PRIORITY + 0 )
  51:..\..\Common\Minimal/QPeek.c **** #define qpeekMEDIUM_PRIORITY		( tskIDLE_PRIORITY + 1 )
  52:..\..\Common\Minimal/QPeek.c **** #define qpeekHIGH_PRIORITY			( tskIDLE_PRIORITY + 2 )
  53:..\..\Common\Minimal/QPeek.c **** #define qpeekHIGHEST_PRIORITY		( tskIDLE_PRIORITY + 3 )
  54:..\..\Common\Minimal/QPeek.c **** 
ARM GAS  C:\Users\Jamie\AppData\Local\Temp\ccNpZJrb.s 			page 3


  55:..\..\Common\Minimal/QPeek.c **** /*-----------------------------------------------------------*/
  56:..\..\Common\Minimal/QPeek.c **** 
  57:..\..\Common\Minimal/QPeek.c **** /*
  58:..\..\Common\Minimal/QPeek.c ****  * The following three tasks are used to demonstrate the peeking behaviour.
  59:..\..\Common\Minimal/QPeek.c ****  * Each task is given a different priority to demonstrate the order in which
  60:..\..\Common\Minimal/QPeek.c ****  * tasks are woken as data is peeked from a queue.
  61:..\..\Common\Minimal/QPeek.c ****  */
  62:..\..\Common\Minimal/QPeek.c **** static void prvLowPriorityPeekTask( void *pvParameters );
  63:..\..\Common\Minimal/QPeek.c **** static void prvMediumPriorityPeekTask( void *pvParameters );
  64:..\..\Common\Minimal/QPeek.c **** static void prvHighPriorityPeekTask( void *pvParameters );
  65:..\..\Common\Minimal/QPeek.c **** static void prvHighestPriorityPeekTask( void *pvParameters );
  66:..\..\Common\Minimal/QPeek.c **** 
  67:..\..\Common\Minimal/QPeek.c **** /*-----------------------------------------------------------*/
  68:..\..\Common\Minimal/QPeek.c **** 
  69:..\..\Common\Minimal/QPeek.c **** /* Flag that will be latched to pdTRUE should any unexpected behaviour be
  70:..\..\Common\Minimal/QPeek.c **** detected in any of the tasks. */
  71:..\..\Common\Minimal/QPeek.c **** static volatile BaseType_t xErrorDetected = pdFALSE;
  72:..\..\Common\Minimal/QPeek.c **** 
  73:..\..\Common\Minimal/QPeek.c **** /* Counter that is incremented on each cycle of a test.  This is used to
  74:..\..\Common\Minimal/QPeek.c **** detect a stalled task - a test that is no longer running. */
  75:..\..\Common\Minimal/QPeek.c **** static volatile uint32_t ulLoopCounter = 0;
  76:..\..\Common\Minimal/QPeek.c **** 
  77:..\..\Common\Minimal/QPeek.c **** /* Handles to the test tasks. */
  78:..\..\Common\Minimal/QPeek.c **** TaskHandle_t xMediumPriorityTask, xHighPriorityTask, xHighestPriorityTask;
  79:..\..\Common\Minimal/QPeek.c **** /*-----------------------------------------------------------*/
  80:..\..\Common\Minimal/QPeek.c **** 
  81:..\..\Common\Minimal/QPeek.c **** void vStartQueuePeekTasks( void )
  82:..\..\Common\Minimal/QPeek.c **** {
  53              		.loc 1 82 0
  54              		.cfi_startproc
  55              		@ args = 0, pretend = 0, frame = 8
  56              		@ frame_needed = 1, uses_anonymous_args = 0
  57 0000 80B5     		push	{r7, lr}
  58              		.cfi_def_cfa_offset 8
  59              		.cfi_offset 7, -8
  60              		.cfi_offset 14, -4
  61 0002 84B0     		sub	sp, sp, #16
  62              		.cfi_def_cfa_offset 24
  63 0004 02AF     		add	r7, sp, #8
  64              		.cfi_def_cfa 7, 16
  83:..\..\Common\Minimal/QPeek.c **** QueueHandle_t xQueue;
  84:..\..\Common\Minimal/QPeek.c **** 
  85:..\..\Common\Minimal/QPeek.c **** 	/* Create the queue that we are going to use for the test/demo. */
  86:..\..\Common\Minimal/QPeek.c **** 	xQueue = xQueueCreate( qpeekQUEUE_LENGTH, sizeof( uint32_t ) );
  65              		.loc 1 86 0
  66 0006 0520     		movs	r0, #5
  67 0008 0421     		movs	r1, #4
  68 000a 0022     		movs	r2, #0
  69 000c FFF7FEFF 		bl	xQueueGenericCreate
  70 0010 7860     		str	r0, [r7, #4]
  87:..\..\Common\Minimal/QPeek.c **** 
  88:..\..\Common\Minimal/QPeek.c **** 	if( xQueue != NULL )
  71              		.loc 1 88 0
  72 0012 7B68     		ldr	r3, [r7, #4]
  73 0014 002B     		cmp	r3, #0
  74 0016 2BD0     		beq	.L1
  89:..\..\Common\Minimal/QPeek.c **** 	{
ARM GAS  C:\Users\Jamie\AppData\Local\Temp\ccNpZJrb.s 			page 4


  90:..\..\Common\Minimal/QPeek.c **** 		/* vQueueAddToRegistry() adds the queue to the queue registry, if one is
  91:..\..\Common\Minimal/QPeek.c **** 		in use.  The queue registry is provided as a means for kernel aware
  92:..\..\Common\Minimal/QPeek.c **** 		debuggers to locate queues and has no purpose if a kernel aware debugger
  93:..\..\Common\Minimal/QPeek.c **** 		is not being used.  The call to vQueueAddToRegistry() will be removed
  94:..\..\Common\Minimal/QPeek.c **** 		by the pre-processor if configQUEUE_REGISTRY_SIZE is not defined or is
  95:..\..\Common\Minimal/QPeek.c **** 		defined to be less than 1. */
  96:..\..\Common\Minimal/QPeek.c **** 		vQueueAddToRegistry( xQueue, "QPeek_Test_Queue" );
  75              		.loc 1 96 0
  76 0018 7868     		ldr	r0, [r7, #4]
  77 001a 1749     		ldr	r1, .L3
  78 001c FFF7FEFF 		bl	vQueueAddToRegistry
  97:..\..\Common\Minimal/QPeek.c **** 
  98:..\..\Common\Minimal/QPeek.c **** 		/* Create the demo tasks and pass it the queue just created.  We are
  99:..\..\Common\Minimal/QPeek.c **** 		passing the queue handle by value so it does not matter that it is declared
 100:..\..\Common\Minimal/QPeek.c **** 		on the stack here. */
 101:..\..\Common\Minimal/QPeek.c **** 		xTaskCreate( prvLowPriorityPeekTask, "PeekL", configMINIMAL_STACK_SIZE, ( void * ) xQueue, qpeekL
  79              		.loc 1 101 0
  80 0020 0023     		movs	r3, #0
  81 0022 0093     		str	r3, [sp]
  82 0024 0023     		movs	r3, #0
  83 0026 0193     		str	r3, [sp, #4]
  84 0028 1448     		ldr	r0, .L3+4
  85 002a 1549     		ldr	r1, .L3+8
  86 002c 6422     		movs	r2, #100
  87 002e 7B68     		ldr	r3, [r7, #4]
  88 0030 FFF7FEFF 		bl	xTaskCreate
 102:..\..\Common\Minimal/QPeek.c **** 		xTaskCreate( prvMediumPriorityPeekTask, "PeekM", configMINIMAL_STACK_SIZE, ( void * ) xQueue, qpe
  89              		.loc 1 102 0
  90 0034 0123     		movs	r3, #1
  91 0036 0093     		str	r3, [sp]
  92 0038 124B     		ldr	r3, .L3+12
  93 003a 0193     		str	r3, [sp, #4]
  94 003c 1248     		ldr	r0, .L3+16
  95 003e 1349     		ldr	r1, .L3+20
  96 0040 6422     		movs	r2, #100
  97 0042 7B68     		ldr	r3, [r7, #4]
  98 0044 FFF7FEFF 		bl	xTaskCreate
 103:..\..\Common\Minimal/QPeek.c **** 		xTaskCreate( prvHighPriorityPeekTask, "PeekH1", configMINIMAL_STACK_SIZE, ( void * ) xQueue, qpee
  99              		.loc 1 103 0
 100 0048 0223     		movs	r3, #2
 101 004a 0093     		str	r3, [sp]
 102 004c 104B     		ldr	r3, .L3+24
 103 004e 0193     		str	r3, [sp, #4]
 104 0050 1048     		ldr	r0, .L3+28
 105 0052 1149     		ldr	r1, .L3+32
 106 0054 6422     		movs	r2, #100
 107 0056 7B68     		ldr	r3, [r7, #4]
 108 0058 FFF7FEFF 		bl	xTaskCreate
 104:..\..\Common\Minimal/QPeek.c **** 		xTaskCreate( prvHighestPriorityPeekTask, "PeekH2", configMINIMAL_STACK_SIZE, ( void * ) xQueue, q
 109              		.loc 1 104 0
 110 005c 0323     		movs	r3, #3
 111 005e 0093     		str	r3, [sp]
 112 0060 0E4B     		ldr	r3, .L3+36
 113 0062 0193     		str	r3, [sp, #4]
 114 0064 0E48     		ldr	r0, .L3+40
 115 0066 0F49     		ldr	r1, .L3+44
 116 0068 6422     		movs	r2, #100
ARM GAS  C:\Users\Jamie\AppData\Local\Temp\ccNpZJrb.s 			page 5


 117 006a 7B68     		ldr	r3, [r7, #4]
 118 006c FFF7FEFF 		bl	xTaskCreate
 119              	.L1:
 105:..\..\Common\Minimal/QPeek.c **** 	}
 106:..\..\Common\Minimal/QPeek.c **** }
 120              		.loc 1 106 0
 121 0070 0837     		adds	r7, r7, #8
 122              		.cfi_def_cfa_offset 8
 123 0072 BD46     		mov	sp, r7
 124              		.cfi_def_cfa_register 13
 125              		@ sp needed
 126 0074 80BD     		pop	{r7, pc}
 127              	.L4:
 128 0076 00BF     		.align	2
 129              	.L3:
 130 0078 00000000 		.word	.LC0
 131 007c 00000000 		.word	prvLowPriorityPeekTask
 132 0080 14000000 		.word	.LC1
 133 0084 00000000 		.word	xMediumPriorityTask
 134 0088 00000000 		.word	prvMediumPriorityPeekTask
 135 008c 1C000000 		.word	.LC2
 136 0090 00000000 		.word	xHighPriorityTask
 137 0094 00000000 		.word	prvHighPriorityPeekTask
 138 0098 24000000 		.word	.LC3
 139 009c 00000000 		.word	xHighestPriorityTask
 140 00a0 00000000 		.word	prvHighestPriorityPeekTask
 141 00a4 2C000000 		.word	.LC4
 142              		.cfi_endproc
 143              	.LFE68:
 144              		.size	vStartQueuePeekTasks, .-vStartQueuePeekTasks
 145              		.section	.text.prvHighestPriorityPeekTask,"ax",%progbits
 146              		.align	2
 147              		.thumb
 148              		.thumb_func
 149              		.type	prvHighestPriorityPeekTask, %function
 150              	prvHighestPriorityPeekTask:
 151              	.LFB69:
 107:..\..\Common\Minimal/QPeek.c **** /*-----------------------------------------------------------*/
 108:..\..\Common\Minimal/QPeek.c **** 
 109:..\..\Common\Minimal/QPeek.c **** static void prvHighestPriorityPeekTask( void *pvParameters )
 110:..\..\Common\Minimal/QPeek.c **** {
 152              		.loc 1 110 0
 153              		.cfi_startproc
 154              		@ args = 0, pretend = 0, frame = 16
 155              		@ frame_needed = 1, uses_anonymous_args = 0
 156 0000 80B5     		push	{r7, lr}
 157              		.cfi_def_cfa_offset 8
 158              		.cfi_offset 7, -8
 159              		.cfi_offset 14, -4
 160 0002 84B0     		sub	sp, sp, #16
 161              		.cfi_def_cfa_offset 24
 162 0004 00AF     		add	r7, sp, #0
 163              		.cfi_def_cfa_register 7
 164 0006 7860     		str	r0, [r7, #4]
 111:..\..\Common\Minimal/QPeek.c **** QueueHandle_t xQueue = ( QueueHandle_t ) pvParameters;
 165              		.loc 1 111 0
 166 0008 7B68     		ldr	r3, [r7, #4]
ARM GAS  C:\Users\Jamie\AppData\Local\Temp\ccNpZJrb.s 			page 6


 167 000a FB60     		str	r3, [r7, #12]
 168              	.L16:
 112:..\..\Common\Minimal/QPeek.c **** uint32_t ulValue;
 113:..\..\Common\Minimal/QPeek.c **** 
 114:..\..\Common\Minimal/QPeek.c **** 	#ifdef USE_STDIO
 115:..\..\Common\Minimal/QPeek.c **** 	{
 116:..\..\Common\Minimal/QPeek.c **** 		void vPrintDisplayMessage( const char * const * ppcMessageToSend );
 117:..\..\Common\Minimal/QPeek.c **** 
 118:..\..\Common\Minimal/QPeek.c **** 		const char * const pcTaskStartMsg = "Queue peek test started.\r\n";
 119:..\..\Common\Minimal/QPeek.c **** 
 120:..\..\Common\Minimal/QPeek.c **** 		/* Queue a message for printing to say the task has started. */
 121:..\..\Common\Minimal/QPeek.c **** 		vPrintDisplayMessage( &pcTaskStartMsg );
 122:..\..\Common\Minimal/QPeek.c **** 	}
 123:..\..\Common\Minimal/QPeek.c **** 	#endif
 124:..\..\Common\Minimal/QPeek.c **** 
 125:..\..\Common\Minimal/QPeek.c **** 	for( ;; )
 126:..\..\Common\Minimal/QPeek.c **** 	{
 127:..\..\Common\Minimal/QPeek.c **** 		/* Try peeking from the queue.  The queue should be empty so we will
 128:..\..\Common\Minimal/QPeek.c **** 		block, allowing the high priority task to execute. */
 129:..\..\Common\Minimal/QPeek.c **** 		if( xQueuePeek( xQueue, &ulValue, portMAX_DELAY ) != pdPASS )
 169              		.loc 1 129 0
 170 000c 07F10803 		add	r3, r7, #8
 171 0010 F868     		ldr	r0, [r7, #12]
 172 0012 1946     		mov	r1, r3
 173 0014 4FF0FF32 		mov	r2, #-1
 174 0018 FFF7FEFF 		bl	xQueuePeek
 175 001c 0346     		mov	r3, r0
 176 001e 012B     		cmp	r3, #1
 177 0020 02D0     		beq	.L6
 130:..\..\Common\Minimal/QPeek.c **** 		{
 131:..\..\Common\Minimal/QPeek.c **** 			/* We expected to have received something by the time we unblock. */
 132:..\..\Common\Minimal/QPeek.c **** 			xErrorDetected = pdTRUE;
 178              		.loc 1 132 0
 179 0022 314B     		ldr	r3, .L17
 180 0024 0122     		movs	r2, #1
 181 0026 1A60     		str	r2, [r3]
 182              	.L6:
 133:..\..\Common\Minimal/QPeek.c **** 		}
 134:..\..\Common\Minimal/QPeek.c **** 
 135:..\..\Common\Minimal/QPeek.c **** 		/* When we reach here the high and medium priority tasks should still
 136:..\..\Common\Minimal/QPeek.c **** 		be blocked on the queue.  We unblocked because the low priority task
 137:..\..\Common\Minimal/QPeek.c **** 		wrote a value to the queue, which we should have peeked.  Peeking the
 138:..\..\Common\Minimal/QPeek.c **** 		data (rather than receiving it) will leave the data on the queue, so
 139:..\..\Common\Minimal/QPeek.c **** 		the high priority task should then have also been unblocked, but not
 140:..\..\Common\Minimal/QPeek.c **** 		yet executed. */
 141:..\..\Common\Minimal/QPeek.c **** 		if( ulValue != 0x11223344 )
 183              		.loc 1 141 0
 184 0028 BB68     		ldr	r3, [r7, #8]
 185 002a 304A     		ldr	r2, .L17+4
 186 002c 9342     		cmp	r3, r2
 187 002e 02D0     		beq	.L7
 142:..\..\Common\Minimal/QPeek.c **** 		{
 143:..\..\Common\Minimal/QPeek.c **** 			/* We did not receive the expected value. */
 144:..\..\Common\Minimal/QPeek.c **** 			xErrorDetected = pdTRUE;
 188              		.loc 1 144 0
 189 0030 2D4B     		ldr	r3, .L17
 190 0032 0122     		movs	r2, #1
ARM GAS  C:\Users\Jamie\AppData\Local\Temp\ccNpZJrb.s 			page 7


 191 0034 1A60     		str	r2, [r3]
 192              	.L7:
 145:..\..\Common\Minimal/QPeek.c **** 		}
 146:..\..\Common\Minimal/QPeek.c **** 
 147:..\..\Common\Minimal/QPeek.c **** 		if( uxQueueMessagesWaiting( xQueue ) != 1 )
 193              		.loc 1 147 0
 194 0036 F868     		ldr	r0, [r7, #12]
 195 0038 FFF7FEFF 		bl	uxQueueMessagesWaiting
 196 003c 0346     		mov	r3, r0
 197 003e 012B     		cmp	r3, #1
 198 0040 02D0     		beq	.L8
 148:..\..\Common\Minimal/QPeek.c **** 		{
 149:..\..\Common\Minimal/QPeek.c **** 			/* The message should have been left on the queue. */
 150:..\..\Common\Minimal/QPeek.c **** 			xErrorDetected = pdTRUE;
 199              		.loc 1 150 0
 200 0042 294B     		ldr	r3, .L17
 201 0044 0122     		movs	r2, #1
 202 0046 1A60     		str	r2, [r3]
 203              	.L8:
 151:..\..\Common\Minimal/QPeek.c **** 		}
 152:..\..\Common\Minimal/QPeek.c **** 
 153:..\..\Common\Minimal/QPeek.c **** 		/* Now we are going to actually receive the data, so when the high
 154:..\..\Common\Minimal/QPeek.c **** 		priority task runs it will find the queue empty and return to the
 155:..\..\Common\Minimal/QPeek.c **** 		blocked state. */
 156:..\..\Common\Minimal/QPeek.c **** 		ulValue = 0;
 204              		.loc 1 156 0
 205 0048 0023     		movs	r3, #0
 206 004a BB60     		str	r3, [r7, #8]
 157:..\..\Common\Minimal/QPeek.c **** 		if( xQueueReceive( xQueue, &ulValue, qpeekNO_BLOCK ) != pdPASS )
 207              		.loc 1 157 0
 208 004c 07F10803 		add	r3, r7, #8
 209 0050 F868     		ldr	r0, [r7, #12]
 210 0052 1946     		mov	r1, r3
 211 0054 0022     		movs	r2, #0
 212 0056 FFF7FEFF 		bl	xQueueReceive
 213 005a 0346     		mov	r3, r0
 214 005c 012B     		cmp	r3, #1
 215 005e 02D0     		beq	.L9
 158:..\..\Common\Minimal/QPeek.c **** 		{
 159:..\..\Common\Minimal/QPeek.c **** 			/* We expected to receive the value. */
 160:..\..\Common\Minimal/QPeek.c **** 			xErrorDetected = pdTRUE;
 216              		.loc 1 160 0
 217 0060 214B     		ldr	r3, .L17
 218 0062 0122     		movs	r2, #1
 219 0064 1A60     		str	r2, [r3]
 220              	.L9:
 161:..\..\Common\Minimal/QPeek.c **** 		}
 162:..\..\Common\Minimal/QPeek.c **** 
 163:..\..\Common\Minimal/QPeek.c **** 		if( ulValue != 0x11223344 )
 221              		.loc 1 163 0
 222 0066 BB68     		ldr	r3, [r7, #8]
 223 0068 204A     		ldr	r2, .L17+4
 224 006a 9342     		cmp	r3, r2
 225 006c 02D0     		beq	.L10
 164:..\..\Common\Minimal/QPeek.c **** 		{
 165:..\..\Common\Minimal/QPeek.c **** 			/* We did not receive the expected value - which should have been
 166:..\..\Common\Minimal/QPeek.c **** 			the same value as was peeked. */
ARM GAS  C:\Users\Jamie\AppData\Local\Temp\ccNpZJrb.s 			page 8


 167:..\..\Common\Minimal/QPeek.c **** 			xErrorDetected = pdTRUE;
 226              		.loc 1 167 0
 227 006e 1E4B     		ldr	r3, .L17
 228 0070 0122     		movs	r2, #1
 229 0072 1A60     		str	r2, [r3]
 230              	.L10:
 168:..\..\Common\Minimal/QPeek.c **** 		}
 169:..\..\Common\Minimal/QPeek.c **** 
 170:..\..\Common\Minimal/QPeek.c **** 		/* Now we will block again as the queue is once more empty.  The low
 171:..\..\Common\Minimal/QPeek.c **** 		priority task can then execute again. */
 172:..\..\Common\Minimal/QPeek.c **** 		if( xQueuePeek( xQueue, &ulValue, portMAX_DELAY ) != pdPASS )
 231              		.loc 1 172 0
 232 0074 07F10803 		add	r3, r7, #8
 233 0078 F868     		ldr	r0, [r7, #12]
 234 007a 1946     		mov	r1, r3
 235 007c 4FF0FF32 		mov	r2, #-1
 236 0080 FFF7FEFF 		bl	xQueuePeek
 237 0084 0346     		mov	r3, r0
 238 0086 012B     		cmp	r3, #1
 239 0088 02D0     		beq	.L11
 173:..\..\Common\Minimal/QPeek.c **** 		{
 174:..\..\Common\Minimal/QPeek.c **** 			/* We expected to have received something by the time we unblock. */
 175:..\..\Common\Minimal/QPeek.c **** 			xErrorDetected = pdTRUE;
 240              		.loc 1 175 0
 241 008a 174B     		ldr	r3, .L17
 242 008c 0122     		movs	r2, #1
 243 008e 1A60     		str	r2, [r3]
 244              	.L11:
 176:..\..\Common\Minimal/QPeek.c **** 		}
 177:..\..\Common\Minimal/QPeek.c **** 
 178:..\..\Common\Minimal/QPeek.c **** 		/* When we get here the low priority task should have again written to the
 179:..\..\Common\Minimal/QPeek.c **** 		queue. */
 180:..\..\Common\Minimal/QPeek.c **** 		if( ulValue != 0x01234567 )
 245              		.loc 1 180 0
 246 0090 BB68     		ldr	r3, [r7, #8]
 247 0092 174A     		ldr	r2, .L17+8
 248 0094 9342     		cmp	r3, r2
 249 0096 02D0     		beq	.L12
 181:..\..\Common\Minimal/QPeek.c **** 		{
 182:..\..\Common\Minimal/QPeek.c **** 			/* We did not receive the expected value. */
 183:..\..\Common\Minimal/QPeek.c **** 			xErrorDetected = pdTRUE;
 250              		.loc 1 183 0
 251 0098 134B     		ldr	r3, .L17
 252 009a 0122     		movs	r2, #1
 253 009c 1A60     		str	r2, [r3]
 254              	.L12:
 184:..\..\Common\Minimal/QPeek.c **** 		}
 185:..\..\Common\Minimal/QPeek.c **** 
 186:..\..\Common\Minimal/QPeek.c **** 		if( uxQueueMessagesWaiting( xQueue ) != 1 )
 255              		.loc 1 186 0
 256 009e F868     		ldr	r0, [r7, #12]
 257 00a0 FFF7FEFF 		bl	uxQueueMessagesWaiting
 258 00a4 0346     		mov	r3, r0
 259 00a6 012B     		cmp	r3, #1
 260 00a8 02D0     		beq	.L13
 187:..\..\Common\Minimal/QPeek.c **** 		{
 188:..\..\Common\Minimal/QPeek.c **** 			/* The message should have been left on the queue. */
ARM GAS  C:\Users\Jamie\AppData\Local\Temp\ccNpZJrb.s 			page 9


 189:..\..\Common\Minimal/QPeek.c **** 			xErrorDetected = pdTRUE;
 261              		.loc 1 189 0
 262 00aa 0F4B     		ldr	r3, .L17
 263 00ac 0122     		movs	r2, #1
 264 00ae 1A60     		str	r2, [r3]
 265              	.L13:
 190:..\..\Common\Minimal/QPeek.c **** 		}
 191:..\..\Common\Minimal/QPeek.c **** 
 192:..\..\Common\Minimal/QPeek.c **** 		/* We only peeked the data, so suspending ourselves now should enable
 193:..\..\Common\Minimal/QPeek.c **** 		the high priority task to also peek the data.  The high priority task
 194:..\..\Common\Minimal/QPeek.c **** 		will have been unblocked when we peeked the data as we left the data
 195:..\..\Common\Minimal/QPeek.c **** 		in the queue. */
 196:..\..\Common\Minimal/QPeek.c **** 		vTaskSuspend( NULL );
 266              		.loc 1 196 0
 267 00b0 0020     		movs	r0, #0
 268 00b2 FFF7FEFF 		bl	vTaskSuspend
 197:..\..\Common\Minimal/QPeek.c **** 
 198:..\..\Common\Minimal/QPeek.c **** 
 199:..\..\Common\Minimal/QPeek.c **** 
 200:..\..\Common\Minimal/QPeek.c **** 		/* This time we are going to do the same as the above test, but the
 201:..\..\Common\Minimal/QPeek.c **** 		high priority task is going to receive the data, rather than peek it.
 202:..\..\Common\Minimal/QPeek.c **** 		This means that the medium priority task should never peek the value. */
 203:..\..\Common\Minimal/QPeek.c **** 		if( xQueuePeek( xQueue, &ulValue, portMAX_DELAY ) != pdPASS )
 269              		.loc 1 203 0
 270 00b6 07F10803 		add	r3, r7, #8
 271 00ba F868     		ldr	r0, [r7, #12]
 272 00bc 1946     		mov	r1, r3
 273 00be 4FF0FF32 		mov	r2, #-1
 274 00c2 FFF7FEFF 		bl	xQueuePeek
 275 00c6 0346     		mov	r3, r0
 276 00c8 012B     		cmp	r3, #1
 277 00ca 02D0     		beq	.L14
 204:..\..\Common\Minimal/QPeek.c **** 		{
 205:..\..\Common\Minimal/QPeek.c **** 			xErrorDetected = pdTRUE;
 278              		.loc 1 205 0
 279 00cc 064B     		ldr	r3, .L17
 280 00ce 0122     		movs	r2, #1
 281 00d0 1A60     		str	r2, [r3]
 282              	.L14:
 206:..\..\Common\Minimal/QPeek.c **** 		}
 207:..\..\Common\Minimal/QPeek.c **** 
 208:..\..\Common\Minimal/QPeek.c **** 		if( ulValue != 0xaabbaabb )
 283              		.loc 1 208 0
 284 00d2 BB68     		ldr	r3, [r7, #8]
 285 00d4 074A     		ldr	r2, .L17+12
 286 00d6 9342     		cmp	r3, r2
 287 00d8 02D0     		beq	.L15
 209:..\..\Common\Minimal/QPeek.c **** 		{
 210:..\..\Common\Minimal/QPeek.c **** 			xErrorDetected = pdTRUE;
 288              		.loc 1 210 0
 289 00da 034B     		ldr	r3, .L17
 290 00dc 0122     		movs	r2, #1
 291 00de 1A60     		str	r2, [r3]
 292              	.L15:
 211:..\..\Common\Minimal/QPeek.c **** 		}
 212:..\..\Common\Minimal/QPeek.c **** 
 213:..\..\Common\Minimal/QPeek.c **** 		vTaskSuspend( NULL );
ARM GAS  C:\Users\Jamie\AppData\Local\Temp\ccNpZJrb.s 			page 10


 293              		.loc 1 213 0
 294 00e0 0020     		movs	r0, #0
 295 00e2 FFF7FEFF 		bl	vTaskSuspend
 214:..\..\Common\Minimal/QPeek.c **** 	}
 296              		.loc 1 214 0
 297 00e6 91E7     		b	.L16
 298              	.L18:
 299              		.align	2
 300              	.L17:
 301 00e8 00000000 		.word	xErrorDetected
 302 00ec 44332211 		.word	287454020
 303 00f0 67452301 		.word	19088743
 304 00f4 BBAABBAA 		.word	-1430541637
 305              		.cfi_endproc
 306              	.LFE69:
 307              		.size	prvHighestPriorityPeekTask, .-prvHighestPriorityPeekTask
 308              		.section	.text.prvHighPriorityPeekTask,"ax",%progbits
 309              		.align	2
 310              		.thumb
 311              		.thumb_func
 312              		.type	prvHighPriorityPeekTask, %function
 313              	prvHighPriorityPeekTask:
 314              	.LFB70:
 215:..\..\Common\Minimal/QPeek.c **** }
 216:..\..\Common\Minimal/QPeek.c **** /*-----------------------------------------------------------*/
 217:..\..\Common\Minimal/QPeek.c **** 
 218:..\..\Common\Minimal/QPeek.c **** static void prvHighPriorityPeekTask( void *pvParameters )
 219:..\..\Common\Minimal/QPeek.c **** {
 315              		.loc 1 219 0
 316              		.cfi_startproc
 317              		@ args = 0, pretend = 0, frame = 16
 318              		@ frame_needed = 1, uses_anonymous_args = 0
 319 0000 80B5     		push	{r7, lr}
 320              		.cfi_def_cfa_offset 8
 321              		.cfi_offset 7, -8
 322              		.cfi_offset 14, -4
 323 0002 84B0     		sub	sp, sp, #16
 324              		.cfi_def_cfa_offset 24
 325 0004 00AF     		add	r7, sp, #0
 326              		.cfi_def_cfa_register 7
 327 0006 7860     		str	r0, [r7, #4]
 220:..\..\Common\Minimal/QPeek.c **** QueueHandle_t xQueue = ( QueueHandle_t ) pvParameters;
 328              		.loc 1 220 0
 329 0008 7B68     		ldr	r3, [r7, #4]
 330 000a FB60     		str	r3, [r7, #12]
 331              	.L25:
 221:..\..\Common\Minimal/QPeek.c **** uint32_t ulValue;
 222:..\..\Common\Minimal/QPeek.c **** 
 223:..\..\Common\Minimal/QPeek.c **** 	for( ;; )
 224:..\..\Common\Minimal/QPeek.c **** 	{
 225:..\..\Common\Minimal/QPeek.c **** 		/* Try peeking from the queue.  The queue should be empty so we will
 226:..\..\Common\Minimal/QPeek.c **** 		block, allowing the medium priority task to execute.  Both the high
 227:..\..\Common\Minimal/QPeek.c **** 		and highest priority tasks will then be blocked on the queue. */
 228:..\..\Common\Minimal/QPeek.c **** 		if( xQueuePeek( xQueue, &ulValue, portMAX_DELAY ) != pdPASS )
 332              		.loc 1 228 0
 333 000c 07F10803 		add	r3, r7, #8
 334 0010 F868     		ldr	r0, [r7, #12]
ARM GAS  C:\Users\Jamie\AppData\Local\Temp\ccNpZJrb.s 			page 11


 335 0012 1946     		mov	r1, r3
 336 0014 4FF0FF32 		mov	r2, #-1
 337 0018 FFF7FEFF 		bl	xQueuePeek
 338 001c 0346     		mov	r3, r0
 339 001e 012B     		cmp	r3, #1
 340 0020 02D0     		beq	.L20
 229:..\..\Common\Minimal/QPeek.c **** 		{
 230:..\..\Common\Minimal/QPeek.c **** 			/* We expected to have received something by the time we unblock. */
 231:..\..\Common\Minimal/QPeek.c **** 			xErrorDetected = pdTRUE;
 341              		.loc 1 231 0
 342 0022 174B     		ldr	r3, .L26
 343 0024 0122     		movs	r2, #1
 344 0026 1A60     		str	r2, [r3]
 345              	.L20:
 232:..\..\Common\Minimal/QPeek.c **** 		}
 233:..\..\Common\Minimal/QPeek.c **** 
 234:..\..\Common\Minimal/QPeek.c **** 		/* When we get here the highest priority task should have peeked the data
 235:..\..\Common\Minimal/QPeek.c **** 		(unblocking this task) then suspended (allowing this task to also peek
 236:..\..\Common\Minimal/QPeek.c **** 		the data). */
 237:..\..\Common\Minimal/QPeek.c **** 		if( ulValue != 0x01234567 )
 346              		.loc 1 237 0
 347 0028 BB68     		ldr	r3, [r7, #8]
 348 002a 164A     		ldr	r2, .L26+4
 349 002c 9342     		cmp	r3, r2
 350 002e 02D0     		beq	.L21
 238:..\..\Common\Minimal/QPeek.c **** 		{
 239:..\..\Common\Minimal/QPeek.c **** 			/* We did not receive the expected value. */
 240:..\..\Common\Minimal/QPeek.c **** 			xErrorDetected = pdTRUE;
 351              		.loc 1 240 0
 352 0030 134B     		ldr	r3, .L26
 353 0032 0122     		movs	r2, #1
 354 0034 1A60     		str	r2, [r3]
 355              	.L21:
 241:..\..\Common\Minimal/QPeek.c **** 		}
 242:..\..\Common\Minimal/QPeek.c **** 
 243:..\..\Common\Minimal/QPeek.c **** 		if( uxQueueMessagesWaiting( xQueue ) != 1 )
 356              		.loc 1 243 0
 357 0036 F868     		ldr	r0, [r7, #12]
 358 0038 FFF7FEFF 		bl	uxQueueMessagesWaiting
 359 003c 0346     		mov	r3, r0
 360 003e 012B     		cmp	r3, #1
 361 0040 02D0     		beq	.L22
 244:..\..\Common\Minimal/QPeek.c **** 		{
 245:..\..\Common\Minimal/QPeek.c **** 			/* The message should have been left on the queue. */
 246:..\..\Common\Minimal/QPeek.c **** 			xErrorDetected = pdTRUE;
 362              		.loc 1 246 0
 363 0042 0F4B     		ldr	r3, .L26
 364 0044 0122     		movs	r2, #1
 365 0046 1A60     		str	r2, [r3]
 366              	.L22:
 247:..\..\Common\Minimal/QPeek.c **** 		}
 248:..\..\Common\Minimal/QPeek.c **** 
 249:..\..\Common\Minimal/QPeek.c **** 		/* We only peeked the data, so suspending ourselves now should enable
 250:..\..\Common\Minimal/QPeek.c **** 		the medium priority task to also peek the data.  The medium priority task
 251:..\..\Common\Minimal/QPeek.c **** 		will have been unblocked when we peeked the data as we left the data
 252:..\..\Common\Minimal/QPeek.c **** 		in the queue. */
 253:..\..\Common\Minimal/QPeek.c **** 		vTaskSuspend( NULL );
ARM GAS  C:\Users\Jamie\AppData\Local\Temp\ccNpZJrb.s 			page 12


 367              		.loc 1 253 0
 368 0048 0020     		movs	r0, #0
 369 004a FFF7FEFF 		bl	vTaskSuspend
 254:..\..\Common\Minimal/QPeek.c **** 
 255:..\..\Common\Minimal/QPeek.c **** 
 256:..\..\Common\Minimal/QPeek.c **** 		/* This time we are going actually receive the value, so the medium
 257:..\..\Common\Minimal/QPeek.c **** 		priority task will never peek the data - we removed it from the queue. */
 258:..\..\Common\Minimal/QPeek.c **** 		if( xQueueReceive( xQueue, &ulValue, portMAX_DELAY ) != pdPASS )
 370              		.loc 1 258 0
 371 004e 07F10803 		add	r3, r7, #8
 372 0052 F868     		ldr	r0, [r7, #12]
 373 0054 1946     		mov	r1, r3
 374 0056 4FF0FF32 		mov	r2, #-1
 375 005a FFF7FEFF 		bl	xQueueReceive
 376 005e 0346     		mov	r3, r0
 377 0060 012B     		cmp	r3, #1
 378 0062 02D0     		beq	.L23
 259:..\..\Common\Minimal/QPeek.c **** 		{
 260:..\..\Common\Minimal/QPeek.c **** 			xErrorDetected = pdTRUE;
 379              		.loc 1 260 0
 380 0064 064B     		ldr	r3, .L26
 381 0066 0122     		movs	r2, #1
 382 0068 1A60     		str	r2, [r3]
 383              	.L23:
 261:..\..\Common\Minimal/QPeek.c **** 		}
 262:..\..\Common\Minimal/QPeek.c **** 
 263:..\..\Common\Minimal/QPeek.c **** 		if( ulValue != 0xaabbaabb )
 384              		.loc 1 263 0
 385 006a BB68     		ldr	r3, [r7, #8]
 386 006c 064A     		ldr	r2, .L26+8
 387 006e 9342     		cmp	r3, r2
 388 0070 02D0     		beq	.L24
 264:..\..\Common\Minimal/QPeek.c **** 		{
 265:..\..\Common\Minimal/QPeek.c **** 			xErrorDetected = pdTRUE;
 389              		.loc 1 265 0
 390 0072 034B     		ldr	r3, .L26
 391 0074 0122     		movs	r2, #1
 392 0076 1A60     		str	r2, [r3]
 393              	.L24:
 266:..\..\Common\Minimal/QPeek.c **** 		}
 267:..\..\Common\Minimal/QPeek.c **** 
 268:..\..\Common\Minimal/QPeek.c **** 		vTaskSuspend( NULL );
 394              		.loc 1 268 0
 395 0078 0020     		movs	r0, #0
 396 007a FFF7FEFF 		bl	vTaskSuspend
 269:..\..\Common\Minimal/QPeek.c **** 	}
 397              		.loc 1 269 0
 398 007e C5E7     		b	.L25
 399              	.L27:
 400              		.align	2
 401              	.L26:
 402 0080 00000000 		.word	xErrorDetected
 403 0084 67452301 		.word	19088743
 404 0088 BBAABBAA 		.word	-1430541637
 405              		.cfi_endproc
 406              	.LFE70:
 407              		.size	prvHighPriorityPeekTask, .-prvHighPriorityPeekTask
ARM GAS  C:\Users\Jamie\AppData\Local\Temp\ccNpZJrb.s 			page 13


 408              		.section	.text.prvMediumPriorityPeekTask,"ax",%progbits
 409              		.align	2
 410              		.thumb
 411              		.thumb_func
 412              		.type	prvMediumPriorityPeekTask, %function
 413              	prvMediumPriorityPeekTask:
 414              	.LFB71:
 270:..\..\Common\Minimal/QPeek.c **** }
 271:..\..\Common\Minimal/QPeek.c **** /*-----------------------------------------------------------*/
 272:..\..\Common\Minimal/QPeek.c **** 
 273:..\..\Common\Minimal/QPeek.c **** static void prvMediumPriorityPeekTask( void *pvParameters )
 274:..\..\Common\Minimal/QPeek.c **** {
 415              		.loc 1 274 0
 416              		.cfi_startproc
 417              		@ args = 0, pretend = 0, frame = 16
 418              		@ frame_needed = 1, uses_anonymous_args = 0
 419 0000 80B5     		push	{r7, lr}
 420              		.cfi_def_cfa_offset 8
 421              		.cfi_offset 7, -8
 422              		.cfi_offset 14, -4
 423 0002 84B0     		sub	sp, sp, #16
 424              		.cfi_def_cfa_offset 24
 425 0004 00AF     		add	r7, sp, #0
 426              		.cfi_def_cfa_register 7
 427 0006 7860     		str	r0, [r7, #4]
 275:..\..\Common\Minimal/QPeek.c **** QueueHandle_t xQueue = ( QueueHandle_t ) pvParameters;
 428              		.loc 1 275 0
 429 0008 7B68     		ldr	r3, [r7, #4]
 430 000a FB60     		str	r3, [r7, #12]
 431              	.L32:
 276:..\..\Common\Minimal/QPeek.c **** uint32_t ulValue;
 277:..\..\Common\Minimal/QPeek.c **** 
 278:..\..\Common\Minimal/QPeek.c **** 	for( ;; )
 279:..\..\Common\Minimal/QPeek.c **** 	{
 280:..\..\Common\Minimal/QPeek.c **** 		/* Try peeking from the queue.  The queue should be empty so we will
 281:..\..\Common\Minimal/QPeek.c **** 		block, allowing the low priority task to execute.  The highest, high
 282:..\..\Common\Minimal/QPeek.c **** 		and medium priority tasks will then all be blocked on the queue. */
 283:..\..\Common\Minimal/QPeek.c **** 		if( xQueuePeek( xQueue, &ulValue, portMAX_DELAY ) != pdPASS )
 432              		.loc 1 283 0
 433 000c 07F10803 		add	r3, r7, #8
 434 0010 F868     		ldr	r0, [r7, #12]
 435 0012 1946     		mov	r1, r3
 436 0014 4FF0FF32 		mov	r2, #-1
 437 0018 FFF7FEFF 		bl	xQueuePeek
 438 001c 0346     		mov	r3, r0
 439 001e 012B     		cmp	r3, #1
 440 0020 02D0     		beq	.L29
 284:..\..\Common\Minimal/QPeek.c **** 		{
 285:..\..\Common\Minimal/QPeek.c **** 			/* We expected to have received something by the time we unblock. */
 286:..\..\Common\Minimal/QPeek.c **** 			xErrorDetected = pdTRUE;
 441              		.loc 1 286 0
 442 0022 0E4B     		ldr	r3, .L33
 443 0024 0122     		movs	r2, #1
 444 0026 1A60     		str	r2, [r3]
 445              	.L29:
 287:..\..\Common\Minimal/QPeek.c **** 		}
 288:..\..\Common\Minimal/QPeek.c **** 
ARM GAS  C:\Users\Jamie\AppData\Local\Temp\ccNpZJrb.s 			page 14


 289:..\..\Common\Minimal/QPeek.c **** 		/* When we get here the high priority task should have peeked the data
 290:..\..\Common\Minimal/QPeek.c **** 		(unblocking this task) then suspended (allowing this task to also peek
 291:..\..\Common\Minimal/QPeek.c **** 		the data). */
 292:..\..\Common\Minimal/QPeek.c **** 		if( ulValue != 0x01234567 )
 446              		.loc 1 292 0
 447 0028 BB68     		ldr	r3, [r7, #8]
 448 002a 0D4A     		ldr	r2, .L33+4
 449 002c 9342     		cmp	r3, r2
 450 002e 02D0     		beq	.L30
 293:..\..\Common\Minimal/QPeek.c **** 		{
 294:..\..\Common\Minimal/QPeek.c **** 			/* We did not receive the expected value. */
 295:..\..\Common\Minimal/QPeek.c **** 			xErrorDetected = pdTRUE;
 451              		.loc 1 295 0
 452 0030 0A4B     		ldr	r3, .L33
 453 0032 0122     		movs	r2, #1
 454 0034 1A60     		str	r2, [r3]
 455              	.L30:
 296:..\..\Common\Minimal/QPeek.c **** 		}
 297:..\..\Common\Minimal/QPeek.c **** 
 298:..\..\Common\Minimal/QPeek.c **** 		if( uxQueueMessagesWaiting( xQueue ) != 1 )
 456              		.loc 1 298 0
 457 0036 F868     		ldr	r0, [r7, #12]
 458 0038 FFF7FEFF 		bl	uxQueueMessagesWaiting
 459 003c 0346     		mov	r3, r0
 460 003e 012B     		cmp	r3, #1
 461 0040 02D0     		beq	.L31
 299:..\..\Common\Minimal/QPeek.c **** 		{
 300:..\..\Common\Minimal/QPeek.c **** 			/* The message should have been left on the queue. */
 301:..\..\Common\Minimal/QPeek.c **** 			xErrorDetected = pdTRUE;
 462              		.loc 1 301 0
 463 0042 064B     		ldr	r3, .L33
 464 0044 0122     		movs	r2, #1
 465 0046 1A60     		str	r2, [r3]
 466              	.L31:
 302:..\..\Common\Minimal/QPeek.c **** 		}
 303:..\..\Common\Minimal/QPeek.c **** 
 304:..\..\Common\Minimal/QPeek.c **** 		/* Just so we know the test is still running. */
 305:..\..\Common\Minimal/QPeek.c **** 		ulLoopCounter++;
 467              		.loc 1 305 0
 468 0048 064B     		ldr	r3, .L33+8
 469 004a 1B68     		ldr	r3, [r3]
 470 004c 0133     		adds	r3, r3, #1
 471 004e 054A     		ldr	r2, .L33+8
 472 0050 1360     		str	r3, [r2]
 306:..\..\Common\Minimal/QPeek.c **** 
 307:..\..\Common\Minimal/QPeek.c **** 		/* Now we can suspend ourselves so the low priority task can execute
 308:..\..\Common\Minimal/QPeek.c **** 		again. */
 309:..\..\Common\Minimal/QPeek.c **** 		vTaskSuspend( NULL );
 473              		.loc 1 309 0
 474 0052 0020     		movs	r0, #0
 475 0054 FFF7FEFF 		bl	vTaskSuspend
 310:..\..\Common\Minimal/QPeek.c **** 	}
 476              		.loc 1 310 0
 477 0058 D8E7     		b	.L32
 478              	.L34:
 479 005a 00BF     		.align	2
 480              	.L33:
ARM GAS  C:\Users\Jamie\AppData\Local\Temp\ccNpZJrb.s 			page 15


 481 005c 00000000 		.word	xErrorDetected
 482 0060 67452301 		.word	19088743
 483 0064 04000000 		.word	ulLoopCounter
 484              		.cfi_endproc
 485              	.LFE71:
 486              		.size	prvMediumPriorityPeekTask, .-prvMediumPriorityPeekTask
 487              		.section	.text.prvLowPriorityPeekTask,"ax",%progbits
 488              		.align	2
 489              		.thumb
 490              		.thumb_func
 491              		.type	prvLowPriorityPeekTask, %function
 492              	prvLowPriorityPeekTask:
 493              	.LFB72:
 311:..\..\Common\Minimal/QPeek.c **** }
 312:..\..\Common\Minimal/QPeek.c **** /*-----------------------------------------------------------*/
 313:..\..\Common\Minimal/QPeek.c **** 
 314:..\..\Common\Minimal/QPeek.c **** static void prvLowPriorityPeekTask( void *pvParameters )
 315:..\..\Common\Minimal/QPeek.c **** {
 494              		.loc 1 315 0
 495              		.cfi_startproc
 496              		@ args = 0, pretend = 0, frame = 16
 497              		@ frame_needed = 1, uses_anonymous_args = 0
 498 0000 80B5     		push	{r7, lr}
 499              		.cfi_def_cfa_offset 8
 500              		.cfi_offset 7, -8
 501              		.cfi_offset 14, -4
 502 0002 84B0     		sub	sp, sp, #16
 503              		.cfi_def_cfa_offset 24
 504 0004 00AF     		add	r7, sp, #0
 505              		.cfi_def_cfa_register 7
 506 0006 7860     		str	r0, [r7, #4]
 316:..\..\Common\Minimal/QPeek.c **** QueueHandle_t xQueue = ( QueueHandle_t ) pvParameters;
 507              		.loc 1 316 0
 508 0008 7B68     		ldr	r3, [r7, #4]
 509 000a FB60     		str	r3, [r7, #12]
 510              	.L42:
 317:..\..\Common\Minimal/QPeek.c **** uint32_t ulValue;
 318:..\..\Common\Minimal/QPeek.c **** 
 319:..\..\Common\Minimal/QPeek.c **** 	for( ;; )
 320:..\..\Common\Minimal/QPeek.c **** 	{
 321:..\..\Common\Minimal/QPeek.c **** 		/* Write some data to the queue.  This should unblock the highest
 322:..\..\Common\Minimal/QPeek.c **** 		priority task that is waiting to peek data from the queue. */
 323:..\..\Common\Minimal/QPeek.c **** 		ulValue = 0x11223344;
 511              		.loc 1 323 0
 512 000c 3A4B     		ldr	r3, .L43
 513 000e BB60     		str	r3, [r7, #8]
 324:..\..\Common\Minimal/QPeek.c **** 		if( xQueueSendToBack( xQueue, &ulValue, qpeekNO_BLOCK ) != pdPASS )
 514              		.loc 1 324 0
 515 0010 07F10803 		add	r3, r7, #8
 516 0014 F868     		ldr	r0, [r7, #12]
 517 0016 1946     		mov	r1, r3
 518 0018 0022     		movs	r2, #0
 519 001a 0023     		movs	r3, #0
 520 001c FFF7FEFF 		bl	xQueueGenericSend
 521 0020 0346     		mov	r3, r0
 522 0022 012B     		cmp	r3, #1
 523 0024 02D0     		beq	.L36
ARM GAS  C:\Users\Jamie\AppData\Local\Temp\ccNpZJrb.s 			page 16


 325:..\..\Common\Minimal/QPeek.c **** 		{
 326:..\..\Common\Minimal/QPeek.c **** 			/* We were expecting the queue to be empty so we should not of
 327:..\..\Common\Minimal/QPeek.c **** 			had a problem writing to the queue. */
 328:..\..\Common\Minimal/QPeek.c **** 			xErrorDetected = pdTRUE;
 524              		.loc 1 328 0
 525 0026 354B     		ldr	r3, .L43+4
 526 0028 0122     		movs	r2, #1
 527 002a 1A60     		str	r2, [r3]
 528              	.L36:
 329:..\..\Common\Minimal/QPeek.c **** 		}
 330:..\..\Common\Minimal/QPeek.c **** 
 331:..\..\Common\Minimal/QPeek.c **** 		#if configUSE_PREEMPTION == 0
 332:..\..\Common\Minimal/QPeek.c **** 			taskYIELD();
 333:..\..\Common\Minimal/QPeek.c **** 		#endif
 334:..\..\Common\Minimal/QPeek.c **** 
 335:..\..\Common\Minimal/QPeek.c **** 		/* By the time we get here the data should have been removed from
 336:..\..\Common\Minimal/QPeek.c **** 		the queue. */
 337:..\..\Common\Minimal/QPeek.c **** 		if( uxQueueMessagesWaiting( xQueue ) != 0 )
 529              		.loc 1 337 0
 530 002c F868     		ldr	r0, [r7, #12]
 531 002e FFF7FEFF 		bl	uxQueueMessagesWaiting
 532 0032 0346     		mov	r3, r0
 533 0034 002B     		cmp	r3, #0
 534 0036 02D0     		beq	.L37
 338:..\..\Common\Minimal/QPeek.c **** 		{
 339:..\..\Common\Minimal/QPeek.c **** 			xErrorDetected = pdTRUE;
 535              		.loc 1 339 0
 536 0038 304B     		ldr	r3, .L43+4
 537 003a 0122     		movs	r2, #1
 538 003c 1A60     		str	r2, [r3]
 539              	.L37:
 340:..\..\Common\Minimal/QPeek.c **** 		}
 341:..\..\Common\Minimal/QPeek.c **** 
 342:..\..\Common\Minimal/QPeek.c **** 		/* Write another value to the queue, again waking the highest priority
 343:..\..\Common\Minimal/QPeek.c **** 		task that is blocked on the queue. */
 344:..\..\Common\Minimal/QPeek.c **** 		ulValue = 0x01234567;
 540              		.loc 1 344 0
 541 003e 304B     		ldr	r3, .L43+8
 542 0040 BB60     		str	r3, [r7, #8]
 345:..\..\Common\Minimal/QPeek.c **** 		if( xQueueSendToBack( xQueue, &ulValue, qpeekNO_BLOCK ) != pdPASS )
 543              		.loc 1 345 0
 544 0042 07F10803 		add	r3, r7, #8
 545 0046 F868     		ldr	r0, [r7, #12]
 546 0048 1946     		mov	r1, r3
 547 004a 0022     		movs	r2, #0
 548 004c 0023     		movs	r3, #0
 549 004e FFF7FEFF 		bl	xQueueGenericSend
 550 0052 0346     		mov	r3, r0
 551 0054 012B     		cmp	r3, #1
 552 0056 02D0     		beq	.L38
 346:..\..\Common\Minimal/QPeek.c **** 		{
 347:..\..\Common\Minimal/QPeek.c **** 			/* We were expecting the queue to be empty so we should not of
 348:..\..\Common\Minimal/QPeek.c **** 			had a problem writing to the queue. */
 349:..\..\Common\Minimal/QPeek.c **** 			xErrorDetected = pdTRUE;
 553              		.loc 1 349 0
 554 0058 284B     		ldr	r3, .L43+4
 555 005a 0122     		movs	r2, #1
ARM GAS  C:\Users\Jamie\AppData\Local\Temp\ccNpZJrb.s 			page 17


 556 005c 1A60     		str	r2, [r3]
 557              	.L38:
 350:..\..\Common\Minimal/QPeek.c **** 		}
 351:..\..\Common\Minimal/QPeek.c **** 
 352:..\..\Common\Minimal/QPeek.c **** 		#if configUSE_PREEMPTION == 0
 353:..\..\Common\Minimal/QPeek.c **** 			taskYIELD();
 354:..\..\Common\Minimal/QPeek.c **** 		#endif
 355:..\..\Common\Minimal/QPeek.c **** 
 356:..\..\Common\Minimal/QPeek.c **** 		/* All the other tasks should now have successfully peeked the data.
 357:..\..\Common\Minimal/QPeek.c **** 		The data is still in the queue so we should be able to receive it. */
 358:..\..\Common\Minimal/QPeek.c **** 		ulValue = 0;
 558              		.loc 1 358 0
 559 005e 0023     		movs	r3, #0
 560 0060 BB60     		str	r3, [r7, #8]
 359:..\..\Common\Minimal/QPeek.c **** 		if( xQueueReceive( xQueue, &ulValue, qpeekNO_BLOCK ) != pdPASS )
 561              		.loc 1 359 0
 562 0062 07F10803 		add	r3, r7, #8
 563 0066 F868     		ldr	r0, [r7, #12]
 564 0068 1946     		mov	r1, r3
 565 006a 0022     		movs	r2, #0
 566 006c FFF7FEFF 		bl	xQueueReceive
 567 0070 0346     		mov	r3, r0
 568 0072 012B     		cmp	r3, #1
 569 0074 02D0     		beq	.L39
 360:..\..\Common\Minimal/QPeek.c **** 		{
 361:..\..\Common\Minimal/QPeek.c **** 			/* We expected to receive the data. */
 362:..\..\Common\Minimal/QPeek.c **** 			xErrorDetected = pdTRUE;
 570              		.loc 1 362 0
 571 0076 214B     		ldr	r3, .L43+4
 572 0078 0122     		movs	r2, #1
 573 007a 1A60     		str	r2, [r3]
 574              	.L39:
 363:..\..\Common\Minimal/QPeek.c **** 		}
 364:..\..\Common\Minimal/QPeek.c **** 
 365:..\..\Common\Minimal/QPeek.c **** 		if( ulValue != 0x01234567 )
 366:..\..\Common\Minimal/QPeek.c **** 		{
 367:..\..\Common\Minimal/QPeek.c **** 			/* We did not receive the expected value. */
 368:..\..\Common\Minimal/QPeek.c **** 		}
 369:..\..\Common\Minimal/QPeek.c **** 
 370:..\..\Common\Minimal/QPeek.c **** 		/* Lets just delay a while as this is an intensive test as we don't
 371:..\..\Common\Minimal/QPeek.c **** 		want to starve other tests of processing time. */
 372:..\..\Common\Minimal/QPeek.c **** 		vTaskDelay( qpeekSHORT_DELAY );
 575              		.loc 1 372 0
 576 007c 0A20     		movs	r0, #10
 577 007e FFF7FEFF 		bl	vTaskDelay
 373:..\..\Common\Minimal/QPeek.c **** 
 374:..\..\Common\Minimal/QPeek.c **** 		/* Unsuspend the other tasks so we can repeat the test - this time
 375:..\..\Common\Minimal/QPeek.c **** 		however not all the other tasks will peek the data as the high
 376:..\..\Common\Minimal/QPeek.c **** 		priority task is actually going to remove it from the queue.  Send
 377:..\..\Common\Minimal/QPeek.c **** 		to front is used just to be different.  As the queue is empty it
 378:..\..\Common\Minimal/QPeek.c **** 		makes no difference to the result. */
 379:..\..\Common\Minimal/QPeek.c **** 		vTaskResume( xMediumPriorityTask );
 578              		.loc 1 379 0
 579 0082 204B     		ldr	r3, .L43+12
 580 0084 1B68     		ldr	r3, [r3]
 581 0086 1846     		mov	r0, r3
 582 0088 FFF7FEFF 		bl	vTaskResume
ARM GAS  C:\Users\Jamie\AppData\Local\Temp\ccNpZJrb.s 			page 18


 380:..\..\Common\Minimal/QPeek.c **** 		vTaskResume( xHighPriorityTask );
 583              		.loc 1 380 0
 584 008c 1E4B     		ldr	r3, .L43+16
 585 008e 1B68     		ldr	r3, [r3]
 586 0090 1846     		mov	r0, r3
 587 0092 FFF7FEFF 		bl	vTaskResume
 381:..\..\Common\Minimal/QPeek.c **** 		vTaskResume( xHighestPriorityTask );
 588              		.loc 1 381 0
 589 0096 1D4B     		ldr	r3, .L43+20
 590 0098 1B68     		ldr	r3, [r3]
 591 009a 1846     		mov	r0, r3
 592 009c FFF7FEFF 		bl	vTaskResume
 382:..\..\Common\Minimal/QPeek.c **** 
 383:..\..\Common\Minimal/QPeek.c **** 		#if( configUSE_PREEMPTION == 0 )
 384:..\..\Common\Minimal/QPeek.c **** 			taskYIELD();
 385:..\..\Common\Minimal/QPeek.c **** 		#endif
 386:..\..\Common\Minimal/QPeek.c **** 
 387:..\..\Common\Minimal/QPeek.c **** 		ulValue = 0xaabbaabb;
 593              		.loc 1 387 0
 594 00a0 1B4B     		ldr	r3, .L43+24
 595 00a2 BB60     		str	r3, [r7, #8]
 388:..\..\Common\Minimal/QPeek.c **** 		if( xQueueSendToFront( xQueue, &ulValue, qpeekNO_BLOCK ) != pdPASS )
 596              		.loc 1 388 0
 597 00a4 07F10803 		add	r3, r7, #8
 598 00a8 F868     		ldr	r0, [r7, #12]
 599 00aa 1946     		mov	r1, r3
 600 00ac 0022     		movs	r2, #0
 601 00ae 0123     		movs	r3, #1
 602 00b0 FFF7FEFF 		bl	xQueueGenericSend
 603 00b4 0346     		mov	r3, r0
 604 00b6 012B     		cmp	r3, #1
 605 00b8 02D0     		beq	.L40
 389:..\..\Common\Minimal/QPeek.c **** 		{
 390:..\..\Common\Minimal/QPeek.c **** 			/* We were expecting the queue to be empty so we should not of
 391:..\..\Common\Minimal/QPeek.c **** 			had a problem writing to the queue. */
 392:..\..\Common\Minimal/QPeek.c **** 			xErrorDetected = pdTRUE;
 606              		.loc 1 392 0
 607 00ba 104B     		ldr	r3, .L43+4
 608 00bc 0122     		movs	r2, #1
 609 00be 1A60     		str	r2, [r3]
 610              	.L40:
 393:..\..\Common\Minimal/QPeek.c **** 		}
 394:..\..\Common\Minimal/QPeek.c **** 
 395:..\..\Common\Minimal/QPeek.c **** 		#if configUSE_PREEMPTION == 0
 396:..\..\Common\Minimal/QPeek.c **** 			taskYIELD();
 397:..\..\Common\Minimal/QPeek.c **** 		#endif
 398:..\..\Common\Minimal/QPeek.c **** 
 399:..\..\Common\Minimal/QPeek.c **** 		/* This time we should find that the queue is empty.  The high priority
 400:..\..\Common\Minimal/QPeek.c **** 		task actually removed the data rather than just peeking it. */
 401:..\..\Common\Minimal/QPeek.c **** 		if( xQueuePeek( xQueue, &ulValue, qpeekNO_BLOCK ) != errQUEUE_EMPTY )
 611              		.loc 1 401 0
 612 00c0 07F10803 		add	r3, r7, #8
 613 00c4 F868     		ldr	r0, [r7, #12]
 614 00c6 1946     		mov	r1, r3
 615 00c8 0022     		movs	r2, #0
 616 00ca FFF7FEFF 		bl	xQueuePeek
 617 00ce 0346     		mov	r3, r0
ARM GAS  C:\Users\Jamie\AppData\Local\Temp\ccNpZJrb.s 			page 19


 618 00d0 002B     		cmp	r3, #0
 619 00d2 02D0     		beq	.L41
 402:..\..\Common\Minimal/QPeek.c **** 		{
 403:..\..\Common\Minimal/QPeek.c **** 			/* We expected to receive the data. */
 404:..\..\Common\Minimal/QPeek.c **** 			xErrorDetected = pdTRUE;
 620              		.loc 1 404 0
 621 00d4 094B     		ldr	r3, .L43+4
 622 00d6 0122     		movs	r2, #1
 623 00d8 1A60     		str	r2, [r3]
 624              	.L41:
 405:..\..\Common\Minimal/QPeek.c **** 		}
 406:..\..\Common\Minimal/QPeek.c **** 
 407:..\..\Common\Minimal/QPeek.c **** 		/* Unsuspend the highest and high priority tasks so we can go back
 408:..\..\Common\Minimal/QPeek.c **** 		and repeat the whole thing.  The medium priority task should not be
 409:..\..\Common\Minimal/QPeek.c **** 		suspended as it was not able to peek the data in this last case. */
 410:..\..\Common\Minimal/QPeek.c **** 		vTaskResume( xHighPriorityTask );
 625              		.loc 1 410 0
 626 00da 0B4B     		ldr	r3, .L43+16
 627 00dc 1B68     		ldr	r3, [r3]
 628 00de 1846     		mov	r0, r3
 629 00e0 FFF7FEFF 		bl	vTaskResume
 411:..\..\Common\Minimal/QPeek.c **** 		vTaskResume( xHighestPriorityTask );
 630              		.loc 1 411 0
 631 00e4 094B     		ldr	r3, .L43+20
 632 00e6 1B68     		ldr	r3, [r3]
 633 00e8 1846     		mov	r0, r3
 634 00ea FFF7FEFF 		bl	vTaskResume
 412:..\..\Common\Minimal/QPeek.c **** 
 413:..\..\Common\Minimal/QPeek.c **** 		/* Lets just delay a while as this is an intensive test as we don't
 414:..\..\Common\Minimal/QPeek.c **** 		want to starve other tests of processing time. */
 415:..\..\Common\Minimal/QPeek.c **** 		vTaskDelay( qpeekSHORT_DELAY );
 635              		.loc 1 415 0
 636 00ee 0A20     		movs	r0, #10
 637 00f0 FFF7FEFF 		bl	vTaskDelay
 416:..\..\Common\Minimal/QPeek.c **** 	}
 638              		.loc 1 416 0
 639 00f4 8AE7     		b	.L42
 640              	.L44:
 641 00f6 00BF     		.align	2
 642              	.L43:
 643 00f8 44332211 		.word	287454020
 644 00fc 00000000 		.word	xErrorDetected
 645 0100 67452301 		.word	19088743
 646 0104 00000000 		.word	xMediumPriorityTask
 647 0108 00000000 		.word	xHighPriorityTask
 648 010c 00000000 		.word	xHighestPriorityTask
 649 0110 BBAABBAA 		.word	-1430541637
 650              		.cfi_endproc
 651              	.LFE72:
 652              		.size	prvLowPriorityPeekTask, .-prvLowPriorityPeekTask
 653              		.section	.text.xAreQueuePeekTasksStillRunning,"ax",%progbits
 654              		.align	2
 655              		.global	xAreQueuePeekTasksStillRunning
 656              		.thumb
 657              		.thumb_func
 658              		.type	xAreQueuePeekTasksStillRunning, %function
 659              	xAreQueuePeekTasksStillRunning:
ARM GAS  C:\Users\Jamie\AppData\Local\Temp\ccNpZJrb.s 			page 20


 660              	.LFB73:
 417:..\..\Common\Minimal/QPeek.c **** }
 418:..\..\Common\Minimal/QPeek.c **** /*-----------------------------------------------------------*/
 419:..\..\Common\Minimal/QPeek.c **** 
 420:..\..\Common\Minimal/QPeek.c **** /* This is called to check that all the created tasks are still running. */
 421:..\..\Common\Minimal/QPeek.c **** BaseType_t xAreQueuePeekTasksStillRunning( void )
 422:..\..\Common\Minimal/QPeek.c **** {
 661              		.loc 1 422 0
 662              		.cfi_startproc
 663              		@ args = 0, pretend = 0, frame = 0
 664              		@ frame_needed = 1, uses_anonymous_args = 0
 665              		@ link register save eliminated.
 666 0000 80B4     		push	{r7}
 667              		.cfi_def_cfa_offset 4
 668              		.cfi_offset 7, -4
 669 0002 00AF     		add	r7, sp, #0
 670              		.cfi_def_cfa_register 7
 423:..\..\Common\Minimal/QPeek.c **** static uint32_t ulLastLoopCounter = 0;
 424:..\..\Common\Minimal/QPeek.c **** 
 425:..\..\Common\Minimal/QPeek.c **** 	/* If the demo task is still running then we expect the loopcounter to
 426:..\..\Common\Minimal/QPeek.c **** 	have incremented since this function was last called. */
 427:..\..\Common\Minimal/QPeek.c **** 	if( ulLastLoopCounter == ulLoopCounter )
 671              		.loc 1 427 0
 672 0004 0C4B     		ldr	r3, .L48
 673 0006 1A68     		ldr	r2, [r3]
 674 0008 0C4B     		ldr	r3, .L48+4
 675 000a 1B68     		ldr	r3, [r3]
 676 000c 9A42     		cmp	r2, r3
 677 000e 02D1     		bne	.L46
 428:..\..\Common\Minimal/QPeek.c **** 	{
 429:..\..\Common\Minimal/QPeek.c **** 		xErrorDetected = pdTRUE;
 678              		.loc 1 429 0
 679 0010 0B4B     		ldr	r3, .L48+8
 680 0012 0122     		movs	r2, #1
 681 0014 1A60     		str	r2, [r3]
 682              	.L46:
 430:..\..\Common\Minimal/QPeek.c **** 	}
 431:..\..\Common\Minimal/QPeek.c **** 
 432:..\..\Common\Minimal/QPeek.c **** 	ulLastLoopCounter = ulLoopCounter;
 683              		.loc 1 432 0
 684 0016 094B     		ldr	r3, .L48+4
 685 0018 1B68     		ldr	r3, [r3]
 686 001a 074A     		ldr	r2, .L48
 687 001c 1360     		str	r3, [r2]
 433:..\..\Common\Minimal/QPeek.c **** 
 434:..\..\Common\Minimal/QPeek.c **** 	/* Errors detected in the task itself will have latched xErrorDetected
 435:..\..\Common\Minimal/QPeek.c **** 	to true. */
 436:..\..\Common\Minimal/QPeek.c **** 
 437:..\..\Common\Minimal/QPeek.c **** 	return ( BaseType_t ) !xErrorDetected;
 688              		.loc 1 437 0
 689 001e 084B     		ldr	r3, .L48+8
 690 0020 1B68     		ldr	r3, [r3]
 691 0022 002B     		cmp	r3, #0
 692 0024 0CBF     		ite	eq
 693 0026 0123     		moveq	r3, #1
 694 0028 0023     		movne	r3, #0
 695 002a DBB2     		uxtb	r3, r3
ARM GAS  C:\Users\Jamie\AppData\Local\Temp\ccNpZJrb.s 			page 21


 438:..\..\Common\Minimal/QPeek.c **** }
 696              		.loc 1 438 0
 697 002c 1846     		mov	r0, r3
 698 002e BD46     		mov	sp, r7
 699              		.cfi_def_cfa_register 13
 700              		@ sp needed
 701 0030 5DF8047B 		ldr	r7, [sp], #4
 702              		.cfi_restore 7
 703              		.cfi_def_cfa_offset 0
 704 0034 7047     		bx	lr
 705              	.L49:
 706 0036 00BF     		.align	2
 707              	.L48:
 708 0038 08000000 		.word	ulLastLoopCounter.6810
 709 003c 04000000 		.word	ulLoopCounter
 710 0040 00000000 		.word	xErrorDetected
 711              		.cfi_endproc
 712              	.LFE73:
 713              		.size	xAreQueuePeekTasksStillRunning, .-xAreQueuePeekTasksStillRunning
 714              		.bss
 715              		.align	2
 716              	ulLastLoopCounter.6810:
 717 0008 00000000 		.space	4
 718              		.text
 719              	.Letext0:
 720              		.file 2 "c:\\program files (x86)\\cypress\\psoc creator\\4.0\\psoc creator\\import\\gnu\\arm\\4.9.
 721              		.file 3 "c:\\program files (x86)\\cypress\\psoc creator\\4.0\\psoc creator\\import\\gnu\\arm\\4.9.
 722              		.file 4 "../../../Source/portable/GCC/ARM_CM3/portmacro.h"
 723              		.file 5 "../../../Source/include/task.h"
 724              		.file 6 "../../../Source/include/queue.h"
 725              		.file 7 "Generated_Source\\PSoC5/core_cm3.h"