ARM GAS  C:\Users\Jamie\AppData\Local\Temp\ccvIEdxh.s 			page 1


   1              		.syntax unified
   2              		.cpu cortex-m3
   3              		.fpu softvfp
   4              		.eabi_attribute 20, 1
   5              		.eabi_attribute 21, 1
   6              		.eabi_attribute 23, 3
   7              		.eabi_attribute 24, 1
   8              		.eabi_attribute 25, 1
   9              		.eabi_attribute 26, 1
  10              		.eabi_attribute 30, 6
  11              		.eabi_attribute 34, 1
  12              		.eabi_attribute 18, 4
  13              		.thumb
  14              		.file	"semtest.c"
  15              		.text
  16              	.Ltext0:
  17              		.cfi_sections	.debug_frame
  18              		.bss
  19              		.align	2
  20              	sCheckVariables:
  21 0000 00000000 		.space	8
  21      00000000 
  22              		.align	1
  23              	sNextCheckVariable:
  24 0008 0000     		.space	2
  25              		.section	.rodata
  26              		.align	2
  27              	.LC0:
  28 0000 506F6C53 		.ascii	"PolSEM1\000"
  28      454D3100 
  29              		.align	2
  30              	.LC1:
  31 0008 506F6C53 		.ascii	"PolSEM2\000"
  31      454D3200 
  32              		.align	2
  33              	.LC2:
  34 0010 436F756E 		.ascii	"Counting_Sem_1\000"
  34      74696E67 
  34      5F53656D 
  34      5F3100
  35 001f 00       		.align	2
  36              	.LC3:
  37 0020 426C6B53 		.ascii	"BlkSEM1\000"
  37      454D3100 
  38              		.align	2
  39              	.LC4:
  40 0028 426C6B53 		.ascii	"BlkSEM2\000"
  40      454D3200 
  41              		.align	2
  42              	.LC5:
  43 0030 436F756E 		.ascii	"Counting_Sem_2\000"
  43      74696E67 
  43      5F53656D 
  43      5F3200
  44 003f 00       		.section	.text.vStartSemaphoreTasks,"ax",%progbits
  45              		.align	2
  46              		.global	vStartSemaphoreTasks
ARM GAS  C:\Users\Jamie\AppData\Local\Temp\ccvIEdxh.s 			page 2


  47              		.thumb
  48              		.thumb_func
  49              		.type	vStartSemaphoreTasks, %function
  50              	vStartSemaphoreTasks:
  51              	.LFB68:
  52              		.file 1 "..\\..\\Common\\Minimal\\semtest.c"
   1:..\..\Common\Minimal/semtest.c **** /*
   2:..\..\Common\Minimal/semtest.c ****  * FreeRTOS Kernel V10.0.1
   3:..\..\Common\Minimal/semtest.c ****  * Copyright (C) 2017 Amazon.com, Inc. or its affiliates.  All Rights Reserved.
   4:..\..\Common\Minimal/semtest.c ****  *
   5:..\..\Common\Minimal/semtest.c ****  * Permission is hereby granted, free of charge, to any person obtaining a copy of
   6:..\..\Common\Minimal/semtest.c ****  * this software and associated documentation files (the "Software"), to deal in
   7:..\..\Common\Minimal/semtest.c ****  * the Software without restriction, including without limitation the rights to
   8:..\..\Common\Minimal/semtest.c ****  * use, copy, modify, merge, publish, distribute, sublicense, and/or sell copies of
   9:..\..\Common\Minimal/semtest.c ****  * the Software, and to permit persons to whom the Software is furnished to do so,
  10:..\..\Common\Minimal/semtest.c ****  * subject to the following conditions:
  11:..\..\Common\Minimal/semtest.c ****  *
  12:..\..\Common\Minimal/semtest.c ****  * The above copyright notice and this permission notice shall be included in all
  13:..\..\Common\Minimal/semtest.c ****  * copies or substantial portions of the Software.
  14:..\..\Common\Minimal/semtest.c ****  *
  15:..\..\Common\Minimal/semtest.c ****  * THE SOFTWARE IS PROVIDED "AS IS", WITHOUT WARRANTY OF ANY KIND, EXPRESS OR
  16:..\..\Common\Minimal/semtest.c ****  * IMPLIED, INCLUDING BUT NOT LIMITED TO THE WARRANTIES OF MERCHANTABILITY, FITNESS
  17:..\..\Common\Minimal/semtest.c ****  * FOR A PARTICULAR PURPOSE AND NONINFRINGEMENT. IN NO EVENT SHALL THE AUTHORS OR
  18:..\..\Common\Minimal/semtest.c ****  * COPYRIGHT HOLDERS BE LIABLE FOR ANY CLAIM, DAMAGES OR OTHER LIABILITY, WHETHER
  19:..\..\Common\Minimal/semtest.c ****  * IN AN ACTION OF CONTRACT, TORT OR OTHERWISE, ARISING FROM, OUT OF OR IN
  20:..\..\Common\Minimal/semtest.c ****  * CONNECTION WITH THE SOFTWARE OR THE USE OR OTHER DEALINGS IN THE SOFTWARE.
  21:..\..\Common\Minimal/semtest.c ****  *
  22:..\..\Common\Minimal/semtest.c ****  * http://www.FreeRTOS.org
  23:..\..\Common\Minimal/semtest.c ****  * http://aws.amazon.com/freertos
  24:..\..\Common\Minimal/semtest.c ****  *
  25:..\..\Common\Minimal/semtest.c ****  * 1 tab == 4 spaces!
  26:..\..\Common\Minimal/semtest.c ****  */
  27:..\..\Common\Minimal/semtest.c **** 
  28:..\..\Common\Minimal/semtest.c **** /*
  29:..\..\Common\Minimal/semtest.c ****  * Creates two sets of two tasks.  The tasks within a set share a variable, access
  30:..\..\Common\Minimal/semtest.c ****  * to which is guarded by a semaphore.
  31:..\..\Common\Minimal/semtest.c ****  *
  32:..\..\Common\Minimal/semtest.c ****  * Each task starts by attempting to obtain the semaphore.  On obtaining a
  33:..\..\Common\Minimal/semtest.c ****  * semaphore a task checks to ensure that the guarded variable has an expected
  34:..\..\Common\Minimal/semtest.c ****  * value.  It then clears the variable to zero before counting it back up to the
  35:..\..\Common\Minimal/semtest.c ****  * expected value in increments of 1.  After each increment the variable is checked
  36:..\..\Common\Minimal/semtest.c ****  * to ensure it contains the value to which it was just set. When the starting
  37:..\..\Common\Minimal/semtest.c ****  * value is again reached the task releases the semaphore giving the other task in
  38:..\..\Common\Minimal/semtest.c ****  * the set a chance to do exactly the same thing.  The starting value is high
  39:..\..\Common\Minimal/semtest.c ****  * enough to ensure that a tick is likely to occur during the incrementing loop.
  40:..\..\Common\Minimal/semtest.c ****  *
  41:..\..\Common\Minimal/semtest.c ****  * An error is flagged if at any time during the process a shared variable is
  42:..\..\Common\Minimal/semtest.c ****  * found to have a value other than that expected.  Such an occurrence would
  43:..\..\Common\Minimal/semtest.c ****  * suggest an error in the mutual exclusion mechanism by which access to the
  44:..\..\Common\Minimal/semtest.c ****  * variable is restricted.
  45:..\..\Common\Minimal/semtest.c ****  *
  46:..\..\Common\Minimal/semtest.c ****  * The first set of two tasks poll their semaphore.  The second set use blocking
  47:..\..\Common\Minimal/semtest.c ****  * calls.
  48:..\..\Common\Minimal/semtest.c ****  *
  49:..\..\Common\Minimal/semtest.c ****  */
  50:..\..\Common\Minimal/semtest.c **** 
  51:..\..\Common\Minimal/semtest.c **** 
ARM GAS  C:\Users\Jamie\AppData\Local\Temp\ccvIEdxh.s 			page 3


  52:..\..\Common\Minimal/semtest.c **** #include <stdlib.h>
  53:..\..\Common\Minimal/semtest.c **** 
  54:..\..\Common\Minimal/semtest.c **** /* Scheduler include files. */
  55:..\..\Common\Minimal/semtest.c **** #include "FreeRTOS.h"
  56:..\..\Common\Minimal/semtest.c **** #include "task.h"
  57:..\..\Common\Minimal/semtest.c **** #include "semphr.h"
  58:..\..\Common\Minimal/semtest.c **** 
  59:..\..\Common\Minimal/semtest.c **** /* Demo app include files. */
  60:..\..\Common\Minimal/semtest.c **** #include "semtest.h"
  61:..\..\Common\Minimal/semtest.c **** 
  62:..\..\Common\Minimal/semtest.c **** /* The value to which the shared variables are counted. */
  63:..\..\Common\Minimal/semtest.c **** #define semtstBLOCKING_EXPECTED_VALUE		( ( uint32_t ) 0xfff )
  64:..\..\Common\Minimal/semtest.c **** #define semtstNON_BLOCKING_EXPECTED_VALUE	( ( uint32_t ) 0xff  )
  65:..\..\Common\Minimal/semtest.c **** 
  66:..\..\Common\Minimal/semtest.c **** #define semtstSTACK_SIZE			configMINIMAL_STACK_SIZE
  67:..\..\Common\Minimal/semtest.c **** 
  68:..\..\Common\Minimal/semtest.c **** #define semtstNUM_TASKS				( 4 )
  69:..\..\Common\Minimal/semtest.c **** 
  70:..\..\Common\Minimal/semtest.c **** #define semtstDELAY_FACTOR			( ( TickType_t ) 10 )
  71:..\..\Common\Minimal/semtest.c **** 
  72:..\..\Common\Minimal/semtest.c **** /* The task function as described at the top of the file. */
  73:..\..\Common\Minimal/semtest.c **** static portTASK_FUNCTION_PROTO( prvSemaphoreTest, pvParameters );
  74:..\..\Common\Minimal/semtest.c **** 
  75:..\..\Common\Minimal/semtest.c **** /* Structure used to pass parameters to each task. */
  76:..\..\Common\Minimal/semtest.c **** typedef struct SEMAPHORE_PARAMETERS
  77:..\..\Common\Minimal/semtest.c **** {
  78:..\..\Common\Minimal/semtest.c **** 	SemaphoreHandle_t xSemaphore;
  79:..\..\Common\Minimal/semtest.c **** 	volatile uint32_t *pulSharedVariable;
  80:..\..\Common\Minimal/semtest.c **** 	TickType_t xBlockTime;
  81:..\..\Common\Minimal/semtest.c **** } xSemaphoreParameters;
  82:..\..\Common\Minimal/semtest.c **** 
  83:..\..\Common\Minimal/semtest.c **** /* Variables used to check that all the tasks are still running without errors. */
  84:..\..\Common\Minimal/semtest.c **** static volatile short sCheckVariables[ semtstNUM_TASKS ] = { 0 };
  85:..\..\Common\Minimal/semtest.c **** static volatile short sNextCheckVariable = 0;
  86:..\..\Common\Minimal/semtest.c **** 
  87:..\..\Common\Minimal/semtest.c **** /*-----------------------------------------------------------*/
  88:..\..\Common\Minimal/semtest.c **** 
  89:..\..\Common\Minimal/semtest.c **** void vStartSemaphoreTasks( UBaseType_t uxPriority )
  90:..\..\Common\Minimal/semtest.c **** {
  53              		.loc 1 90 0
  54              		.cfi_startproc
  55              		@ args = 0, pretend = 0, frame = 24
  56              		@ frame_needed = 1, uses_anonymous_args = 0
  57 0000 80B5     		push	{r7, lr}
  58              		.cfi_def_cfa_offset 8
  59              		.cfi_offset 7, -8
  60              		.cfi_offset 14, -4
  61 0002 88B0     		sub	sp, sp, #32
  62              		.cfi_def_cfa_offset 40
  63 0004 02AF     		add	r7, sp, #8
  64              		.cfi_def_cfa 7, 32
  65 0006 7860     		str	r0, [r7, #4]
  91:..\..\Common\Minimal/semtest.c **** xSemaphoreParameters *pxFirstSemaphoreParameters, *pxSecondSemaphoreParameters;
  92:..\..\Common\Minimal/semtest.c **** const TickType_t xBlockTime = ( TickType_t ) 100;
  66              		.loc 1 92 0
  67 0008 6423     		movs	r3, #100
  68 000a 7B61     		str	r3, [r7, #20]
ARM GAS  C:\Users\Jamie\AppData\Local\Temp\ccvIEdxh.s 			page 4


  93:..\..\Common\Minimal/semtest.c **** 
  94:..\..\Common\Minimal/semtest.c **** 	/* Create the structure used to pass parameters to the first two tasks. */
  95:..\..\Common\Minimal/semtest.c **** 	pxFirstSemaphoreParameters = ( xSemaphoreParameters * ) pvPortMalloc( sizeof( xSemaphoreParameters
  69              		.loc 1 95 0
  70 000c 0C20     		movs	r0, #12
  71 000e FFF7FEFF 		bl	pvPortMalloc
  72 0012 3861     		str	r0, [r7, #16]
  96:..\..\Common\Minimal/semtest.c **** 
  97:..\..\Common\Minimal/semtest.c **** 	if( pxFirstSemaphoreParameters != NULL )
  73              		.loc 1 97 0
  74 0014 3B69     		ldr	r3, [r7, #16]
  75 0016 002B     		cmp	r3, #0
  76 0018 3AD0     		beq	.L2
  98:..\..\Common\Minimal/semtest.c **** 	{
  99:..\..\Common\Minimal/semtest.c **** 		/* Create the semaphore used by the first two tasks. */
 100:..\..\Common\Minimal/semtest.c **** 		pxFirstSemaphoreParameters->xSemaphore = xSemaphoreCreateBinary();
  77              		.loc 1 100 0
  78 001a 0120     		movs	r0, #1
  79 001c 0021     		movs	r1, #0
  80 001e 0322     		movs	r2, #3
  81 0020 FFF7FEFF 		bl	xQueueGenericCreate
  82 0024 0246     		mov	r2, r0
  83 0026 3B69     		ldr	r3, [r7, #16]
  84 0028 1A60     		str	r2, [r3]
 101:..\..\Common\Minimal/semtest.c **** 
 102:..\..\Common\Minimal/semtest.c **** 		if( pxFirstSemaphoreParameters->xSemaphore != NULL )
  85              		.loc 1 102 0
  86 002a 3B69     		ldr	r3, [r7, #16]
  87 002c 1B68     		ldr	r3, [r3]
  88 002e 002B     		cmp	r3, #0
  89 0030 2ED0     		beq	.L2
 103:..\..\Common\Minimal/semtest.c **** 		{
 104:..\..\Common\Minimal/semtest.c **** 			xSemaphoreGive( pxFirstSemaphoreParameters->xSemaphore );
  90              		.loc 1 104 0
  91 0032 3B69     		ldr	r3, [r7, #16]
  92 0034 1B68     		ldr	r3, [r3]
  93 0036 1846     		mov	r0, r3
  94 0038 0021     		movs	r1, #0
  95 003a 0022     		movs	r2, #0
  96 003c 0023     		movs	r3, #0
  97 003e FFF7FEFF 		bl	xQueueGenericSend
 105:..\..\Common\Minimal/semtest.c **** 
 106:..\..\Common\Minimal/semtest.c **** 			/* Create the variable which is to be shared by the first two tasks. */
 107:..\..\Common\Minimal/semtest.c **** 			pxFirstSemaphoreParameters->pulSharedVariable = ( uint32_t * ) pvPortMalloc( sizeof( uint32_t ) 
  98              		.loc 1 107 0
  99 0042 0420     		movs	r0, #4
 100 0044 FFF7FEFF 		bl	pvPortMalloc
 101 0048 0246     		mov	r2, r0
 102 004a 3B69     		ldr	r3, [r7, #16]
 103 004c 5A60     		str	r2, [r3, #4]
 108:..\..\Common\Minimal/semtest.c **** 
 109:..\..\Common\Minimal/semtest.c **** 			/* Initialise the share variable to the value the tasks expect. */
 110:..\..\Common\Minimal/semtest.c **** 			*( pxFirstSemaphoreParameters->pulSharedVariable ) = semtstNON_BLOCKING_EXPECTED_VALUE;
 104              		.loc 1 110 0
 105 004e 3B69     		ldr	r3, [r7, #16]
 106 0050 5B68     		ldr	r3, [r3, #4]
 107 0052 FF22     		movs	r2, #255
ARM GAS  C:\Users\Jamie\AppData\Local\Temp\ccvIEdxh.s 			page 5


 108 0054 1A60     		str	r2, [r3]
 111:..\..\Common\Minimal/semtest.c **** 
 112:..\..\Common\Minimal/semtest.c **** 			/* The first two tasks do not block on semaphore calls. */
 113:..\..\Common\Minimal/semtest.c **** 			pxFirstSemaphoreParameters->xBlockTime = ( TickType_t ) 0;
 109              		.loc 1 113 0
 110 0056 3B69     		ldr	r3, [r7, #16]
 111 0058 0022     		movs	r2, #0
 112 005a 9A60     		str	r2, [r3, #8]
 114:..\..\Common\Minimal/semtest.c **** 
 115:..\..\Common\Minimal/semtest.c **** 			/* Spawn the first two tasks.  As they poll they operate at the idle priority. */
 116:..\..\Common\Minimal/semtest.c **** 			xTaskCreate( prvSemaphoreTest, "PolSEM1", semtstSTACK_SIZE, ( void * ) pxFirstSemaphoreParameter
 113              		.loc 1 116 0
 114 005c 0023     		movs	r3, #0
 115 005e 0093     		str	r3, [sp]
 116 0060 0023     		movs	r3, #0
 117 0062 0193     		str	r3, [sp, #4]
 118 0064 2D48     		ldr	r0, .L4
 119 0066 2E49     		ldr	r1, .L4+4
 120 0068 6422     		movs	r2, #100
 121 006a 3B69     		ldr	r3, [r7, #16]
 122 006c FFF7FEFF 		bl	xTaskCreate
 117:..\..\Common\Minimal/semtest.c **** 			xTaskCreate( prvSemaphoreTest, "PolSEM2", semtstSTACK_SIZE, ( void * ) pxFirstSemaphoreParameter
 123              		.loc 1 117 0
 124 0070 0023     		movs	r3, #0
 125 0072 0093     		str	r3, [sp]
 126 0074 0023     		movs	r3, #0
 127 0076 0193     		str	r3, [sp, #4]
 128 0078 2848     		ldr	r0, .L4
 129 007a 2A49     		ldr	r1, .L4+8
 130 007c 6422     		movs	r2, #100
 131 007e 3B69     		ldr	r3, [r7, #16]
 132 0080 FFF7FEFF 		bl	xTaskCreate
 118:..\..\Common\Minimal/semtest.c **** 
 119:..\..\Common\Minimal/semtest.c **** 			/* vQueueAddToRegistry() adds the semaphore to the registry, if one
 120:..\..\Common\Minimal/semtest.c **** 			is in use.  The registry is provided as a means for kernel aware
 121:..\..\Common\Minimal/semtest.c **** 			debuggers to locate semaphores and has no purpose if a kernel aware
 122:..\..\Common\Minimal/semtest.c **** 			debugger is not being used.  The call to vQueueAddToRegistry() will
 123:..\..\Common\Minimal/semtest.c **** 			be removed by the pre-processor if configQUEUE_REGISTRY_SIZE is not
 124:..\..\Common\Minimal/semtest.c **** 			defined or is defined to be less than 1. */
 125:..\..\Common\Minimal/semtest.c **** 			vQueueAddToRegistry( ( QueueHandle_t ) pxFirstSemaphoreParameters->xSemaphore, "Counting_Sem_1" 
 133              		.loc 1 125 0
 134 0084 3B69     		ldr	r3, [r7, #16]
 135 0086 1B68     		ldr	r3, [r3]
 136 0088 1846     		mov	r0, r3
 137 008a 2749     		ldr	r1, .L4+12
 138 008c FFF7FEFF 		bl	vQueueAddToRegistry
 139              	.L2:
 126:..\..\Common\Minimal/semtest.c **** 		}
 127:..\..\Common\Minimal/semtest.c **** 	}
 128:..\..\Common\Minimal/semtest.c **** 
 129:..\..\Common\Minimal/semtest.c **** 	/* Do exactly the same to create the second set of tasks, only this time
 130:..\..\Common\Minimal/semtest.c **** 	provide a block time for the semaphore calls. */
 131:..\..\Common\Minimal/semtest.c **** 	pxSecondSemaphoreParameters = ( xSemaphoreParameters * ) pvPortMalloc( sizeof( xSemaphoreParameter
 140              		.loc 1 131 0
 141 0090 0C20     		movs	r0, #12
 142 0092 FFF7FEFF 		bl	pvPortMalloc
 143 0096 F860     		str	r0, [r7, #12]
ARM GAS  C:\Users\Jamie\AppData\Local\Temp\ccvIEdxh.s 			page 6


 132:..\..\Common\Minimal/semtest.c **** 	if( pxSecondSemaphoreParameters != NULL )
 144              		.loc 1 132 0
 145 0098 FB68     		ldr	r3, [r7, #12]
 146 009a 002B     		cmp	r3, #0
 147 009c 3BD0     		beq	.L1
 133:..\..\Common\Minimal/semtest.c **** 	{
 134:..\..\Common\Minimal/semtest.c **** 		pxSecondSemaphoreParameters->xSemaphore = xSemaphoreCreateBinary();
 148              		.loc 1 134 0
 149 009e 0120     		movs	r0, #1
 150 00a0 0021     		movs	r1, #0
 151 00a2 0322     		movs	r2, #3
 152 00a4 FFF7FEFF 		bl	xQueueGenericCreate
 153 00a8 0246     		mov	r2, r0
 154 00aa FB68     		ldr	r3, [r7, #12]
 155 00ac 1A60     		str	r2, [r3]
 135:..\..\Common\Minimal/semtest.c **** 
 136:..\..\Common\Minimal/semtest.c **** 		if( pxSecondSemaphoreParameters->xSemaphore != NULL )
 156              		.loc 1 136 0
 157 00ae FB68     		ldr	r3, [r7, #12]
 158 00b0 1B68     		ldr	r3, [r3]
 159 00b2 002B     		cmp	r3, #0
 160 00b4 2FD0     		beq	.L1
 137:..\..\Common\Minimal/semtest.c **** 		{
 138:..\..\Common\Minimal/semtest.c **** 			xSemaphoreGive( pxSecondSemaphoreParameters->xSemaphore );
 161              		.loc 1 138 0
 162 00b6 FB68     		ldr	r3, [r7, #12]
 163 00b8 1B68     		ldr	r3, [r3]
 164 00ba 1846     		mov	r0, r3
 165 00bc 0021     		movs	r1, #0
 166 00be 0022     		movs	r2, #0
 167 00c0 0023     		movs	r3, #0
 168 00c2 FFF7FEFF 		bl	xQueueGenericSend
 139:..\..\Common\Minimal/semtest.c **** 
 140:..\..\Common\Minimal/semtest.c **** 			pxSecondSemaphoreParameters->pulSharedVariable = ( uint32_t * ) pvPortMalloc( sizeof( uint32_t )
 169              		.loc 1 140 0
 170 00c6 0420     		movs	r0, #4
 171 00c8 FFF7FEFF 		bl	pvPortMalloc
 172 00cc 0246     		mov	r2, r0
 173 00ce FB68     		ldr	r3, [r7, #12]
 174 00d0 5A60     		str	r2, [r3, #4]
 141:..\..\Common\Minimal/semtest.c **** 			*( pxSecondSemaphoreParameters->pulSharedVariable ) = semtstBLOCKING_EXPECTED_VALUE;
 175              		.loc 1 141 0
 176 00d2 FB68     		ldr	r3, [r7, #12]
 177 00d4 5B68     		ldr	r3, [r3, #4]
 178 00d6 40F6FF72 		movw	r2, #4095
 179 00da 1A60     		str	r2, [r3]
 142:..\..\Common\Minimal/semtest.c **** 			pxSecondSemaphoreParameters->xBlockTime = xBlockTime / portTICK_PERIOD_MS;
 180              		.loc 1 142 0
 181 00dc FB68     		ldr	r3, [r7, #12]
 182 00de 7A69     		ldr	r2, [r7, #20]
 183 00e0 9A60     		str	r2, [r3, #8]
 143:..\..\Common\Minimal/semtest.c **** 
 144:..\..\Common\Minimal/semtest.c **** 			xTaskCreate( prvSemaphoreTest, "BlkSEM1", semtstSTACK_SIZE, ( void * ) pxSecondSemaphoreParamete
 184              		.loc 1 144 0
 185 00e2 7B68     		ldr	r3, [r7, #4]
 186 00e4 0093     		str	r3, [sp]
 187 00e6 0023     		movs	r3, #0
ARM GAS  C:\Users\Jamie\AppData\Local\Temp\ccvIEdxh.s 			page 7


 188 00e8 0193     		str	r3, [sp, #4]
 189 00ea 0C48     		ldr	r0, .L4
 190 00ec 0F49     		ldr	r1, .L4+16
 191 00ee 6422     		movs	r2, #100
 192 00f0 FB68     		ldr	r3, [r7, #12]
 193 00f2 FFF7FEFF 		bl	xTaskCreate
 145:..\..\Common\Minimal/semtest.c **** 			xTaskCreate( prvSemaphoreTest, "BlkSEM2", semtstSTACK_SIZE, ( void * ) pxSecondSemaphoreParamete
 194              		.loc 1 145 0
 195 00f6 7B68     		ldr	r3, [r7, #4]
 196 00f8 0093     		str	r3, [sp]
 197 00fa 0023     		movs	r3, #0
 198 00fc 0193     		str	r3, [sp, #4]
 199 00fe 0748     		ldr	r0, .L4
 200 0100 0B49     		ldr	r1, .L4+20
 201 0102 6422     		movs	r2, #100
 202 0104 FB68     		ldr	r3, [r7, #12]
 203 0106 FFF7FEFF 		bl	xTaskCreate
 146:..\..\Common\Minimal/semtest.c **** 
 147:..\..\Common\Minimal/semtest.c **** 			/* vQueueAddToRegistry() adds the semaphore to the registry, if one
 148:..\..\Common\Minimal/semtest.c **** 			is in use.  The registry is provided as a means for kernel aware
 149:..\..\Common\Minimal/semtest.c **** 			debuggers to locate semaphores and has no purpose if a kernel aware
 150:..\..\Common\Minimal/semtest.c **** 			debugger is not being used.  The call to vQueueAddToRegistry() will
 151:..\..\Common\Minimal/semtest.c **** 			be removed by the pre-processor if configQUEUE_REGISTRY_SIZE is not
 152:..\..\Common\Minimal/semtest.c **** 			defined or is defined to be less than 1. */
 153:..\..\Common\Minimal/semtest.c **** 			vQueueAddToRegistry( ( QueueHandle_t ) pxSecondSemaphoreParameters->xSemaphore, "Counting_Sem_2"
 204              		.loc 1 153 0
 205 010a FB68     		ldr	r3, [r7, #12]
 206 010c 1B68     		ldr	r3, [r3]
 207 010e 1846     		mov	r0, r3
 208 0110 0849     		ldr	r1, .L4+24
 209 0112 FFF7FEFF 		bl	vQueueAddToRegistry
 210              	.L1:
 154:..\..\Common\Minimal/semtest.c **** 		}
 155:..\..\Common\Minimal/semtest.c **** 	}
 156:..\..\Common\Minimal/semtest.c **** }
 211              		.loc 1 156 0
 212 0116 1837     		adds	r7, r7, #24
 213              		.cfi_def_cfa_offset 8
 214 0118 BD46     		mov	sp, r7
 215              		.cfi_def_cfa_register 13
 216              		@ sp needed
 217 011a 80BD     		pop	{r7, pc}
 218              	.L5:
 219              		.align	2
 220              	.L4:
 221 011c 00000000 		.word	prvSemaphoreTest
 222 0120 00000000 		.word	.LC0
 223 0124 08000000 		.word	.LC1
 224 0128 10000000 		.word	.LC2
 225 012c 20000000 		.word	.LC3
 226 0130 28000000 		.word	.LC4
 227 0134 30000000 		.word	.LC5
 228              		.cfi_endproc
 229              	.LFE68:
 230              		.size	vStartSemaphoreTasks, .-vStartSemaphoreTasks
 231              		.section	.text.prvSemaphoreTest,"ax",%progbits
 232              		.align	2
ARM GAS  C:\Users\Jamie\AppData\Local\Temp\ccvIEdxh.s 			page 8


 233              		.thumb
 234              		.thumb_func
 235              		.type	prvSemaphoreTest, %function
 236              	prvSemaphoreTest:
 237              	.LFB69:
 157:..\..\Common\Minimal/semtest.c **** /*-----------------------------------------------------------*/
 158:..\..\Common\Minimal/semtest.c **** 
 159:..\..\Common\Minimal/semtest.c **** static portTASK_FUNCTION( prvSemaphoreTest, pvParameters )
 160:..\..\Common\Minimal/semtest.c **** {
 238              		.loc 1 160 0
 239              		.cfi_startproc
 240              		@ args = 0, pretend = 0, frame = 32
 241              		@ frame_needed = 1, uses_anonymous_args = 0
 242 0000 80B5     		push	{r7, lr}
 243              		.cfi_def_cfa_offset 8
 244              		.cfi_offset 7, -8
 245              		.cfi_offset 14, -4
 246 0002 88B0     		sub	sp, sp, #32
 247              		.cfi_def_cfa_offset 40
 248 0004 00AF     		add	r7, sp, #0
 249              		.cfi_def_cfa_register 7
 250 0006 7860     		str	r0, [r7, #4]
 161:..\..\Common\Minimal/semtest.c **** xSemaphoreParameters *pxParameters;
 162:..\..\Common\Minimal/semtest.c **** volatile uint32_t *pulSharedVariable, ulExpectedValue;
 163:..\..\Common\Minimal/semtest.c **** uint32_t ulCounter;
 164:..\..\Common\Minimal/semtest.c **** short sError = pdFALSE, sCheckVariableToUse;
 251              		.loc 1 164 0
 252 0008 0023     		movs	r3, #0
 253 000a 7B83     		strh	r3, [r7, #26]	@ movhi
 165:..\..\Common\Minimal/semtest.c **** 
 166:..\..\Common\Minimal/semtest.c **** 	/* See which check variable to use.  sNextCheckVariable is not semaphore
 167:..\..\Common\Minimal/semtest.c **** 	protected! */
 168:..\..\Common\Minimal/semtest.c **** 	portENTER_CRITICAL();
 254              		.loc 1 168 0
 255 000c FFF7FEFF 		bl	vPortEnterCritical
 169:..\..\Common\Minimal/semtest.c **** 		sCheckVariableToUse = sNextCheckVariable;
 256              		.loc 1 169 0
 257 0010 3E4B     		ldr	r3, .L17
 258 0012 1B88     		ldrh	r3, [r3]	@ movhi
 259 0014 3B83     		strh	r3, [r7, #24]	@ movhi
 170:..\..\Common\Minimal/semtest.c **** 		sNextCheckVariable++;
 260              		.loc 1 170 0
 261 0016 3D4B     		ldr	r3, .L17
 262 0018 1B88     		ldrh	r3, [r3]	@ movhi
 263 001a 9BB2     		uxth	r3, r3
 264 001c 9BB2     		uxth	r3, r3
 265 001e 9BB2     		uxth	r3, r3
 266 0020 0133     		adds	r3, r3, #1
 267 0022 9BB2     		uxth	r3, r3
 268 0024 9AB2     		uxth	r2, r3
 269 0026 394B     		ldr	r3, .L17
 270 0028 1A80     		strh	r2, [r3]	@ movhi
 171:..\..\Common\Minimal/semtest.c **** 	portEXIT_CRITICAL();
 271              		.loc 1 171 0
 272 002a FFF7FEFF 		bl	vPortExitCritical
 172:..\..\Common\Minimal/semtest.c **** 
 173:..\..\Common\Minimal/semtest.c **** 	/* A structure is passed in as the parameter.  This contains the shared
ARM GAS  C:\Users\Jamie\AppData\Local\Temp\ccvIEdxh.s 			page 9


 174:..\..\Common\Minimal/semtest.c **** 	variable being guarded. */
 175:..\..\Common\Minimal/semtest.c **** 	pxParameters = ( xSemaphoreParameters * ) pvParameters;
 273              		.loc 1 175 0
 274 002e 7B68     		ldr	r3, [r7, #4]
 275 0030 7B61     		str	r3, [r7, #20]
 176:..\..\Common\Minimal/semtest.c **** 	pulSharedVariable = pxParameters->pulSharedVariable;
 276              		.loc 1 176 0
 277 0032 7B69     		ldr	r3, [r7, #20]
 278 0034 5B68     		ldr	r3, [r3, #4]
 279 0036 3B61     		str	r3, [r7, #16]
 177:..\..\Common\Minimal/semtest.c **** 
 178:..\..\Common\Minimal/semtest.c **** 	/* If we are blocking we use a much higher count to ensure loads of context
 179:..\..\Common\Minimal/semtest.c **** 	switches occur during the count. */
 180:..\..\Common\Minimal/semtest.c **** 	if( pxParameters->xBlockTime > ( TickType_t ) 0 )
 280              		.loc 1 180 0
 281 0038 7B69     		ldr	r3, [r7, #20]
 282 003a 9B68     		ldr	r3, [r3, #8]
 283 003c 002B     		cmp	r3, #0
 284 003e 03D0     		beq	.L7
 181:..\..\Common\Minimal/semtest.c **** 	{
 182:..\..\Common\Minimal/semtest.c **** 		ulExpectedValue = semtstBLOCKING_EXPECTED_VALUE;
 285              		.loc 1 182 0
 286 0040 40F6FF73 		movw	r3, #4095
 287 0044 FB60     		str	r3, [r7, #12]
 288 0046 01E0     		b	.L8
 289              	.L7:
 183:..\..\Common\Minimal/semtest.c **** 	}
 184:..\..\Common\Minimal/semtest.c **** 	else
 185:..\..\Common\Minimal/semtest.c **** 	{
 186:..\..\Common\Minimal/semtest.c **** 		ulExpectedValue = semtstNON_BLOCKING_EXPECTED_VALUE;
 290              		.loc 1 186 0
 291 0048 FF23     		movs	r3, #255
 292 004a FB60     		str	r3, [r7, #12]
 293              	.L8:
 187:..\..\Common\Minimal/semtest.c **** 	}
 188:..\..\Common\Minimal/semtest.c **** 
 189:..\..\Common\Minimal/semtest.c **** 	for( ;; )
 190:..\..\Common\Minimal/semtest.c **** 	{
 191:..\..\Common\Minimal/semtest.c **** 		/* Try to obtain the semaphore. */
 192:..\..\Common\Minimal/semtest.c **** 		if( xSemaphoreTake( pxParameters->xSemaphore, pxParameters->xBlockTime ) == pdPASS )
 294              		.loc 1 192 0
 295 004c 7B69     		ldr	r3, [r7, #20]
 296 004e 1A68     		ldr	r2, [r3]
 297 0050 7B69     		ldr	r3, [r7, #20]
 298 0052 9B68     		ldr	r3, [r3, #8]
 299 0054 1046     		mov	r0, r2
 300 0056 1946     		mov	r1, r3
 301 0058 FFF7FEFF 		bl	xQueueSemaphoreTake
 302 005c 0346     		mov	r3, r0
 303 005e 012B     		cmp	r3, #1
 304 0060 47D1     		bne	.L9
 193:..\..\Common\Minimal/semtest.c **** 		{
 194:..\..\Common\Minimal/semtest.c **** 			/* We have the semaphore and so expect any other tasks using the
 195:..\..\Common\Minimal/semtest.c **** 			shared variable to have left it in the state we expect to find
 196:..\..\Common\Minimal/semtest.c **** 			it. */
 197:..\..\Common\Minimal/semtest.c **** 			if( *pulSharedVariable != ulExpectedValue )
 305              		.loc 1 197 0
ARM GAS  C:\Users\Jamie\AppData\Local\Temp\ccvIEdxh.s 			page 10


 306 0062 3B69     		ldr	r3, [r7, #16]
 307 0064 1A68     		ldr	r2, [r3]
 308 0066 FB68     		ldr	r3, [r7, #12]
 309 0068 9A42     		cmp	r2, r3
 310 006a 01D0     		beq	.L10
 198:..\..\Common\Minimal/semtest.c **** 			{
 199:..\..\Common\Minimal/semtest.c **** 				sError = pdTRUE;
 311              		.loc 1 199 0
 312 006c 0123     		movs	r3, #1
 313 006e 7B83     		strh	r3, [r7, #26]	@ movhi
 314              	.L10:
 200:..\..\Common\Minimal/semtest.c **** 			}
 201:..\..\Common\Minimal/semtest.c **** 
 202:..\..\Common\Minimal/semtest.c **** 			/* Clear the variable, then count it back up to the expected value
 203:..\..\Common\Minimal/semtest.c **** 			before releasing the semaphore.  Would expect a context switch or
 204:..\..\Common\Minimal/semtest.c **** 			two during this time. */
 205:..\..\Common\Minimal/semtest.c **** 			for( ulCounter = ( uint32_t ) 0; ulCounter <= ulExpectedValue; ulCounter++ )
 315              		.loc 1 205 0
 316 0070 0023     		movs	r3, #0
 317 0072 FB61     		str	r3, [r7, #28]
 318 0074 0CE0     		b	.L11
 319              	.L13:
 206:..\..\Common\Minimal/semtest.c **** 			{
 207:..\..\Common\Minimal/semtest.c **** 				*pulSharedVariable = ulCounter;
 320              		.loc 1 207 0
 321 0076 3B69     		ldr	r3, [r7, #16]
 322 0078 FA69     		ldr	r2, [r7, #28]
 323 007a 1A60     		str	r2, [r3]
 208:..\..\Common\Minimal/semtest.c **** 				if( *pulSharedVariable != ulCounter )
 324              		.loc 1 208 0
 325 007c 3B69     		ldr	r3, [r7, #16]
 326 007e 1A68     		ldr	r2, [r3]
 327 0080 FB69     		ldr	r3, [r7, #28]
 328 0082 9A42     		cmp	r2, r3
 329 0084 01D0     		beq	.L12
 209:..\..\Common\Minimal/semtest.c **** 				{
 210:..\..\Common\Minimal/semtest.c **** 					sError = pdTRUE;
 330              		.loc 1 210 0
 331 0086 0123     		movs	r3, #1
 332 0088 7B83     		strh	r3, [r7, #26]	@ movhi
 333              	.L12:
 205:..\..\Common\Minimal/semtest.c **** 			{
 334              		.loc 1 205 0 discriminator 2
 335 008a FB69     		ldr	r3, [r7, #28]
 336 008c 0133     		adds	r3, r3, #1
 337 008e FB61     		str	r3, [r7, #28]
 338              	.L11:
 205:..\..\Common\Minimal/semtest.c **** 			{
 339              		.loc 1 205 0 is_stmt 0 discriminator 1
 340 0090 FB68     		ldr	r3, [r7, #12]
 341 0092 FA69     		ldr	r2, [r7, #28]
 342 0094 9A42     		cmp	r2, r3
 343 0096 EED9     		bls	.L13
 211:..\..\Common\Minimal/semtest.c **** 				}
 212:..\..\Common\Minimal/semtest.c **** 			}
 213:..\..\Common\Minimal/semtest.c **** 
 214:..\..\Common\Minimal/semtest.c **** 			/* Release the semaphore, and if no errors have occurred increment the check
ARM GAS  C:\Users\Jamie\AppData\Local\Temp\ccvIEdxh.s 			page 11


 215:..\..\Common\Minimal/semtest.c **** 			variable. */
 216:..\..\Common\Minimal/semtest.c **** 			if(	xSemaphoreGive( pxParameters->xSemaphore ) == pdFALSE )
 344              		.loc 1 216 0 is_stmt 1
 345 0098 7B69     		ldr	r3, [r7, #20]
 346 009a 1B68     		ldr	r3, [r3]
 347 009c 1846     		mov	r0, r3
 348 009e 0021     		movs	r1, #0
 349 00a0 0022     		movs	r2, #0
 350 00a2 0023     		movs	r3, #0
 351 00a4 FFF7FEFF 		bl	xQueueGenericSend
 352 00a8 0346     		mov	r3, r0
 353 00aa 002B     		cmp	r3, #0
 354 00ac 01D1     		bne	.L14
 217:..\..\Common\Minimal/semtest.c **** 			{
 218:..\..\Common\Minimal/semtest.c **** 				sError = pdTRUE;
 355              		.loc 1 218 0
 356 00ae 0123     		movs	r3, #1
 357 00b0 7B83     		strh	r3, [r7, #26]	@ movhi
 358              	.L14:
 219:..\..\Common\Minimal/semtest.c **** 			}
 220:..\..\Common\Minimal/semtest.c **** 
 221:..\..\Common\Minimal/semtest.c **** 			if( sError == pdFALSE )
 359              		.loc 1 221 0
 360 00b2 B7F91A30 		ldrsh	r3, [r7, #26]
 361 00b6 002B     		cmp	r3, #0
 362 00b8 11D1     		bne	.L15
 222:..\..\Common\Minimal/semtest.c **** 			{
 223:..\..\Common\Minimal/semtest.c **** 				if( sCheckVariableToUse < semtstNUM_TASKS )
 363              		.loc 1 223 0
 364 00ba B7F91830 		ldrsh	r3, [r7, #24]
 365 00be 032B     		cmp	r3, #3
 366 00c0 0DDC     		bgt	.L15
 224:..\..\Common\Minimal/semtest.c **** 				{
 225:..\..\Common\Minimal/semtest.c **** 					( sCheckVariables[ sCheckVariableToUse ] )++;
 367              		.loc 1 225 0
 368 00c2 B7F91820 		ldrsh	r2, [r7, #24]
 369 00c6 124B     		ldr	r3, .L17+4
 370 00c8 33F81230 		ldrh	r3, [r3, r2, lsl #1]	@ movhi
 371 00cc 9BB2     		uxth	r3, r3
 372 00ce 9BB2     		uxth	r3, r3
 373 00d0 9BB2     		uxth	r3, r3
 374 00d2 0133     		adds	r3, r3, #1
 375 00d4 9BB2     		uxth	r3, r3
 376 00d6 99B2     		uxth	r1, r3
 377 00d8 0D4B     		ldr	r3, .L17+4
 378 00da 23F81210 		strh	r1, [r3, r2, lsl #1]	@ movhi
 379              	.L15:
 226:..\..\Common\Minimal/semtest.c **** 				}
 227:..\..\Common\Minimal/semtest.c **** 			}
 228:..\..\Common\Minimal/semtest.c **** 
 229:..\..\Common\Minimal/semtest.c **** 			/* If we have a block time then we are running at a priority higher
 230:..\..\Common\Minimal/semtest.c **** 			than the idle priority.  This task takes a long time to complete
 231:..\..\Common\Minimal/semtest.c **** 			a cycle	(deliberately so to test the guarding) so will be starving
 232:..\..\Common\Minimal/semtest.c **** 			out lower priority tasks.  Block for some time to allow give lower
 233:..\..\Common\Minimal/semtest.c **** 			priority tasks some processor time. */
 234:..\..\Common\Minimal/semtest.c **** 			vTaskDelay( pxParameters->xBlockTime * semtstDELAY_FACTOR );
 380              		.loc 1 234 0
ARM GAS  C:\Users\Jamie\AppData\Local\Temp\ccvIEdxh.s 			page 12


 381 00de 7B69     		ldr	r3, [r7, #20]
 382 00e0 9A68     		ldr	r2, [r3, #8]
 383 00e2 1346     		mov	r3, r2
 384 00e4 9B00     		lsls	r3, r3, #2
 385 00e6 1344     		add	r3, r3, r2
 386 00e8 5B00     		lsls	r3, r3, #1
 387 00ea 1846     		mov	r0, r3
 388 00ec FFF7FEFF 		bl	vTaskDelay
 389 00f0 0BE0     		b	.L16
 390              	.L9:
 235:..\..\Common\Minimal/semtest.c **** 		}
 236:..\..\Common\Minimal/semtest.c **** 		else
 237:..\..\Common\Minimal/semtest.c **** 		{
 238:..\..\Common\Minimal/semtest.c **** 			if( pxParameters->xBlockTime == ( TickType_t ) 0 )
 391              		.loc 1 238 0
 392 00f2 7B69     		ldr	r3, [r7, #20]
 393 00f4 9B68     		ldr	r3, [r3, #8]
 394 00f6 002B     		cmp	r3, #0
 395 00f8 07D1     		bne	.L16
 239:..\..\Common\Minimal/semtest.c **** 			{
 240:..\..\Common\Minimal/semtest.c **** 				/* We have not got the semaphore yet, so no point using the
 241:..\..\Common\Minimal/semtest.c **** 				processor.  We are not blocking when attempting to obtain the
 242:..\..\Common\Minimal/semtest.c **** 				semaphore. */
 243:..\..\Common\Minimal/semtest.c **** 				taskYIELD();
 396              		.loc 1 243 0
 397 00fa 064B     		ldr	r3, .L17+8
 398 00fc 4FF08052 		mov	r2, #268435456
 399 0100 1A60     		str	r2, [r3]
 400              	@ 243 "..\..\Common\Minimal\semtest.c" 1
 401 0102 BFF34F8F 		dsb
 402              	@ 0 "" 2
 403              	@ 243 "..\..\Common\Minimal\semtest.c" 1
 404 0106 BFF36F8F 		isb
 405              	@ 0 "" 2
 406              		.thumb
 407              	.L16:
 244:..\..\Common\Minimal/semtest.c **** 			}
 245:..\..\Common\Minimal/semtest.c **** 		}
 246:..\..\Common\Minimal/semtest.c **** 	}
 408              		.loc 1 246 0
 409 010a 9FE7     		b	.L8
 410              	.L18:
 411              		.align	2
 412              	.L17:
 413 010c 08000000 		.word	sNextCheckVariable
 414 0110 00000000 		.word	sCheckVariables
 415 0114 04ED00E0 		.word	-536810236
 416              		.cfi_endproc
 417              	.LFE69:
 418              		.size	prvSemaphoreTest, .-prvSemaphoreTest
 419              		.section	.text.xAreSemaphoreTasksStillRunning,"ax",%progbits
 420              		.align	2
 421              		.global	xAreSemaphoreTasksStillRunning
 422              		.thumb
 423              		.thumb_func
 424              		.type	xAreSemaphoreTasksStillRunning, %function
 425              	xAreSemaphoreTasksStillRunning:
ARM GAS  C:\Users\Jamie\AppData\Local\Temp\ccvIEdxh.s 			page 13


 426              	.LFB70:
 247:..\..\Common\Minimal/semtest.c **** }
 248:..\..\Common\Minimal/semtest.c **** /*-----------------------------------------------------------*/
 249:..\..\Common\Minimal/semtest.c **** 
 250:..\..\Common\Minimal/semtest.c **** /* This is called to check that all the created tasks are still running. */
 251:..\..\Common\Minimal/semtest.c **** BaseType_t xAreSemaphoreTasksStillRunning( void )
 252:..\..\Common\Minimal/semtest.c **** {
 427              		.loc 1 252 0
 428              		.cfi_startproc
 429              		@ args = 0, pretend = 0, frame = 8
 430              		@ frame_needed = 1, uses_anonymous_args = 0
 431              		@ link register save eliminated.
 432 0000 80B4     		push	{r7}
 433              		.cfi_def_cfa_offset 4
 434              		.cfi_offset 7, -4
 435 0002 83B0     		sub	sp, sp, #12
 436              		.cfi_def_cfa_offset 16
 437 0004 00AF     		add	r7, sp, #0
 438              		.cfi_def_cfa_register 7
 253:..\..\Common\Minimal/semtest.c **** static short sLastCheckVariables[ semtstNUM_TASKS ] = { 0 };
 254:..\..\Common\Minimal/semtest.c **** BaseType_t xTask, xReturn = pdTRUE;
 439              		.loc 1 254 0
 440 0006 0123     		movs	r3, #1
 441 0008 3B60     		str	r3, [r7]
 255:..\..\Common\Minimal/semtest.c **** 
 256:..\..\Common\Minimal/semtest.c **** 	for( xTask = 0; xTask < semtstNUM_TASKS; xTask++ )
 442              		.loc 1 256 0
 443 000a 0023     		movs	r3, #0
 444 000c 7B60     		str	r3, [r7, #4]
 445 000e 1AE0     		b	.L20
 446              	.L22:
 257:..\..\Common\Minimal/semtest.c **** 	{
 258:..\..\Common\Minimal/semtest.c **** 		if( sLastCheckVariables[ xTask ] == sCheckVariables[ xTask ] )
 447              		.loc 1 258 0
 448 0010 124A     		ldr	r2, .L24
 449 0012 7B68     		ldr	r3, [r7, #4]
 450 0014 32F81310 		ldrh	r1, [r2, r3, lsl #1]
 451 0018 114A     		ldr	r2, .L24+4
 452 001a 7B68     		ldr	r3, [r7, #4]
 453 001c 32F81330 		ldrh	r3, [r2, r3, lsl #1]	@ movhi
 454 0020 9BB2     		uxth	r3, r3
 455 0022 0AB2     		sxth	r2, r1
 456 0024 1BB2     		sxth	r3, r3
 457 0026 9A42     		cmp	r2, r3
 458 0028 01D1     		bne	.L21
 259:..\..\Common\Minimal/semtest.c **** 		{
 260:..\..\Common\Minimal/semtest.c **** 			xReturn = pdFALSE;
 459              		.loc 1 260 0
 460 002a 0023     		movs	r3, #0
 461 002c 3B60     		str	r3, [r7]
 462              	.L21:
 261:..\..\Common\Minimal/semtest.c **** 		}
 262:..\..\Common\Minimal/semtest.c **** 
 263:..\..\Common\Minimal/semtest.c **** 		sLastCheckVariables[ xTask ] = sCheckVariables[ xTask ];
 463              		.loc 1 263 0 discriminator 2
 464 002e 0C4A     		ldr	r2, .L24+4
 465 0030 7B68     		ldr	r3, [r7, #4]
ARM GAS  C:\Users\Jamie\AppData\Local\Temp\ccvIEdxh.s 			page 14


 466 0032 32F81330 		ldrh	r3, [r2, r3, lsl #1]	@ movhi
 467 0036 99B2     		uxth	r1, r3
 468 0038 084A     		ldr	r2, .L24
 469 003a 7B68     		ldr	r3, [r7, #4]
 470 003c 22F81310 		strh	r1, [r2, r3, lsl #1]	@ movhi
 256:..\..\Common\Minimal/semtest.c **** 	{
 471              		.loc 1 256 0 discriminator 2
 472 0040 7B68     		ldr	r3, [r7, #4]
 473 0042 0133     		adds	r3, r3, #1
 474 0044 7B60     		str	r3, [r7, #4]
 475              	.L20:
 256:..\..\Common\Minimal/semtest.c **** 	{
 476              		.loc 1 256 0 is_stmt 0 discriminator 1
 477 0046 7B68     		ldr	r3, [r7, #4]
 478 0048 032B     		cmp	r3, #3
 479 004a E1DD     		ble	.L22
 264:..\..\Common\Minimal/semtest.c **** 	}
 265:..\..\Common\Minimal/semtest.c **** 
 266:..\..\Common\Minimal/semtest.c **** 	return xReturn;
 480              		.loc 1 266 0 is_stmt 1
 481 004c 3B68     		ldr	r3, [r7]
 267:..\..\Common\Minimal/semtest.c **** }
 482              		.loc 1 267 0
 483 004e 1846     		mov	r0, r3
 484 0050 0C37     		adds	r7, r7, #12
 485              		.cfi_def_cfa_offset 4
 486 0052 BD46     		mov	sp, r7
 487              		.cfi_def_cfa_register 13
 488              		@ sp needed
 489 0054 5DF8047B 		ldr	r7, [sp], #4
 490              		.cfi_restore 7
 491              		.cfi_def_cfa_offset 0
 492 0058 7047     		bx	lr
 493              	.L25:
 494 005a 00BF     		.align	2
 495              	.L24:
 496 005c 0C000000 		.word	sLastCheckVariables.6797
 497 0060 00000000 		.word	sCheckVariables
 498              		.cfi_endproc
 499              	.LFE70:
 500              		.size	xAreSemaphoreTasksStillRunning, .-xAreSemaphoreTasksStillRunning
 501              		.bss
 502 000a 0000     		.align	2
 503              	sLastCheckVariables.6797:
 504 000c 00000000 		.space	8
 504      00000000 
 505              		.text
 506              	.Letext0:
 507              		.file 2 "c:\\program files (x86)\\cypress\\psoc creator\\4.0\\psoc creator\\import\\gnu\\arm\\4.9.
 508              		.file 3 "c:\\program files (x86)\\cypress\\psoc creator\\4.0\\psoc creator\\import\\gnu\\arm\\4.9.
 509              		.file 4 "../../../Source/portable/GCC/ARM_CM3/portmacro.h"
 510              		.file 5 "../../../Source/include/task.h"
 511              		.file 6 "../../../Source/include/queue.h"
 512              		.file 7 "../../../Source/include/semphr.h"
 513              		.file 8 "Generated_Source\\PSoC5/core_cm3.h"