ARM GAS  C:\Users\shevi\AppData\Local\Temp\cc7K7sYA.s 			page 1


   1              		.syntax unified
   2              		.cpu cortex-m3
   3              		.fpu softvfp
   4              		.eabi_attribute 20, 1
   5              		.eabi_attribute 21, 1
   6              		.eabi_attribute 23, 3
   7              		.eabi_attribute 24, 1
   8              		.eabi_attribute 25, 1
   9              		.eabi_attribute 26, 1
  10              		.eabi_attribute 30, 6
  11              		.eabi_attribute 34, 1
  12              		.eabi_attribute 18, 4
  13              		.thumb
  14              		.file	"Serial.c"
  15              		.text
  16              	.Ltext0:
  17              		.cfi_sections	.debug_frame
  18              		.bss
  19              		.align	2
  20              	xSerialTxQueue:
  21 0000 00000000 		.space	4
  22              		.align	2
  23              	xSerialRxQueue:
  24 0004 00000000 		.space	4
  25              		.section	.text.xSerialPortInitMinimal,"ax",%progbits
  26              		.align	2
  27              		.global	xSerialPortInitMinimal
  28              		.thumb
  29              		.thumb_func
  30              		.type	xSerialPortInitMinimal, %function
  31              	xSerialPortInitMinimal:
  32              	.LFB68:
  33              		.file 1 "Serial.c"
   1:Serial.c      **** /*
   2:Serial.c      ****  * FreeRTOS Kernel V10.0.1
   3:Serial.c      ****  * Copyright (C) 2017 Amazon.com, Inc. or its affiliates.  All Rights Reserved.
   4:Serial.c      ****  *
   5:Serial.c      ****  * Permission is hereby granted, free of charge, to any person obtaining a copy of
   6:Serial.c      ****  * this software and associated documentation files (the "Software"), to deal in
   7:Serial.c      ****  * the Software without restriction, including without limitation the rights to
   8:Serial.c      ****  * use, copy, modify, merge, publish, distribute, sublicense, and/or sell copies of
   9:Serial.c      ****  * the Software, and to permit persons to whom the Software is furnished to do so,
  10:Serial.c      ****  * subject to the following conditions:
  11:Serial.c      ****  *
  12:Serial.c      ****  * The above copyright notice and this permission notice shall be included in all
  13:Serial.c      ****  * copies or substantial portions of the Software.
  14:Serial.c      ****  *
  15:Serial.c      ****  * THE SOFTWARE IS PROVIDED "AS IS", WITHOUT WARRANTY OF ANY KIND, EXPRESS OR
  16:Serial.c      ****  * IMPLIED, INCLUDING BUT NOT LIMITED TO THE WARRANTIES OF MERCHANTABILITY, FITNESS
  17:Serial.c      ****  * FOR A PARTICULAR PURPOSE AND NONINFRINGEMENT. IN NO EVENT SHALL THE AUTHORS OR
  18:Serial.c      ****  * COPYRIGHT HOLDERS BE LIABLE FOR ANY CLAIM, DAMAGES OR OTHER LIABILITY, WHETHER
  19:Serial.c      ****  * IN AN ACTION OF CONTRACT, TORT OR OTHERWISE, ARISING FROM, OUT OF OR IN
  20:Serial.c      ****  * CONNECTION WITH THE SOFTWARE OR THE USE OR OTHER DEALINGS IN THE SOFTWARE.
  21:Serial.c      ****  *
  22:Serial.c      ****  * http://www.FreeRTOS.org
  23:Serial.c      ****  * http://aws.amazon.com/freertos
  24:Serial.c      ****  *
ARM GAS  C:\Users\shevi\AppData\Local\Temp\cc7K7sYA.s 			page 2


  25:Serial.c      ****  * 1 tab == 4 spaces!
  26:Serial.c      ****  */
  27:Serial.c      **** 
  28:Serial.c      **** #include <device.h>
  29:Serial.c      **** #include "FreeRTOS.h"
  30:Serial.c      **** #include "queue.h"
  31:Serial.c      **** #include "task.h"
  32:Serial.c      **** #include "serial.h"
  33:Serial.c      **** /*---------------------------------------------------------------------------*/
  34:Serial.c      **** 
  35:Serial.c      **** #define serialSTRING_DELAY_TICKS		( portMAX_DELAY )
  36:Serial.c      **** /*---------------------------------------------------------------------------*/
  37:Serial.c      **** 
  38:Serial.c      **** CY_ISR_PROTO( vUartRxISR );
  39:Serial.c      **** CY_ISR_PROTO( vUartTxISR );
  40:Serial.c      **** /*---------------------------------------------------------------------------*/
  41:Serial.c      **** 
  42:Serial.c      **** static QueueHandle_t xSerialTxQueue = NULL;
  43:Serial.c      **** static QueueHandle_t xSerialRxQueue = NULL;
  44:Serial.c      **** /*---------------------------------------------------------------------------*/
  45:Serial.c      **** 
  46:Serial.c      **** xComPortHandle xSerialPortInitMinimal( unsigned long ulWantedBaud, unsigned portBASE_TYPE uxQueueLe
  47:Serial.c      **** {
  34              		.loc 1 47 0
  35              		.cfi_startproc
  36              		@ args = 0, pretend = 0, frame = 8
  37              		@ frame_needed = 1, uses_anonymous_args = 0
  38 0000 80B5     		push	{r7, lr}
  39              		.cfi_def_cfa_offset 8
  40              		.cfi_offset 7, -8
  41              		.cfi_offset 14, -4
  42 0002 82B0     		sub	sp, sp, #8
  43              		.cfi_def_cfa_offset 16
  44 0004 00AF     		add	r7, sp, #0
  45              		.cfi_def_cfa_register 7
  46 0006 7860     		str	r0, [r7, #4]
  47 0008 3960     		str	r1, [r7]
  48:Serial.c      **** 	/* Configure Rx. */
  49:Serial.c      **** 	xSerialRxQueue = xQueueCreate( uxQueueLength, sizeof( signed char ) );	
  48              		.loc 1 49 0
  49 000a 3868     		ldr	r0, [r7]
  50 000c 0121     		movs	r1, #1
  51 000e 0022     		movs	r2, #0
  52 0010 FFF7FEFF 		bl	xQueueGenericCreate
  53 0014 0246     		mov	r2, r0
  54 0016 134B     		ldr	r3, .L5
  55 0018 1A60     		str	r2, [r3]
  50:Serial.c      **** 	isr_UART1_RX_BYTE_RECEIVED_ClearPending();
  56              		.loc 1 50 0
  57 001a FFF7FEFF 		bl	isr_UART1_RX_BYTE_RECEIVED_ClearPending
  51:Serial.c      **** 	isr_UART1_RX_BYTE_RECEIVED_StartEx(vUartRxISR);
  58              		.loc 1 51 0
  59 001e 1248     		ldr	r0, .L5+4
  60 0020 FFF7FEFF 		bl	isr_UART1_RX_BYTE_RECEIVED_StartEx
  52:Serial.c      **** 
  53:Serial.c      **** 	/* Configure Tx */
  54:Serial.c      **** 	xSerialTxQueue = xQueueCreate( uxQueueLength, sizeof( signed char ) );
ARM GAS  C:\Users\shevi\AppData\Local\Temp\cc7K7sYA.s 			page 3


  61              		.loc 1 54 0
  62 0024 3868     		ldr	r0, [r7]
  63 0026 0121     		movs	r1, #1
  64 0028 0022     		movs	r2, #0
  65 002a FFF7FEFF 		bl	xQueueGenericCreate
  66 002e 0246     		mov	r2, r0
  67 0030 0E4B     		ldr	r3, .L5+8
  68 0032 1A60     		str	r2, [r3]
  55:Serial.c      **** 	isr_UART1_TX_BYTE_COMPLETE_ClearPending() ;
  69              		.loc 1 55 0
  70 0034 FFF7FEFF 		bl	isr_UART1_TX_BYTE_COMPLETE_ClearPending
  56:Serial.c      **** 	isr_UART1_TX_BYTE_COMPLETE_StartEx(vUartTxISR);
  71              		.loc 1 56 0
  72 0038 0D48     		ldr	r0, .L5+12
  73 003a FFF7FEFF 		bl	isr_UART1_TX_BYTE_COMPLETE_StartEx
  57:Serial.c      **** 
  58:Serial.c      **** 	/* Clear the interrupt modes for the Tx for the time being. */
  59:Serial.c      **** 	UART_1_SetTxInterruptMode( 0 );
  74              		.loc 1 59 0
  75 003e 0020     		movs	r0, #0
  76 0040 FFF7FEFF 		bl	UART_1_SetTxInterruptMode
  60:Serial.c      **** 
  61:Serial.c      **** 	/* Both configured successfully. */
  62:Serial.c      **** 	return ( xComPortHandle )( xSerialTxQueue && xSerialRxQueue );
  77              		.loc 1 62 0
  78 0044 094B     		ldr	r3, .L5+8
  79 0046 1B68     		ldr	r3, [r3]
  80 0048 002B     		cmp	r3, #0
  81 004a 05D0     		beq	.L2
  82              		.loc 1 62 0 is_stmt 0 discriminator 1
  83 004c 054B     		ldr	r3, .L5
  84 004e 1B68     		ldr	r3, [r3]
  85 0050 002B     		cmp	r3, #0
  86 0052 01D0     		beq	.L2
  87              		.loc 1 62 0 discriminator 3
  88 0054 0123     		movs	r3, #1
  89 0056 00E0     		b	.L3
  90              	.L2:
  91              		.loc 1 62 0 discriminator 4
  92 0058 0023     		movs	r3, #0
  93              	.L3:
  63:Serial.c      **** }
  94              		.loc 1 63 0 is_stmt 1 discriminator 6
  95 005a 1846     		mov	r0, r3
  96 005c 0837     		adds	r7, r7, #8
  97              		.cfi_def_cfa_offset 8
  98 005e BD46     		mov	sp, r7
  99              		.cfi_def_cfa_register 13
 100              		@ sp needed
 101 0060 80BD     		pop	{r7, pc}
 102              	.L6:
 103 0062 00BF     		.align	2
 104              	.L5:
 105 0064 04000000 		.word	xSerialRxQueue
 106 0068 00000000 		.word	vUartRxISR
 107 006c 00000000 		.word	xSerialTxQueue
 108 0070 00000000 		.word	vUartTxISR
ARM GAS  C:\Users\shevi\AppData\Local\Temp\cc7K7sYA.s 			page 4


 109              		.cfi_endproc
 110              	.LFE68:
 111              		.size	xSerialPortInitMinimal, .-xSerialPortInitMinimal
 112              		.section	.text.vSerialPutString,"ax",%progbits
 113              		.align	2
 114              		.global	vSerialPutString
 115              		.thumb
 116              		.thumb_func
 117              		.type	vSerialPutString, %function
 118              	vSerialPutString:
 119              	.LFB69:
  64:Serial.c      **** /*---------------------------------------------------------------------------*/
  65:Serial.c      **** 
  66:Serial.c      **** void vSerialPutString( xComPortHandle pxPort, const signed char * const pcString, unsigned short us
  67:Serial.c      **** {
 120              		.loc 1 67 0
 121              		.cfi_startproc
 122              		@ args = 0, pretend = 0, frame = 24
 123              		@ frame_needed = 1, uses_anonymous_args = 0
 124 0000 80B5     		push	{r7, lr}
 125              		.cfi_def_cfa_offset 8
 126              		.cfi_offset 7, -8
 127              		.cfi_offset 14, -4
 128 0002 86B0     		sub	sp, sp, #24
 129              		.cfi_def_cfa_offset 32
 130 0004 00AF     		add	r7, sp, #0
 131              		.cfi_def_cfa_register 7
 132 0006 F860     		str	r0, [r7, #12]
 133 0008 B960     		str	r1, [r7, #8]
 134 000a 1346     		mov	r3, r2
 135 000c FB80     		strh	r3, [r7, #6]	@ movhi
  68:Serial.c      **** unsigned short usIndex = 0;
 136              		.loc 1 68 0
 137 000e 0023     		movs	r3, #0
 138 0010 FB82     		strh	r3, [r7, #22]	@ movhi
  69:Serial.c      **** 
  70:Serial.c      **** 	for( usIndex = 0; usIndex < usStringLength; usIndex++ )
 139              		.loc 1 70 0
 140 0012 0023     		movs	r3, #0
 141 0014 FB82     		strh	r3, [r7, #22]	@ movhi
 142 0016 14E0     		b	.L8
 143              	.L11:
  71:Serial.c      **** 	{
  72:Serial.c      **** 		/* Check for pre-mature end of line. */
  73:Serial.c      **** 		if( '\0' == pcString[ usIndex ] )
 144              		.loc 1 73 0
 145 0018 FB8A     		ldrh	r3, [r7, #22]
 146 001a BA68     		ldr	r2, [r7, #8]
 147 001c 1344     		add	r3, r3, r2
 148 001e 1B78     		ldrb	r3, [r3]	@ zero_extendqisi2
 149 0020 002B     		cmp	r3, #0
 150 0022 00D1     		bne	.L9
  74:Serial.c      **** 		{
  75:Serial.c      **** 			break;
 151              		.loc 1 75 0
 152 0024 11E0     		b	.L7
 153              	.L9:
ARM GAS  C:\Users\shevi\AppData\Local\Temp\cc7K7sYA.s 			page 5


  76:Serial.c      **** 		}
  77:Serial.c      **** 		
  78:Serial.c      **** 		/* Send out, one character at a time. */
  79:Serial.c      **** 		if( pdTRUE != xSerialPutChar( NULL, pcString[ usIndex ], serialSTRING_DELAY_TICKS ) )
 154              		.loc 1 79 0
 155 0026 FB8A     		ldrh	r3, [r7, #22]
 156 0028 BA68     		ldr	r2, [r7, #8]
 157 002a 1344     		add	r3, r3, r2
 158 002c 1B78     		ldrb	r3, [r3]	@ zero_extendqisi2
 159 002e 5BB2     		sxtb	r3, r3
 160 0030 0020     		movs	r0, #0
 161 0032 1946     		mov	r1, r3
 162 0034 4FF0FF32 		mov	r2, #-1
 163 0038 FFF7FEFF 		bl	xSerialPutChar
  70:Serial.c      **** 	{
 164              		.loc 1 70 0
 165 003c FB8A     		ldrh	r3, [r7, #22]
 166 003e 0133     		adds	r3, r3, #1
 167 0040 FB82     		strh	r3, [r7, #22]	@ movhi
 168              	.L8:
  70:Serial.c      **** 	{
 169              		.loc 1 70 0 is_stmt 0 discriminator 1
 170 0042 FA8A     		ldrh	r2, [r7, #22]
 171 0044 FB88     		ldrh	r3, [r7, #6]
 172 0046 9A42     		cmp	r2, r3
 173 0048 E6D3     		bcc	.L11
 174              	.L7:
  80:Serial.c      **** 		{
  81:Serial.c      **** 			/* Failed to send, this will be picked up in the receive comtest task. */
  82:Serial.c      **** 		}
  83:Serial.c      **** 	}
  84:Serial.c      **** }
 175              		.loc 1 84 0 is_stmt 1
 176 004a 1837     		adds	r7, r7, #24
 177              		.cfi_def_cfa_offset 8
 178 004c BD46     		mov	sp, r7
 179              		.cfi_def_cfa_register 13
 180              		@ sp needed
 181 004e 80BD     		pop	{r7, pc}
 182              		.cfi_endproc
 183              	.LFE69:
 184              		.size	vSerialPutString, .-vSerialPutString
 185              		.section	.text.xSerialGetChar,"ax",%progbits
 186              		.align	2
 187              		.global	xSerialGetChar
 188              		.thumb
 189              		.thumb_func
 190              		.type	xSerialGetChar, %function
 191              	xSerialGetChar:
 192              	.LFB70:
  85:Serial.c      **** /*---------------------------------------------------------------------------*/
  86:Serial.c      **** 
  87:Serial.c      **** signed portBASE_TYPE xSerialGetChar( xComPortHandle pxPort, signed char *pcRxedChar, TickType_t xBl
  88:Serial.c      **** {
 193              		.loc 1 88 0
 194              		.cfi_startproc
 195              		@ args = 0, pretend = 0, frame = 24
ARM GAS  C:\Users\shevi\AppData\Local\Temp\cc7K7sYA.s 			page 6


 196              		@ frame_needed = 1, uses_anonymous_args = 0
 197 0000 80B5     		push	{r7, lr}
 198              		.cfi_def_cfa_offset 8
 199              		.cfi_offset 7, -8
 200              		.cfi_offset 14, -4
 201 0002 86B0     		sub	sp, sp, #24
 202              		.cfi_def_cfa_offset 32
 203 0004 00AF     		add	r7, sp, #0
 204              		.cfi_def_cfa_register 7
 205 0006 F860     		str	r0, [r7, #12]
 206 0008 B960     		str	r1, [r7, #8]
 207 000a 7A60     		str	r2, [r7, #4]
  89:Serial.c      **** portBASE_TYPE xReturn = pdFALSE;
 208              		.loc 1 89 0
 209 000c 0023     		movs	r3, #0
 210 000e 7B61     		str	r3, [r7, #20]
  90:Serial.c      **** 
  91:Serial.c      **** 	if( pdTRUE == xQueueReceive( xSerialRxQueue, pcRxedChar, xBlockTime ) )
 211              		.loc 1 91 0
 212 0010 084B     		ldr	r3, .L15
 213 0012 1B68     		ldr	r3, [r3]
 214 0014 1846     		mov	r0, r3
 215 0016 B968     		ldr	r1, [r7, #8]
 216 0018 7A68     		ldr	r2, [r7, #4]
 217 001a FFF7FEFF 		bl	xQueueReceive
 218 001e 0346     		mov	r3, r0
 219 0020 012B     		cmp	r3, #1
 220 0022 01D1     		bne	.L13
  92:Serial.c      **** 	{
  93:Serial.c      **** 		/* Picked up a character. */
  94:Serial.c      **** 		xReturn = pdTRUE;
 221              		.loc 1 94 0
 222 0024 0123     		movs	r3, #1
 223 0026 7B61     		str	r3, [r7, #20]
 224              	.L13:
  95:Serial.c      **** 	}
  96:Serial.c      **** 	return xReturn;
 225              		.loc 1 96 0
 226 0028 7B69     		ldr	r3, [r7, #20]
  97:Serial.c      **** }
 227              		.loc 1 97 0
 228 002a 1846     		mov	r0, r3
 229 002c 1837     		adds	r7, r7, #24
 230              		.cfi_def_cfa_offset 8
 231 002e BD46     		mov	sp, r7
 232              		.cfi_def_cfa_register 13
 233              		@ sp needed
 234 0030 80BD     		pop	{r7, pc}
 235              	.L16:
 236 0032 00BF     		.align	2
 237              	.L15:
 238 0034 04000000 		.word	xSerialRxQueue
 239              		.cfi_endproc
 240              	.LFE70:
 241              		.size	xSerialGetChar, .-xSerialGetChar
 242              		.section	.text.xSerialPutChar,"ax",%progbits
 243              		.align	2
ARM GAS  C:\Users\shevi\AppData\Local\Temp\cc7K7sYA.s 			page 7


 244              		.global	xSerialPutChar
 245              		.thumb
 246              		.thumb_func
 247              		.type	xSerialPutChar, %function
 248              	xSerialPutChar:
 249              	.LFB71:
  98:Serial.c      **** /*---------------------------------------------------------------------------*/
  99:Serial.c      **** 
 100:Serial.c      **** signed portBASE_TYPE xSerialPutChar( xComPortHandle pxPort, signed char cOutChar, TickType_t xBlock
 101:Serial.c      **** {
 250              		.loc 1 101 0
 251              		.cfi_startproc
 252              		@ args = 0, pretend = 0, frame = 24
 253              		@ frame_needed = 1, uses_anonymous_args = 0
 254 0000 80B5     		push	{r7, lr}
 255              		.cfi_def_cfa_offset 8
 256              		.cfi_offset 7, -8
 257              		.cfi_offset 14, -4
 258 0002 86B0     		sub	sp, sp, #24
 259              		.cfi_def_cfa_offset 32
 260 0004 00AF     		add	r7, sp, #0
 261              		.cfi_def_cfa_register 7
 262 0006 F860     		str	r0, [r7, #12]
 263 0008 0B46     		mov	r3, r1
 264 000a 7A60     		str	r2, [r7, #4]
 265 000c FB72     		strb	r3, [r7, #11]
 102:Serial.c      **** portBASE_TYPE xReturn = pdFALSE;
 266              		.loc 1 102 0
 267 000e 0023     		movs	r3, #0
 268 0010 7B61     		str	r3, [r7, #20]
 103:Serial.c      **** 
 104:Serial.c      **** 	/* The ISR is processing characters is so just add to the end of the queue. */
 105:Serial.c      **** 	if( pdTRUE == xQueueSend( xSerialTxQueue, &cOutChar, xBlockTime ) )
 269              		.loc 1 105 0
 270 0012 0F4B     		ldr	r3, .L21
 271 0014 1A68     		ldr	r2, [r3]
 272 0016 07F10B03 		add	r3, r7, #11
 273 001a 1046     		mov	r0, r2
 274 001c 1946     		mov	r1, r3
 275 001e 7A68     		ldr	r2, [r7, #4]
 276 0020 0023     		movs	r3, #0
 277 0022 FFF7FEFF 		bl	xQueueGenericSend
 278 0026 0346     		mov	r3, r0
 279 0028 012B     		cmp	r3, #1
 280 002a 02D1     		bne	.L18
 106:Serial.c      **** 	{	
 107:Serial.c      **** 		xReturn = pdTRUE;
 281              		.loc 1 107 0
 282 002c 0123     		movs	r3, #1
 283 002e 7B61     		str	r3, [r7, #20]
 284 0030 01E0     		b	.L19
 285              	.L18:
 108:Serial.c      **** 	}
 109:Serial.c      **** 	else
 110:Serial.c      **** 	{
 111:Serial.c      **** 		/* The queue is probably full. */
 112:Serial.c      **** 		xReturn = pdFALSE;
ARM GAS  C:\Users\shevi\AppData\Local\Temp\cc7K7sYA.s 			page 8


 286              		.loc 1 112 0
 287 0032 0023     		movs	r3, #0
 288 0034 7B61     		str	r3, [r7, #20]
 289              	.L19:
 113:Serial.c      **** 	}
 114:Serial.c      **** 
 115:Serial.c      **** 	/* Make sure that the interrupt will fire in the case where:
 116:Serial.c      **** 	    Currently sending so the Tx Complete will fire.
 117:Serial.c      **** 	    Not sending so the Empty will fire.	*/
 118:Serial.c      **** 	taskENTER_CRITICAL();
 290              		.loc 1 118 0
 291 0036 FFF7FEFF 		bl	vPortEnterCritical
 119:Serial.c      **** 		UART_1_SetTxInterruptMode( UART_1_TX_STS_COMPLETE | UART_1_TX_STS_FIFO_EMPTY );
 292              		.loc 1 119 0
 293 003a 0320     		movs	r0, #3
 294 003c FFF7FEFF 		bl	UART_1_SetTxInterruptMode
 120:Serial.c      **** 	taskEXIT_CRITICAL();
 295              		.loc 1 120 0
 296 0040 FFF7FEFF 		bl	vPortExitCritical
 121:Serial.c      **** 	
 122:Serial.c      **** 	return xReturn;
 297              		.loc 1 122 0
 298 0044 7B69     		ldr	r3, [r7, #20]
 123:Serial.c      **** }
 299              		.loc 1 123 0
 300 0046 1846     		mov	r0, r3
 301 0048 1837     		adds	r7, r7, #24
 302              		.cfi_def_cfa_offset 8
 303 004a BD46     		mov	sp, r7
 304              		.cfi_def_cfa_register 13
 305              		@ sp needed
 306 004c 80BD     		pop	{r7, pc}
 307              	.L22:
 308 004e 00BF     		.align	2
 309              	.L21:
 310 0050 00000000 		.word	xSerialTxQueue
 311              		.cfi_endproc
 312              	.LFE71:
 313              		.size	xSerialPutChar, .-xSerialPutChar
 314              		.section	.text.vUartRxISR,"ax",%progbits
 315              		.align	2
 316              		.global	vUartRxISR
 317              		.thumb
 318              		.thumb_func
 319              		.type	vUartRxISR, %function
 320              	vUartRxISR:
 321              	.LFB72:
 124:Serial.c      **** /*---------------------------------------------------------------------------*/
 125:Serial.c      **** 
 126:Serial.c      **** CY_ISR(vUartRxISR)
 127:Serial.c      **** {
 322              		.loc 1 127 0
 323              		.cfi_startproc
 324              		@ args = 0, pretend = 0, frame = 24
 325              		@ frame_needed = 1, uses_anonymous_args = 0
 326 0000 80B5     		push	{r7, lr}
 327              		.cfi_def_cfa_offset 8
ARM GAS  C:\Users\shevi\AppData\Local\Temp\cc7K7sYA.s 			page 9


 328              		.cfi_offset 7, -8
 329              		.cfi_offset 14, -4
 330 0002 86B0     		sub	sp, sp, #24
 331              		.cfi_def_cfa_offset 32
 332 0004 00AF     		add	r7, sp, #0
 333              		.cfi_def_cfa_register 7
 128:Serial.c      **** portBASE_TYPE xHigherPriorityTaskWoken = pdFALSE;
 334              		.loc 1 128 0
 335 0006 0023     		movs	r3, #0
 336 0008 7B60     		str	r3, [r7, #4]
 129:Serial.c      **** volatile unsigned char ucStatus = 0;
 337              		.loc 1 129 0
 338 000a 0023     		movs	r3, #0
 339 000c FB70     		strb	r3, [r7, #3]
 130:Serial.c      **** signed char cInChar = 0;
 340              		.loc 1 130 0
 341 000e 0023     		movs	r3, #0
 342 0010 BB70     		strb	r3, [r7, #2]
 131:Serial.c      **** unsigned long ulMask = 0;
 343              		.loc 1 131 0
 344 0012 0023     		movs	r3, #0
 345 0014 7B61     		str	r3, [r7, #20]
 132:Serial.c      **** 
 133:Serial.c      **** 	/* Read the status to acknowledge. */
 134:Serial.c      **** 	ucStatus = UART_1_ReadRxStatus();
 346              		.loc 1 134 0
 347 0016 FFF7FEFF 		bl	UART_1_ReadRxStatus
 348 001a 0346     		mov	r3, r0
 349 001c FB70     		strb	r3, [r7, #3]
 135:Serial.c      **** 
 136:Serial.c      **** 	/* Only interested in a character being received. */
 137:Serial.c      **** 	if( 0 != ( ucStatus & UART_1_RX_STS_FIFO_NOTEMPTY ) )
 350              		.loc 1 137 0
 351 001e FB78     		ldrb	r3, [r7, #3]
 352 0020 DBB2     		uxtb	r3, r3
 353 0022 03F02003 		and	r3, r3, #32
 354 0026 002B     		cmp	r3, #0
 355 0028 21D0     		beq	.L24
 138:Serial.c      **** 	{
 139:Serial.c      **** 		/* Get the character. */
 140:Serial.c      **** 		cInChar = UART_1_GetChar();
 356              		.loc 1 140 0
 357 002a FFF7FEFF 		bl	UART_1_GetChar
 358 002e 0346     		mov	r3, r0
 359 0030 DBB2     		uxtb	r3, r3
 360 0032 BB70     		strb	r3, [r7, #2]
 361              	.LBB10:
 362              	.LBB11:
 363              		.file 2 "..\\..\\FreeRTOS_Source\\portable\\GCC\\ARM_CM3/portmacro.h"
   1:..\..\FreeRTOS_Source\portable\GCC\ARM_CM3/portmacro.h **** /*
   2:..\..\FreeRTOS_Source\portable\GCC\ARM_CM3/portmacro.h ****  * FreeRTOS Kernel V10.0.1
   3:..\..\FreeRTOS_Source\portable\GCC\ARM_CM3/portmacro.h ****  * Copyright (C) 2017 Amazon.com, Inc. or its affiliates.  All Rights Reserved.
   4:..\..\FreeRTOS_Source\portable\GCC\ARM_CM3/portmacro.h ****  *
   5:..\..\FreeRTOS_Source\portable\GCC\ARM_CM3/portmacro.h ****  * Permission is hereby granted, free of charge, to any person obtaining a copy of
   6:..\..\FreeRTOS_Source\portable\GCC\ARM_CM3/portmacro.h ****  * this software and associated documentation files (the "Software"), to deal in
   7:..\..\FreeRTOS_Source\portable\GCC\ARM_CM3/portmacro.h ****  * the Software without restriction, including without limitation the rights to
   8:..\..\FreeRTOS_Source\portable\GCC\ARM_CM3/portmacro.h ****  * use, copy, modify, merge, publish, distribute, sublicense, and/or sell copies of
ARM GAS  C:\Users\shevi\AppData\Local\Temp\cc7K7sYA.s 			page 10


   9:..\..\FreeRTOS_Source\portable\GCC\ARM_CM3/portmacro.h ****  * the Software, and to permit persons to whom the Software is furnished to do so,
  10:..\..\FreeRTOS_Source\portable\GCC\ARM_CM3/portmacro.h ****  * subject to the following conditions:
  11:..\..\FreeRTOS_Source\portable\GCC\ARM_CM3/portmacro.h ****  *
  12:..\..\FreeRTOS_Source\portable\GCC\ARM_CM3/portmacro.h ****  * The above copyright notice and this permission notice shall be included in all
  13:..\..\FreeRTOS_Source\portable\GCC\ARM_CM3/portmacro.h ****  * copies or substantial portions of the Software.
  14:..\..\FreeRTOS_Source\portable\GCC\ARM_CM3/portmacro.h ****  *
  15:..\..\FreeRTOS_Source\portable\GCC\ARM_CM3/portmacro.h ****  * THE SOFTWARE IS PROVIDED "AS IS", WITHOUT WARRANTY OF ANY KIND, EXPRESS OR
  16:..\..\FreeRTOS_Source\portable\GCC\ARM_CM3/portmacro.h ****  * IMPLIED, INCLUDING BUT NOT LIMITED TO THE WARRANTIES OF MERCHANTABILITY, FITNESS
  17:..\..\FreeRTOS_Source\portable\GCC\ARM_CM3/portmacro.h ****  * FOR A PARTICULAR PURPOSE AND NONINFRINGEMENT. IN NO EVENT SHALL THE AUTHORS OR
  18:..\..\FreeRTOS_Source\portable\GCC\ARM_CM3/portmacro.h ****  * COPYRIGHT HOLDERS BE LIABLE FOR ANY CLAIM, DAMAGES OR OTHER LIABILITY, WHETHER
  19:..\..\FreeRTOS_Source\portable\GCC\ARM_CM3/portmacro.h ****  * IN AN ACTION OF CONTRACT, TORT OR OTHERWISE, ARISING FROM, OUT OF OR IN
  20:..\..\FreeRTOS_Source\portable\GCC\ARM_CM3/portmacro.h ****  * CONNECTION WITH THE SOFTWARE OR THE USE OR OTHER DEALINGS IN THE SOFTWARE.
  21:..\..\FreeRTOS_Source\portable\GCC\ARM_CM3/portmacro.h ****  *
  22:..\..\FreeRTOS_Source\portable\GCC\ARM_CM3/portmacro.h ****  * http://www.FreeRTOS.org
  23:..\..\FreeRTOS_Source\portable\GCC\ARM_CM3/portmacro.h ****  * http://aws.amazon.com/freertos
  24:..\..\FreeRTOS_Source\portable\GCC\ARM_CM3/portmacro.h ****  *
  25:..\..\FreeRTOS_Source\portable\GCC\ARM_CM3/portmacro.h ****  * 1 tab == 4 spaces!
  26:..\..\FreeRTOS_Source\portable\GCC\ARM_CM3/portmacro.h ****  */
  27:..\..\FreeRTOS_Source\portable\GCC\ARM_CM3/portmacro.h **** 
  28:..\..\FreeRTOS_Source\portable\GCC\ARM_CM3/portmacro.h **** 
  29:..\..\FreeRTOS_Source\portable\GCC\ARM_CM3/portmacro.h **** #ifndef PORTMACRO_H
  30:..\..\FreeRTOS_Source\portable\GCC\ARM_CM3/portmacro.h **** #define PORTMACRO_H
  31:..\..\FreeRTOS_Source\portable\GCC\ARM_CM3/portmacro.h **** 
  32:..\..\FreeRTOS_Source\portable\GCC\ARM_CM3/portmacro.h **** #ifdef __cplusplus
  33:..\..\FreeRTOS_Source\portable\GCC\ARM_CM3/portmacro.h **** extern "C" {
  34:..\..\FreeRTOS_Source\portable\GCC\ARM_CM3/portmacro.h **** #endif
  35:..\..\FreeRTOS_Source\portable\GCC\ARM_CM3/portmacro.h **** 
  36:..\..\FreeRTOS_Source\portable\GCC\ARM_CM3/portmacro.h **** /*-----------------------------------------------------------
  37:..\..\FreeRTOS_Source\portable\GCC\ARM_CM3/portmacro.h ****  * Port specific definitions.
  38:..\..\FreeRTOS_Source\portable\GCC\ARM_CM3/portmacro.h ****  *
  39:..\..\FreeRTOS_Source\portable\GCC\ARM_CM3/portmacro.h ****  * The settings in this file configure FreeRTOS correctly for the
  40:..\..\FreeRTOS_Source\portable\GCC\ARM_CM3/portmacro.h ****  * given hardware and compiler.
  41:..\..\FreeRTOS_Source\portable\GCC\ARM_CM3/portmacro.h ****  *
  42:..\..\FreeRTOS_Source\portable\GCC\ARM_CM3/portmacro.h ****  * These settings should not be altered.
  43:..\..\FreeRTOS_Source\portable\GCC\ARM_CM3/portmacro.h ****  *-----------------------------------------------------------
  44:..\..\FreeRTOS_Source\portable\GCC\ARM_CM3/portmacro.h ****  */
  45:..\..\FreeRTOS_Source\portable\GCC\ARM_CM3/portmacro.h **** 
  46:..\..\FreeRTOS_Source\portable\GCC\ARM_CM3/portmacro.h **** /* Type definitions. */
  47:..\..\FreeRTOS_Source\portable\GCC\ARM_CM3/portmacro.h **** #define portCHAR		char
  48:..\..\FreeRTOS_Source\portable\GCC\ARM_CM3/portmacro.h **** #define portFLOAT		float
  49:..\..\FreeRTOS_Source\portable\GCC\ARM_CM3/portmacro.h **** #define portDOUBLE		double
  50:..\..\FreeRTOS_Source\portable\GCC\ARM_CM3/portmacro.h **** #define portLONG		long
  51:..\..\FreeRTOS_Source\portable\GCC\ARM_CM3/portmacro.h **** #define portSHORT		short
  52:..\..\FreeRTOS_Source\portable\GCC\ARM_CM3/portmacro.h **** #define portSTACK_TYPE	uint32_t
  53:..\..\FreeRTOS_Source\portable\GCC\ARM_CM3/portmacro.h **** #define portBASE_TYPE	long
  54:..\..\FreeRTOS_Source\portable\GCC\ARM_CM3/portmacro.h **** 
  55:..\..\FreeRTOS_Source\portable\GCC\ARM_CM3/portmacro.h **** typedef portSTACK_TYPE StackType_t;
  56:..\..\FreeRTOS_Source\portable\GCC\ARM_CM3/portmacro.h **** typedef long BaseType_t;
  57:..\..\FreeRTOS_Source\portable\GCC\ARM_CM3/portmacro.h **** typedef unsigned long UBaseType_t;
  58:..\..\FreeRTOS_Source\portable\GCC\ARM_CM3/portmacro.h **** 
  59:..\..\FreeRTOS_Source\portable\GCC\ARM_CM3/portmacro.h **** #if( configUSE_16_BIT_TICKS == 1 )
  60:..\..\FreeRTOS_Source\portable\GCC\ARM_CM3/portmacro.h **** 	typedef uint16_t TickType_t;
  61:..\..\FreeRTOS_Source\portable\GCC\ARM_CM3/portmacro.h **** 	#define portMAX_DELAY ( TickType_t ) 0xffff
  62:..\..\FreeRTOS_Source\portable\GCC\ARM_CM3/portmacro.h **** #else
  63:..\..\FreeRTOS_Source\portable\GCC\ARM_CM3/portmacro.h **** 	typedef uint32_t TickType_t;
  64:..\..\FreeRTOS_Source\portable\GCC\ARM_CM3/portmacro.h **** 	#define portMAX_DELAY ( TickType_t ) 0xffffffffUL
  65:..\..\FreeRTOS_Source\portable\GCC\ARM_CM3/portmacro.h **** 
ARM GAS  C:\Users\shevi\AppData\Local\Temp\cc7K7sYA.s 			page 11


  66:..\..\FreeRTOS_Source\portable\GCC\ARM_CM3/portmacro.h **** 	/* 32-bit tick type on a 32-bit architecture, so reads of the tick count do
  67:..\..\FreeRTOS_Source\portable\GCC\ARM_CM3/portmacro.h **** 	not need to be guarded with a critical section. */
  68:..\..\FreeRTOS_Source\portable\GCC\ARM_CM3/portmacro.h **** 	#define portTICK_TYPE_IS_ATOMIC 1
  69:..\..\FreeRTOS_Source\portable\GCC\ARM_CM3/portmacro.h **** #endif
  70:..\..\FreeRTOS_Source\portable\GCC\ARM_CM3/portmacro.h **** /*-----------------------------------------------------------*/
  71:..\..\FreeRTOS_Source\portable\GCC\ARM_CM3/portmacro.h **** 
  72:..\..\FreeRTOS_Source\portable\GCC\ARM_CM3/portmacro.h **** /* Architecture specifics. */
  73:..\..\FreeRTOS_Source\portable\GCC\ARM_CM3/portmacro.h **** #define portSTACK_GROWTH			( -1 )
  74:..\..\FreeRTOS_Source\portable\GCC\ARM_CM3/portmacro.h **** #define portTICK_PERIOD_MS			( ( TickType_t ) 1000 / configTICK_RATE_HZ )
  75:..\..\FreeRTOS_Source\portable\GCC\ARM_CM3/portmacro.h **** #define portBYTE_ALIGNMENT			8
  76:..\..\FreeRTOS_Source\portable\GCC\ARM_CM3/portmacro.h **** /*-----------------------------------------------------------*/
  77:..\..\FreeRTOS_Source\portable\GCC\ARM_CM3/portmacro.h **** 
  78:..\..\FreeRTOS_Source\portable\GCC\ARM_CM3/portmacro.h **** /* Scheduler utilities. */
  79:..\..\FreeRTOS_Source\portable\GCC\ARM_CM3/portmacro.h **** #define portYIELD() 															\
  80:..\..\FreeRTOS_Source\portable\GCC\ARM_CM3/portmacro.h **** {																				\
  81:..\..\FreeRTOS_Source\portable\GCC\ARM_CM3/portmacro.h **** 	/* Set a PendSV to request a context switch. */								\
  82:..\..\FreeRTOS_Source\portable\GCC\ARM_CM3/portmacro.h **** 	portNVIC_INT_CTRL_REG = portNVIC_PENDSVSET_BIT;								\
  83:..\..\FreeRTOS_Source\portable\GCC\ARM_CM3/portmacro.h **** 																				\
  84:..\..\FreeRTOS_Source\portable\GCC\ARM_CM3/portmacro.h **** 	/* Barriers are normally not required but do ensure the code is completely	\
  85:..\..\FreeRTOS_Source\portable\GCC\ARM_CM3/portmacro.h **** 	within the specified behaviour for the architecture. */						\
  86:..\..\FreeRTOS_Source\portable\GCC\ARM_CM3/portmacro.h **** 	__asm volatile( "dsb" ::: "memory" );										\
  87:..\..\FreeRTOS_Source\portable\GCC\ARM_CM3/portmacro.h **** 	__asm volatile( "isb" );													\
  88:..\..\FreeRTOS_Source\portable\GCC\ARM_CM3/portmacro.h **** }
  89:..\..\FreeRTOS_Source\portable\GCC\ARM_CM3/portmacro.h **** 
  90:..\..\FreeRTOS_Source\portable\GCC\ARM_CM3/portmacro.h **** #define portNVIC_INT_CTRL_REG		( * ( ( volatile uint32_t * ) 0xe000ed04 ) )
  91:..\..\FreeRTOS_Source\portable\GCC\ARM_CM3/portmacro.h **** #define portNVIC_PENDSVSET_BIT		( 1UL << 28UL )
  92:..\..\FreeRTOS_Source\portable\GCC\ARM_CM3/portmacro.h **** #define portEND_SWITCHING_ISR( xSwitchRequired ) if( xSwitchRequired != pdFALSE ) portYIELD()
  93:..\..\FreeRTOS_Source\portable\GCC\ARM_CM3/portmacro.h **** #define portYIELD_FROM_ISR( x ) portEND_SWITCHING_ISR( x )
  94:..\..\FreeRTOS_Source\portable\GCC\ARM_CM3/portmacro.h **** /*-----------------------------------------------------------*/
  95:..\..\FreeRTOS_Source\portable\GCC\ARM_CM3/portmacro.h **** 
  96:..\..\FreeRTOS_Source\portable\GCC\ARM_CM3/portmacro.h **** /* Critical section management. */
  97:..\..\FreeRTOS_Source\portable\GCC\ARM_CM3/portmacro.h **** extern void vPortEnterCritical( void );
  98:..\..\FreeRTOS_Source\portable\GCC\ARM_CM3/portmacro.h **** extern void vPortExitCritical( void );
  99:..\..\FreeRTOS_Source\portable\GCC\ARM_CM3/portmacro.h **** #define portSET_INTERRUPT_MASK_FROM_ISR()		ulPortRaiseBASEPRI()
 100:..\..\FreeRTOS_Source\portable\GCC\ARM_CM3/portmacro.h **** #define portCLEAR_INTERRUPT_MASK_FROM_ISR(x)	vPortSetBASEPRI(x)
 101:..\..\FreeRTOS_Source\portable\GCC\ARM_CM3/portmacro.h **** #define portDISABLE_INTERRUPTS()				vPortRaiseBASEPRI()
 102:..\..\FreeRTOS_Source\portable\GCC\ARM_CM3/portmacro.h **** #define portENABLE_INTERRUPTS()					vPortSetBASEPRI(0)
 103:..\..\FreeRTOS_Source\portable\GCC\ARM_CM3/portmacro.h **** #define portENTER_CRITICAL()					vPortEnterCritical()
 104:..\..\FreeRTOS_Source\portable\GCC\ARM_CM3/portmacro.h **** #define portEXIT_CRITICAL()						vPortExitCritical()
 105:..\..\FreeRTOS_Source\portable\GCC\ARM_CM3/portmacro.h **** 
 106:..\..\FreeRTOS_Source\portable\GCC\ARM_CM3/portmacro.h **** /*-----------------------------------------------------------*/
 107:..\..\FreeRTOS_Source\portable\GCC\ARM_CM3/portmacro.h **** 
 108:..\..\FreeRTOS_Source\portable\GCC\ARM_CM3/portmacro.h **** /* Task function macros as described on the FreeRTOS.org WEB site.  These are
 109:..\..\FreeRTOS_Source\portable\GCC\ARM_CM3/portmacro.h **** not necessary for to use this port.  They are defined so the common demo files
 110:..\..\FreeRTOS_Source\portable\GCC\ARM_CM3/portmacro.h **** (which build with all the ports) will build. */
 111:..\..\FreeRTOS_Source\portable\GCC\ARM_CM3/portmacro.h **** #define portTASK_FUNCTION_PROTO( vFunction, pvParameters ) void vFunction( void *pvParameters )
 112:..\..\FreeRTOS_Source\portable\GCC\ARM_CM3/portmacro.h **** #define portTASK_FUNCTION( vFunction, pvParameters ) void vFunction( void *pvParameters )
 113:..\..\FreeRTOS_Source\portable\GCC\ARM_CM3/portmacro.h **** /*-----------------------------------------------------------*/
 114:..\..\FreeRTOS_Source\portable\GCC\ARM_CM3/portmacro.h **** 
 115:..\..\FreeRTOS_Source\portable\GCC\ARM_CM3/portmacro.h **** /* Tickless idle/low power functionality. */
 116:..\..\FreeRTOS_Source\portable\GCC\ARM_CM3/portmacro.h **** #ifndef portSUPPRESS_TICKS_AND_SLEEP
 117:..\..\FreeRTOS_Source\portable\GCC\ARM_CM3/portmacro.h **** 	extern void vPortSuppressTicksAndSleep( TickType_t xExpectedIdleTime );
 118:..\..\FreeRTOS_Source\portable\GCC\ARM_CM3/portmacro.h **** 	#define portSUPPRESS_TICKS_AND_SLEEP( xExpectedIdleTime ) vPortSuppressTicksAndSleep( xExpectedIdl
 119:..\..\FreeRTOS_Source\portable\GCC\ARM_CM3/portmacro.h **** #endif
 120:..\..\FreeRTOS_Source\portable\GCC\ARM_CM3/portmacro.h **** /*-----------------------------------------------------------*/
 121:..\..\FreeRTOS_Source\portable\GCC\ARM_CM3/portmacro.h **** 
 122:..\..\FreeRTOS_Source\portable\GCC\ARM_CM3/portmacro.h **** /* Architecture specific optimisations. */
ARM GAS  C:\Users\shevi\AppData\Local\Temp\cc7K7sYA.s 			page 12


 123:..\..\FreeRTOS_Source\portable\GCC\ARM_CM3/portmacro.h **** #ifndef configUSE_PORT_OPTIMISED_TASK_SELECTION
 124:..\..\FreeRTOS_Source\portable\GCC\ARM_CM3/portmacro.h **** 	#define configUSE_PORT_OPTIMISED_TASK_SELECTION 1
 125:..\..\FreeRTOS_Source\portable\GCC\ARM_CM3/portmacro.h **** #endif
 126:..\..\FreeRTOS_Source\portable\GCC\ARM_CM3/portmacro.h **** 
 127:..\..\FreeRTOS_Source\portable\GCC\ARM_CM3/portmacro.h **** #if configUSE_PORT_OPTIMISED_TASK_SELECTION == 1
 128:..\..\FreeRTOS_Source\portable\GCC\ARM_CM3/portmacro.h **** 
 129:..\..\FreeRTOS_Source\portable\GCC\ARM_CM3/portmacro.h **** 	/* Generic helper function. */
 130:..\..\FreeRTOS_Source\portable\GCC\ARM_CM3/portmacro.h **** 	__attribute__( ( always_inline ) ) static inline uint8_t ucPortCountLeadingZeros( uint32_t ulBitma
 131:..\..\FreeRTOS_Source\portable\GCC\ARM_CM3/portmacro.h **** 	{
 132:..\..\FreeRTOS_Source\portable\GCC\ARM_CM3/portmacro.h **** 	uint8_t ucReturn;
 133:..\..\FreeRTOS_Source\portable\GCC\ARM_CM3/portmacro.h **** 
 134:..\..\FreeRTOS_Source\portable\GCC\ARM_CM3/portmacro.h **** 		__asm volatile ( "clz %0, %1" : "=r" ( ucReturn ) : "r" ( ulBitmap ) : "memory" );
 135:..\..\FreeRTOS_Source\portable\GCC\ARM_CM3/portmacro.h **** 		return ucReturn;
 136:..\..\FreeRTOS_Source\portable\GCC\ARM_CM3/portmacro.h **** 	}
 137:..\..\FreeRTOS_Source\portable\GCC\ARM_CM3/portmacro.h **** 
 138:..\..\FreeRTOS_Source\portable\GCC\ARM_CM3/portmacro.h **** 	/* Check the configuration. */
 139:..\..\FreeRTOS_Source\portable\GCC\ARM_CM3/portmacro.h **** 	#if( configMAX_PRIORITIES > 32 )
 140:..\..\FreeRTOS_Source\portable\GCC\ARM_CM3/portmacro.h **** 		#error configUSE_PORT_OPTIMISED_TASK_SELECTION can only be set to 1 when configMAX_PRIORITIES is 
 141:..\..\FreeRTOS_Source\portable\GCC\ARM_CM3/portmacro.h **** 	#endif
 142:..\..\FreeRTOS_Source\portable\GCC\ARM_CM3/portmacro.h **** 
 143:..\..\FreeRTOS_Source\portable\GCC\ARM_CM3/portmacro.h **** 	/* Store/clear the ready priorities in a bit map. */
 144:..\..\FreeRTOS_Source\portable\GCC\ARM_CM3/portmacro.h **** 	#define portRECORD_READY_PRIORITY( uxPriority, uxReadyPriorities ) ( uxReadyPriorities ) |= ( 1UL 
 145:..\..\FreeRTOS_Source\portable\GCC\ARM_CM3/portmacro.h **** 	#define portRESET_READY_PRIORITY( uxPriority, uxReadyPriorities ) ( uxReadyPriorities ) &= ~( 1UL 
 146:..\..\FreeRTOS_Source\portable\GCC\ARM_CM3/portmacro.h **** 
 147:..\..\FreeRTOS_Source\portable\GCC\ARM_CM3/portmacro.h **** 	/*-----------------------------------------------------------*/
 148:..\..\FreeRTOS_Source\portable\GCC\ARM_CM3/portmacro.h **** 
 149:..\..\FreeRTOS_Source\portable\GCC\ARM_CM3/portmacro.h **** 	#define portGET_HIGHEST_PRIORITY( uxTopPriority, uxReadyPriorities ) uxTopPriority = ( 31UL - ( ui
 150:..\..\FreeRTOS_Source\portable\GCC\ARM_CM3/portmacro.h **** 
 151:..\..\FreeRTOS_Source\portable\GCC\ARM_CM3/portmacro.h **** #endif /* configUSE_PORT_OPTIMISED_TASK_SELECTION */
 152:..\..\FreeRTOS_Source\portable\GCC\ARM_CM3/portmacro.h **** 
 153:..\..\FreeRTOS_Source\portable\GCC\ARM_CM3/portmacro.h **** /*-----------------------------------------------------------*/
 154:..\..\FreeRTOS_Source\portable\GCC\ARM_CM3/portmacro.h **** 
 155:..\..\FreeRTOS_Source\portable\GCC\ARM_CM3/portmacro.h **** #ifdef configASSERT
 156:..\..\FreeRTOS_Source\portable\GCC\ARM_CM3/portmacro.h **** 	void vPortValidateInterruptPriority( void );
 157:..\..\FreeRTOS_Source\portable\GCC\ARM_CM3/portmacro.h **** 	#define portASSERT_IF_INTERRUPT_PRIORITY_INVALID() 	vPortValidateInterruptPriority()
 158:..\..\FreeRTOS_Source\portable\GCC\ARM_CM3/portmacro.h **** #endif
 159:..\..\FreeRTOS_Source\portable\GCC\ARM_CM3/portmacro.h **** 
 160:..\..\FreeRTOS_Source\portable\GCC\ARM_CM3/portmacro.h **** /* portNOP() is not required by this port. */
 161:..\..\FreeRTOS_Source\portable\GCC\ARM_CM3/portmacro.h **** #define portNOP()
 162:..\..\FreeRTOS_Source\portable\GCC\ARM_CM3/portmacro.h **** 
 163:..\..\FreeRTOS_Source\portable\GCC\ARM_CM3/portmacro.h **** #define portINLINE	__inline
 164:..\..\FreeRTOS_Source\portable\GCC\ARM_CM3/portmacro.h **** 
 165:..\..\FreeRTOS_Source\portable\GCC\ARM_CM3/portmacro.h **** #ifndef portFORCE_INLINE
 166:..\..\FreeRTOS_Source\portable\GCC\ARM_CM3/portmacro.h **** 	#define portFORCE_INLINE inline __attribute__(( always_inline))
 167:..\..\FreeRTOS_Source\portable\GCC\ARM_CM3/portmacro.h **** #endif
 168:..\..\FreeRTOS_Source\portable\GCC\ARM_CM3/portmacro.h **** 
 169:..\..\FreeRTOS_Source\portable\GCC\ARM_CM3/portmacro.h **** portFORCE_INLINE static BaseType_t xPortIsInsideInterrupt( void )
 170:..\..\FreeRTOS_Source\portable\GCC\ARM_CM3/portmacro.h **** {
 171:..\..\FreeRTOS_Source\portable\GCC\ARM_CM3/portmacro.h **** uint32_t ulCurrentInterrupt;
 172:..\..\FreeRTOS_Source\portable\GCC\ARM_CM3/portmacro.h **** BaseType_t xReturn;
 173:..\..\FreeRTOS_Source\portable\GCC\ARM_CM3/portmacro.h **** 
 174:..\..\FreeRTOS_Source\portable\GCC\ARM_CM3/portmacro.h **** 	/* Obtain the number of the currently executing interrupt. */
 175:..\..\FreeRTOS_Source\portable\GCC\ARM_CM3/portmacro.h **** 	__asm volatile( "mrs %0, ipsr" : "=r"( ulCurrentInterrupt ) :: "memory" );
 176:..\..\FreeRTOS_Source\portable\GCC\ARM_CM3/portmacro.h **** 
 177:..\..\FreeRTOS_Source\portable\GCC\ARM_CM3/portmacro.h **** 	if( ulCurrentInterrupt == 0 )
 178:..\..\FreeRTOS_Source\portable\GCC\ARM_CM3/portmacro.h **** 	{
 179:..\..\FreeRTOS_Source\portable\GCC\ARM_CM3/portmacro.h **** 		xReturn = pdFALSE;
ARM GAS  C:\Users\shevi\AppData\Local\Temp\cc7K7sYA.s 			page 13


 180:..\..\FreeRTOS_Source\portable\GCC\ARM_CM3/portmacro.h **** 	}
 181:..\..\FreeRTOS_Source\portable\GCC\ARM_CM3/portmacro.h **** 	else
 182:..\..\FreeRTOS_Source\portable\GCC\ARM_CM3/portmacro.h **** 	{
 183:..\..\FreeRTOS_Source\portable\GCC\ARM_CM3/portmacro.h **** 		xReturn = pdTRUE;
 184:..\..\FreeRTOS_Source\portable\GCC\ARM_CM3/portmacro.h **** 	}
 185:..\..\FreeRTOS_Source\portable\GCC\ARM_CM3/portmacro.h **** 
 186:..\..\FreeRTOS_Source\portable\GCC\ARM_CM3/portmacro.h **** 	return xReturn;
 187:..\..\FreeRTOS_Source\portable\GCC\ARM_CM3/portmacro.h **** }
 188:..\..\FreeRTOS_Source\portable\GCC\ARM_CM3/portmacro.h **** 
 189:..\..\FreeRTOS_Source\portable\GCC\ARM_CM3/portmacro.h **** /*-----------------------------------------------------------*/
 190:..\..\FreeRTOS_Source\portable\GCC\ARM_CM3/portmacro.h **** 
 191:..\..\FreeRTOS_Source\portable\GCC\ARM_CM3/portmacro.h **** portFORCE_INLINE static void vPortRaiseBASEPRI( void )
 192:..\..\FreeRTOS_Source\portable\GCC\ARM_CM3/portmacro.h **** {
 193:..\..\FreeRTOS_Source\portable\GCC\ARM_CM3/portmacro.h **** uint32_t ulNewBASEPRI;
 194:..\..\FreeRTOS_Source\portable\GCC\ARM_CM3/portmacro.h **** 
 195:..\..\FreeRTOS_Source\portable\GCC\ARM_CM3/portmacro.h **** 	__asm volatile
 196:..\..\FreeRTOS_Source\portable\GCC\ARM_CM3/portmacro.h **** 	(
 197:..\..\FreeRTOS_Source\portable\GCC\ARM_CM3/portmacro.h **** 		"	mov %0, %1												\n" \
 198:..\..\FreeRTOS_Source\portable\GCC\ARM_CM3/portmacro.h **** 		"	msr basepri, %0											\n" \
 199:..\..\FreeRTOS_Source\portable\GCC\ARM_CM3/portmacro.h **** 		"	isb														\n" \
 200:..\..\FreeRTOS_Source\portable\GCC\ARM_CM3/portmacro.h **** 		"	dsb														\n" \
 201:..\..\FreeRTOS_Source\portable\GCC\ARM_CM3/portmacro.h **** 		:"=r" (ulNewBASEPRI) : "i" ( configMAX_SYSCALL_INTERRUPT_PRIORITY ) : "memory"
 202:..\..\FreeRTOS_Source\portable\GCC\ARM_CM3/portmacro.h **** 	);
 203:..\..\FreeRTOS_Source\portable\GCC\ARM_CM3/portmacro.h **** }
 204:..\..\FreeRTOS_Source\portable\GCC\ARM_CM3/portmacro.h **** 
 205:..\..\FreeRTOS_Source\portable\GCC\ARM_CM3/portmacro.h **** /*-----------------------------------------------------------*/
 206:..\..\FreeRTOS_Source\portable\GCC\ARM_CM3/portmacro.h **** 
 207:..\..\FreeRTOS_Source\portable\GCC\ARM_CM3/portmacro.h **** portFORCE_INLINE static uint32_t ulPortRaiseBASEPRI( void )
 208:..\..\FreeRTOS_Source\portable\GCC\ARM_CM3/portmacro.h **** {
 209:..\..\FreeRTOS_Source\portable\GCC\ARM_CM3/portmacro.h **** uint32_t ulOriginalBASEPRI, ulNewBASEPRI;
 210:..\..\FreeRTOS_Source\portable\GCC\ARM_CM3/portmacro.h **** 
 211:..\..\FreeRTOS_Source\portable\GCC\ARM_CM3/portmacro.h **** 	__asm volatile
 364              		.loc 2 211 0
 365              	@ 211 "..\..\FreeRTOS_Source\portable\GCC\ARM_CM3/portmacro.h" 1
 366 0034 EFF31182 			mrs r2, basepri											
 367 0038 4FF0A003 		mov r3, #160												
 368 003c 83F31188 		msr basepri, r3											
 369 0040 BFF36F8F 		isb														
 370 0044 BFF34F8F 		dsb														
 371              	
 372              	@ 0 "" 2
 373              		.thumb
 374 0048 3A61     		str	r2, [r7, #16]
 375 004a FB60     		str	r3, [r7, #12]
 212:..\..\FreeRTOS_Source\portable\GCC\ARM_CM3/portmacro.h **** 	(
 213:..\..\FreeRTOS_Source\portable\GCC\ARM_CM3/portmacro.h **** 		"	mrs %0, basepri											\n" \
 214:..\..\FreeRTOS_Source\portable\GCC\ARM_CM3/portmacro.h **** 		"	mov %1, %2												\n" \
 215:..\..\FreeRTOS_Source\portable\GCC\ARM_CM3/portmacro.h **** 		"	msr basepri, %1											\n" \
 216:..\..\FreeRTOS_Source\portable\GCC\ARM_CM3/portmacro.h **** 		"	isb														\n" \
 217:..\..\FreeRTOS_Source\portable\GCC\ARM_CM3/portmacro.h **** 		"	dsb														\n" \
 218:..\..\FreeRTOS_Source\portable\GCC\ARM_CM3/portmacro.h **** 		:"=r" (ulOriginalBASEPRI), "=r" (ulNewBASEPRI) : "i" ( configMAX_SYSCALL_INTERRUPT_PRIORITY ) : "
 219:..\..\FreeRTOS_Source\portable\GCC\ARM_CM3/portmacro.h **** 	);
 220:..\..\FreeRTOS_Source\portable\GCC\ARM_CM3/portmacro.h **** 
 221:..\..\FreeRTOS_Source\portable\GCC\ARM_CM3/portmacro.h **** 	/* This return will not be reached but is necessary to prevent compiler
 222:..\..\FreeRTOS_Source\portable\GCC\ARM_CM3/portmacro.h **** 	warnings. */
 223:..\..\FreeRTOS_Source\portable\GCC\ARM_CM3/portmacro.h **** 	return ulOriginalBASEPRI;
 376              		.loc 2 223 0
ARM GAS  C:\Users\shevi\AppData\Local\Temp\cc7K7sYA.s 			page 14


 377 004c 3B69     		ldr	r3, [r7, #16]
 378              	.LBE11:
 379              	.LBE10:
 141:Serial.c      **** 		
 142:Serial.c      **** 		/* Mask off the other RTOS interrupts to interact with the queue. */
 143:Serial.c      **** 		ulMask = portSET_INTERRUPT_MASK_FROM_ISR();
 380              		.loc 1 143 0
 381 004e 7B61     		str	r3, [r7, #20]
 144:Serial.c      **** 		{
 145:Serial.c      **** 			/* Try to deliver the character. */
 146:Serial.c      **** 			if( pdTRUE != xQueueSendFromISR( xSerialRxQueue, &cInChar, &xHigherPriorityTaskWoken ) )
 382              		.loc 1 146 0
 383 0050 0E4B     		ldr	r3, .L27
 384 0052 1968     		ldr	r1, [r3]
 385 0054 BA1C     		adds	r2, r7, #2
 386 0056 3B1D     		adds	r3, r7, #4
 387 0058 0846     		mov	r0, r1
 388 005a 1146     		mov	r1, r2
 389 005c 1A46     		mov	r2, r3
 390 005e 0023     		movs	r3, #0
 391 0060 FFF7FEFF 		bl	xQueueGenericSendFromISR
 392 0064 7B69     		ldr	r3, [r7, #20]
 393 0066 BB60     		str	r3, [r7, #8]
 394              	.LBB12:
 395              	.LBB13:
 224:..\..\FreeRTOS_Source\portable\GCC\ARM_CM3/portmacro.h **** }
 225:..\..\FreeRTOS_Source\portable\GCC\ARM_CM3/portmacro.h **** /*-----------------------------------------------------------*/
 226:..\..\FreeRTOS_Source\portable\GCC\ARM_CM3/portmacro.h **** 
 227:..\..\FreeRTOS_Source\portable\GCC\ARM_CM3/portmacro.h **** portFORCE_INLINE static void vPortSetBASEPRI( uint32_t ulNewMaskValue )
 228:..\..\FreeRTOS_Source\portable\GCC\ARM_CM3/portmacro.h **** {
 229:..\..\FreeRTOS_Source\portable\GCC\ARM_CM3/portmacro.h **** 	__asm volatile
 396              		.loc 2 229 0
 397 0068 BB68     		ldr	r3, [r7, #8]
 398              	@ 229 "..\..\FreeRTOS_Source\portable\GCC\ARM_CM3/portmacro.h" 1
 399 006a 83F31188 			msr basepri, r3	
 400              	@ 0 "" 2
 401              		.thumb
 402              	.L24:
 403              	.LBE13:
 404              	.LBE12:
 147:Serial.c      **** 			{
 148:Serial.c      **** 				/* Run out of space. */
 149:Serial.c      **** 			}
 150:Serial.c      **** 		}
 151:Serial.c      **** 		portCLEAR_INTERRUPT_MASK_FROM_ISR( ulMask );
 152:Serial.c      **** 	}
 153:Serial.c      **** 
 154:Serial.c      **** 	/* If we delivered the character then a context switch might be required.
 155:Serial.c      **** 	xHigherPriorityTaskWoken was set to pdFALSE on interrupt entry.  If calling 
 156:Serial.c      **** 	xQueueSendFromISR() caused a task to unblock, and the unblocked task has
 157:Serial.c      **** 	a priority equal to or higher than the currently running task (the task this
 158:Serial.c      **** 	ISR interrupted), then xHigherPriorityTaskWoken will have been set to pdTRUE and
 159:Serial.c      **** 	portEND_SWITCHING_ISR() will request a context switch to the newly unblocked
 160:Serial.c      **** 	task. */
 161:Serial.c      **** 	portEND_SWITCHING_ISR( xHigherPriorityTaskWoken );
 405              		.loc 1 161 0
 406 006e 7B68     		ldr	r3, [r7, #4]
ARM GAS  C:\Users\shevi\AppData\Local\Temp\cc7K7sYA.s 			page 15


 407 0070 002B     		cmp	r3, #0
 408 0072 07D0     		beq	.L23
 409              		.loc 1 161 0 is_stmt 0 discriminator 1
 410 0074 064B     		ldr	r3, .L27+4
 411 0076 4FF08052 		mov	r2, #268435456
 412 007a 1A60     		str	r2, [r3]
 413              	@ 161 "Serial.c" 1
 414 007c BFF34F8F 		dsb
 415              	@ 0 "" 2
 416              	@ 161 "Serial.c" 1
 417 0080 BFF36F8F 		isb
 418              	@ 0 "" 2
 419              		.thumb
 420              	.L23:
 162:Serial.c      **** }
 421              		.loc 1 162 0 is_stmt 1
 422 0084 1837     		adds	r7, r7, #24
 423              		.cfi_def_cfa_offset 8
 424 0086 BD46     		mov	sp, r7
 425              		.cfi_def_cfa_register 13
 426              		@ sp needed
 427 0088 80BD     		pop	{r7, pc}
 428              	.L28:
 429 008a 00BF     		.align	2
 430              	.L27:
 431 008c 04000000 		.word	xSerialRxQueue
 432 0090 04ED00E0 		.word	-536810236
 433              		.cfi_endproc
 434              	.LFE72:
 435              		.size	vUartRxISR, .-vUartRxISR
 436              		.section	.text.vUartTxISR,"ax",%progbits
 437              		.align	2
 438              		.global	vUartTxISR
 439              		.thumb
 440              		.thumb_func
 441              		.type	vUartTxISR, %function
 442              	vUartTxISR:
 443              	.LFB73:
 163:Serial.c      **** /*---------------------------------------------------------------------------*/
 164:Serial.c      **** 
 165:Serial.c      **** CY_ISR(vUartTxISR)
 166:Serial.c      **** {
 444              		.loc 1 166 0
 445              		.cfi_startproc
 446              		@ args = 0, pretend = 0, frame = 24
 447              		@ frame_needed = 1, uses_anonymous_args = 0
 448 0000 80B5     		push	{r7, lr}
 449              		.cfi_def_cfa_offset 8
 450              		.cfi_offset 7, -8
 451              		.cfi_offset 14, -4
 452 0002 86B0     		sub	sp, sp, #24
 453              		.cfi_def_cfa_offset 32
 454 0004 00AF     		add	r7, sp, #0
 455              		.cfi_def_cfa_register 7
 167:Serial.c      **** portBASE_TYPE xHigherPriorityTaskWoken = pdFALSE;
 456              		.loc 1 167 0
 457 0006 0023     		movs	r3, #0
ARM GAS  C:\Users\shevi\AppData\Local\Temp\cc7K7sYA.s 			page 16


 458 0008 7B60     		str	r3, [r7, #4]
 168:Serial.c      **** volatile unsigned char ucStatus = 0;
 459              		.loc 1 168 0
 460 000a 0023     		movs	r3, #0
 461 000c FB70     		strb	r3, [r7, #3]
 169:Serial.c      **** signed char cOutChar = 0;
 462              		.loc 1 169 0
 463 000e 0023     		movs	r3, #0
 464 0010 BB70     		strb	r3, [r7, #2]
 170:Serial.c      **** unsigned long ulMask = 0;
 465              		.loc 1 170 0
 466 0012 0023     		movs	r3, #0
 467 0014 7B61     		str	r3, [r7, #20]
 171:Serial.c      **** 
 172:Serial.c      **** 	/* Read the status to acknowledge. */
 173:Serial.c      **** 	ucStatus = UART_1_ReadTxStatus();
 468              		.loc 1 173 0
 469 0016 FFF7FEFF 		bl	UART_1_ReadTxStatus
 470 001a 0346     		mov	r3, r0
 471 001c FB70     		strb	r3, [r7, #3]
 174:Serial.c      **** 	
 175:Serial.c      **** 	/* Check to see whether this is a genuine interrupt. */
 176:Serial.c      **** 	if( ( 0 != ( ucStatus & UART_1_TX_STS_COMPLETE ) ) || ( 0 != ( ucStatus & UART_1_TX_STS_FIFO_EMPTY
 472              		.loc 1 176 0
 473 001e FB78     		ldrb	r3, [r7, #3]
 474 0020 DBB2     		uxtb	r3, r3
 475 0022 03F00103 		and	r3, r3, #1
 476 0026 002B     		cmp	r3, #0
 477 0028 05D1     		bne	.L30
 478              		.loc 1 176 0 is_stmt 0 discriminator 1
 479 002a FB78     		ldrb	r3, [r7, #3]
 480 002c DBB2     		uxtb	r3, r3
 481 002e 03F00203 		and	r3, r3, #2
 482 0032 002B     		cmp	r3, #0
 483 0034 2AD0     		beq	.L31
 484              	.L30:
 485              	.LBB14:
 486              	.LBB15:
 211:..\..\FreeRTOS_Source\portable\GCC\ARM_CM3/portmacro.h **** 	(
 487              		.loc 2 211 0 is_stmt 1
 488              	@ 211 "..\..\FreeRTOS_Source\portable\GCC\ARM_CM3/portmacro.h" 1
 489 0036 EFF31182 			mrs r2, basepri											
 490 003a 4FF0A003 		mov r3, #160												
 491 003e 83F31188 		msr basepri, r3											
 492 0042 BFF36F8F 		isb														
 493 0046 BFF34F8F 		dsb														
 494              	
 495              	@ 0 "" 2
 496              		.thumb
 497 004a 3A61     		str	r2, [r7, #16]
 498 004c FB60     		str	r3, [r7, #12]
 223:..\..\FreeRTOS_Source\portable\GCC\ARM_CM3/portmacro.h **** }
 499              		.loc 2 223 0
 500 004e 3B69     		ldr	r3, [r7, #16]
 501              	.LBE15:
 502              	.LBE14:
 177:Serial.c      **** 	{	
ARM GAS  C:\Users\shevi\AppData\Local\Temp\cc7K7sYA.s 			page 17


 178:Serial.c      **** 		/* Mask off the other RTOS interrupts to interact with the queue. */
 179:Serial.c      **** 		ulMask = portSET_INTERRUPT_MASK_FROM_ISR();
 503              		.loc 1 179 0
 504 0050 7B61     		str	r3, [r7, #20]
 180:Serial.c      **** 		{
 181:Serial.c      **** 			if( pdTRUE == xQueueReceiveFromISR( xSerialTxQueue, &cOutChar, &xHigherPriorityTaskWoken ) )
 505              		.loc 1 181 0
 506 0052 154B     		ldr	r3, .L36
 507 0054 1968     		ldr	r1, [r3]
 508 0056 BA1C     		adds	r2, r7, #2
 509 0058 3B1D     		adds	r3, r7, #4
 510 005a 0846     		mov	r0, r1
 511 005c 1146     		mov	r1, r2
 512 005e 1A46     		mov	r2, r3
 513 0060 FFF7FEFF 		bl	xQueueReceiveFromISR
 514 0064 0346     		mov	r3, r0
 515 0066 012B     		cmp	r3, #1
 516 0068 08D1     		bne	.L33
 182:Serial.c      **** 			{
 183:Serial.c      **** 				/* Send the next character. */
 184:Serial.c      **** 				UART_1_PutChar( cOutChar );			
 517              		.loc 1 184 0
 518 006a BB78     		ldrb	r3, [r7, #2]	@ zero_extendqisi2
 519 006c DBB2     		uxtb	r3, r3
 520 006e 1846     		mov	r0, r3
 521 0070 FFF7FEFF 		bl	UART_1_PutChar
 185:Serial.c      **** 
 186:Serial.c      **** 				/* If we are firing, then the only interrupt we are interested in
 187:Serial.c      **** 				is the Complete. The application code will add the Empty interrupt
 188:Serial.c      **** 				when there is something else to be done. */
 189:Serial.c      **** 				UART_1_SetTxInterruptMode( UART_1_TX_STS_COMPLETE );
 522              		.loc 1 189 0
 523 0074 0120     		movs	r0, #1
 524 0076 FFF7FEFF 		bl	UART_1_SetTxInterruptMode
 525 007a 02E0     		b	.L34
 526              	.L33:
 190:Serial.c      **** 			}
 191:Serial.c      **** 			else
 192:Serial.c      **** 			{
 193:Serial.c      **** 				/* There is no work left so disable the interrupt until the application 
 194:Serial.c      **** 				puts more into the queue. */
 195:Serial.c      **** 				UART_1_SetTxInterruptMode( 0 );
 527              		.loc 1 195 0
 528 007c 0020     		movs	r0, #0
 529 007e FFF7FEFF 		bl	UART_1_SetTxInterruptMode
 530              	.L34:
 531 0082 7B69     		ldr	r3, [r7, #20]
 532 0084 BB60     		str	r3, [r7, #8]
 533              	.LBB16:
 534              	.LBB17:
 535              		.loc 2 229 0
 536 0086 BB68     		ldr	r3, [r7, #8]
 537              	@ 229 "..\..\FreeRTOS_Source\portable\GCC\ARM_CM3/portmacro.h" 1
 538 0088 83F31188 			msr basepri, r3	
 539              	@ 0 "" 2
 540              		.thumb
 541              	.L31:
ARM GAS  C:\Users\shevi\AppData\Local\Temp\cc7K7sYA.s 			page 18


 542              	.LBE17:
 543              	.LBE16:
 196:Serial.c      **** 			}
 197:Serial.c      **** 		}
 198:Serial.c      **** 		portCLEAR_INTERRUPT_MASK_FROM_ISR( ulMask );
 199:Serial.c      **** 	}
 200:Serial.c      **** 
 201:Serial.c      **** 	/* If we delivered the character then a context switch might be required.
 202:Serial.c      **** 	xHigherPriorityTaskWoken was set to pdFALSE on interrupt entry.  If calling 
 203:Serial.c      **** 	xQueueSendFromISR() caused a task to unblock, and the unblocked task has
 204:Serial.c      **** 	a priority equal to or higher than the currently running task (the task this
 205:Serial.c      **** 	ISR interrupted), then xHigherPriorityTaskWoken will have been set to pdTRUE and
 206:Serial.c      **** 	portEND_SWITCHING_ISR() will request a context switch to the newly unblocked
 207:Serial.c      **** 	task. */
 208:Serial.c      **** 	portEND_SWITCHING_ISR( xHigherPriorityTaskWoken );
 544              		.loc 1 208 0
 545 008c 7B68     		ldr	r3, [r7, #4]
 546 008e 002B     		cmp	r3, #0
 547 0090 07D0     		beq	.L29
 548              		.loc 1 208 0 is_stmt 0 discriminator 1
 549 0092 064B     		ldr	r3, .L36+4
 550 0094 4FF08052 		mov	r2, #268435456
 551 0098 1A60     		str	r2, [r3]
 552              	@ 208 "Serial.c" 1
 553 009a BFF34F8F 		dsb
 554              	@ 0 "" 2
 555              	@ 208 "Serial.c" 1
 556 009e BFF36F8F 		isb
 557              	@ 0 "" 2
 558              		.thumb
 559              	.L29:
 209:Serial.c      **** }
 560              		.loc 1 209 0 is_stmt 1
 561 00a2 1837     		adds	r7, r7, #24
 562              		.cfi_def_cfa_offset 8
 563 00a4 BD46     		mov	sp, r7
 564              		.cfi_def_cfa_register 13
 565              		@ sp needed
 566 00a6 80BD     		pop	{r7, pc}
 567              	.L37:
 568              		.align	2
 569              	.L36:
 570 00a8 00000000 		.word	xSerialTxQueue
 571 00ac 04ED00E0 		.word	-536810236
 572              		.cfi_endproc
 573              	.LFE73:
 574              		.size	vUartTxISR, .-vUartTxISR
 575              		.text
 576              	.Letext0:
 577              		.file 3 "c:\\program files (x86)\\cypress\\psoc creator\\4.0\\psoc creator\\import\\gnu\\arm\\4.9.
 578              		.file 4 "c:\\program files (x86)\\cypress\\psoc creator\\4.0\\psoc creator\\import\\gnu\\arm\\4.9.
 579              		.file 5 "Generated_Source\\PSoC5/cytypes.h"
 580              		.file 6 "..\\..\\FreeRTOS_Source\\include/queue.h"
 581              		.file 7 "..\\..\\FreeRTOS_Source\\include/serial.h"
 582              		.file 8 "Generated_Source\\PSoC5/core_cm3.h"